; ModuleID = 'testSCC1.bc'
source_filename = "testSCC1.cpp"
target datalayout = "e-m:e-i64:64-f80:128-n8:16:32:64-S128"
target triple = "x86_64-unknown-linux-gnu"

%"class.std::ios_base::Init" = type { i8 }
%"class.std::basic_ostream" = type { i32 (...)**, %"class.std::basic_ios" }
%"class.std::basic_ios" = type { %"class.std::ios_base", %"class.std::basic_ostream"*, i8, i8, %"class.std::basic_streambuf"*, %"class.std::ctype"*, %"class.std::num_put"*, %"class.std::num_get"* }
%"class.std::ios_base" = type { i32 (...)**, i64, i64, i32, i32, i32, %"struct.std::ios_base::_Callback_list"*, %"struct.std::ios_base::_Words", [8 x %"struct.std::ios_base::_Words"], i32, %"struct.std::ios_base::_Words"*, %"class.std::locale" }
%"struct.std::ios_base::_Callback_list" = type { %"struct.std::ios_base::_Callback_list"*, void (i32, %"class.std::ios_base"*, i32)*, i32, i32 }
%"struct.std::ios_base::_Words" = type { i8*, i64 }
%"class.std::locale" = type { %"class.std::locale::_Impl"* }
%"class.std::locale::_Impl" = type { i32, %"class.std::locale::facet"**, i64, %"class.std::locale::facet"**, i8** }
%"class.std::locale::facet" = type <{ i32 (...)**, i32, [4 x i8] }>
%"class.std::basic_streambuf" = type { i32 (...)**, i8*, i8*, i8*, i8*, i8*, i8*, %"class.std::locale" }
%"class.std::ctype" = type <{ %"class.std::locale::facet.base", [4 x i8], %struct.__locale_struct*, i8, [7 x i8], i32*, i32*, i16*, i8, [256 x i8], [256 x i8], i8, [6 x i8] }>
%"class.std::locale::facet.base" = type <{ i32 (...)**, i32 }>
%struct.__locale_struct = type { [13 x %struct.__locale_data*], i16*, i32*, i32*, [13 x i8*] }
%struct.__locale_data = type opaque
%"class.std::num_put" = type { %"class.std::locale::facet.base", [4 x i8] }
%"class.std::num_get" = type { %"class.std::locale::facet.base", [4 x i8] }
%"struct.std::allocator_arg_t" = type { i8 }
%"class.MARC::ThreadSafeQueue" = type { %"struct.std::atomic", %"class.std::mutex", %"class.std::queue", %"class.std::condition_variable", %"class.std::condition_variable" }
%"struct.std::atomic" = type { %"struct.std::__atomic_base" }
%"struct.std::__atomic_base" = type { i8 }
%"class.std::mutex" = type { %"class.std::__mutex_base" }
%"class.std::__mutex_base" = type { %union.pthread_mutex_t }
%union.pthread_mutex_t = type { %"struct.(anonymous union)::__pthread_mutex_s" }
%"struct.(anonymous union)::__pthread_mutex_s" = type { i32, i32, i32, i32, i32, i16, i16, %struct.__pthread_internal_list }
%struct.__pthread_internal_list = type { %struct.__pthread_internal_list*, %struct.__pthread_internal_list* }
%"class.std::queue" = type { %"class.std::deque" }
%"class.std::deque" = type { %"class.std::_Deque_base" }
%"class.std::_Deque_base" = type { %"struct.std::_Deque_base<int, std::allocator<int> >::_Deque_impl" }
%"struct.std::_Deque_base<int, std::allocator<int> >::_Deque_impl" = type { i32**, i64, %"struct.std::_Deque_iterator", %"struct.std::_Deque_iterator" }
%"struct.std::_Deque_iterator" = type { i32*, i32*, i32*, i32** }
%"class.std::condition_variable" = type { %union.pthread_cond_t }
%union.pthread_cond_t = type { %struct.anon }
%struct.anon = type { i32, i32, i64, i64, i64, i8*, i32, i32 }
%"class.std::lock_guard" = type { %"class.std::mutex"* }
%"class.std::unique_lock" = type <{ %"class.std::mutex"*, i8, [7 x i8] }>
%class.anon.106 = type { %"class.MARC::ThreadSafeQueue"* }
%"class.MARC::ThreadPool" = type { %"struct.std::atomic", %"class.MARC::ThreadSafeQueue.0", %"class.std::vector", %"struct.std::atomic"*, %"class.MARC::ThreadSafeQueue.13" }
%"class.MARC::ThreadSafeQueue.0" = type { %"struct.std::atomic", %"class.std::mutex", %"class.std::queue.1", %"class.std::condition_variable", %"class.std::condition_variable" }
%"class.std::queue.1" = type { %"class.std::deque.2" }
%"class.std::deque.2" = type { %"class.std::_Deque_base.3" }
%"class.std::_Deque_base.3" = type { %"struct.std::_Deque_base<std::unique_ptr<MARC::IThreadTask, std::default_delete<MARC::IThreadTask> >, std::allocator<std::unique_ptr<MARC::IThreadTask, std::default_delete<MARC::IThreadTask> > > >::_Deque_impl" }
%"struct.std::_Deque_base<std::unique_ptr<MARC::IThreadTask, std::default_delete<MARC::IThreadTask> >, std::allocator<std::unique_ptr<MARC::IThreadTask, std::default_delete<MARC::IThreadTask> > > >::_Deque_impl" = type { %"class.std::unique_ptr"**, i64, %"struct.std::_Deque_iterator.9", %"struct.std::_Deque_iterator.9" }
%"class.std::unique_ptr" = type { %"class.std::tuple" }
%"class.std::tuple" = type { %"struct.std::_Tuple_impl" }
%"struct.std::_Tuple_impl" = type { %"struct.std::_Head_base.8" }
%"struct.std::_Head_base.8" = type { %"class.MARC::IThreadTask"* }
%"class.MARC::IThreadTask" = type { i32 (...)** }
%"struct.std::_Deque_iterator.9" = type { %"class.std::unique_ptr"*, %"class.std::unique_ptr"*, %"class.std::unique_ptr"*, %"class.std::unique_ptr"** }
%"class.std::vector" = type { %"struct.std::_Vector_base" }
%"struct.std::_Vector_base" = type { %"struct.std::_Vector_base<std::thread, std::allocator<std::thread> >::_Vector_impl" }
%"struct.std::_Vector_base<std::thread, std::allocator<std::thread> >::_Vector_impl" = type { %"class.std::thread"*, %"class.std::thread"*, %"class.std::thread"* }
%"class.std::thread" = type { %"class.std::thread::id" }
%"class.std::thread::id" = type { i64 }
%"class.MARC::ThreadSafeQueue.13" = type { %"struct.std::atomic", %"class.std::mutex", %"class.std::queue.14", %"class.std::condition_variable", %"class.std::condition_variable" }
%"class.std::queue.14" = type { %"class.std::deque.15" }
%"class.std::deque.15" = type { %"class.std::_Deque_base.16" }
%"class.std::_Deque_base.16" = type { %"struct.std::_Deque_base<std::function<void ()>, std::allocator<std::function<void ()> > >::_Deque_impl" }
%"struct.std::_Deque_base<std::function<void ()>, std::allocator<std::function<void ()> > >::_Deque_impl" = type { %"class.std::function"**, i64, %"struct.std::_Deque_iterator.20", %"struct.std::_Deque_iterator.20" }
%"class.std::function" = type { %"class.std::_Function_base", void (%"union.std::_Any_data"*)* }
%"class.std::_Function_base" = type { %"union.std::_Any_data", i1 (%"union.std::_Any_data"*, %"union.std::_Any_data"*, i32)* }
%"union.std::_Any_data" = type { %"union.std::_Nocopy_types" }
%"union.std::_Nocopy_types" = type { { i64, i64 } }
%"struct.std::_Deque_iterator.20" = type { %"class.std::function"*, %"class.std::function"*, %"class.std::function"*, %"class.std::function"** }
%"class.MARC::TaskFuture" = type { %"class.std::future" }
%"class.std::future" = type { %"class.std::__basic_future" }
%"class.std::__basic_future" = type { %"class.std::shared_ptr" }
%"class.std::shared_ptr" = type { %"class.std::__shared_ptr" }
%"class.std::__shared_ptr" = type { %"class.std::__future_base::_State_baseV2"*, %"class.std::__shared_count" }
%"class.std::__future_base::_State_baseV2" = type <{ i32 (...)**, %"class.std::unique_ptr.21", %"class.std::__atomic_futex_unsigned", %"struct.std::atomic_flag", [3 x i8], %"struct.std::once_flag", [4 x i8] }>
%"class.std::unique_ptr.21" = type { %"class.std::tuple.22" }
%"class.std::tuple.22" = type { %"struct.std::_Tuple_impl.23" }
%"struct.std::_Tuple_impl.23" = type { %"struct.std::_Head_base.26" }
%"struct.std::_Head_base.26" = type { %"struct.std::__future_base::_Result_base"* }
%"struct.std::__future_base::_Result_base" = type { i32 (...)**, %"class.std::__exception_ptr::exception_ptr" }
%"class.std::__exception_ptr::exception_ptr" = type { i8* }
%"class.std::__atomic_futex_unsigned" = type { %"struct.std::atomic.27" }
%"struct.std::atomic.27" = type { %"struct.std::__atomic_base.28" }
%"struct.std::__atomic_base.28" = type { i32 }
%"struct.std::atomic_flag" = type { %struct.__atomic_flag_base }
%struct.__atomic_flag_base = type { i8 }
%"struct.std::once_flag" = type { i32 }
%"class.std::__shared_count" = type { %"class.std::_Sp_counted_base"* }
%"class.std::_Sp_counted_base" = type { i32 (...)**, i32, i32 }
%"struct.std::_Maybe_unary_or_binary_function" = type { i8 }
%"class.std::_Bind" = type { i32 (%"class.MARC::ThreadSafeQueue"*)*, %"class.std::tuple.55" }
%"class.std::tuple.55" = type { %"struct.std::_Tuple_impl.56" }
%"struct.std::_Tuple_impl.56" = type { %"struct.std::_Head_base.57" }
%"struct.std::_Head_base.57" = type { %"class.MARC::ThreadSafeQueue"* }
%"class.std::packaged_task" = type { %"class.std::shared_ptr.58" }
%"class.std::shared_ptr.58" = type { %"class.std::__shared_ptr.59" }
%"class.std::__shared_ptr.59" = type { %"struct.std::__future_base::_Task_state_base"*, %"class.std::__shared_count" }
%"struct.std::__future_base::_Task_state_base" = type { %"class.std::__future_base::_State_baseV2.base", %"class.std::unique_ptr.60" }
%"class.std::__future_base::_State_baseV2.base" = type <{ i32 (...)**, %"class.std::unique_ptr.21", %"class.std::__atomic_futex_unsigned", %"struct.std::atomic_flag", [3 x i8], %"struct.std::once_flag" }>
%"class.std::unique_ptr.60" = type { %"class.std::tuple.61" }
%"class.std::tuple.61" = type { %"struct.std::_Tuple_impl.62" }
%"struct.std::_Tuple_impl.62" = type { %"struct.std::_Head_base.63" }
%"struct.std::_Head_base.63" = type { %"struct.std::__future_base::_Result"* }
%"struct.std::__future_base::_Result" = type <{ %"struct.std::__future_base::_Result_base", %"struct.__gnu_cxx::__aligned_buffer", i8, [3 x i8] }>
%"struct.__gnu_cxx::__aligned_buffer" = type { %"union.std::aligned_storage<4, 4>::type" }
%"union.std::aligned_storage<4, 4>::type" = type { [4 x i8] }
%"class.std::unique_ptr.65" = type { %"class.std::tuple.66" }
%"class.std::tuple.66" = type { %"struct.std::_Tuple_impl.67" }
%"struct.std::_Tuple_impl.67" = type { %"struct.std::_Head_base.72" }
%"struct.std::_Head_base.72" = type { %"class.MARC::ThreadTask"* }
%"class.MARC::ThreadTask" = type { %"class.MARC::IThreadTask", %"class.std::packaged_task" }
%"class.std::allocator.10" = type { i8 }
%"class.__gnu_cxx::__normal_iterator" = type { %"class.std::thread"* }
%"class.std::allocator.4" = type { i8 }
%"class.__gnu_cxx::new_allocator.5" = type { i8 }
%"class.std::allocator.29" = type { i8 }
%"class.__gnu_cxx::new_allocator.30" = type { i8 }
%"struct.std::integral_constant" = type { i8 }
%"struct.std::default_delete" = type { i8 }
%"struct.std::_Tuple_impl.7" = type { i8 }
%"struct.std::_Head_base" = type { i8 }
%"class.__gnu_cxx::new_allocator.11" = type { i8 }
%"class.std::allocator.17" = type { i8 }
%"class.__gnu_cxx::new_allocator.18" = type { i8 }
%"class.std::allocator.32" = type { i8 }
%"class.__gnu_cxx::new_allocator.33" = type { i8 }
%"class.std::unique_ptr.35" = type { %"class.std::tuple.36" }
%"class.std::tuple.36" = type { %"struct.std::_Tuple_impl.37" }
%"struct.std::_Tuple_impl.37" = type { %"struct.std::_Head_base.42" }
%"struct.std::_Head_base.42" = type { %"struct.std::thread::_State"* }
%"struct.std::thread::_State" = type { i32 (...)** }
%"struct.std::_Bind_simple" = type { %"class.std::tuple.43" }
%"class.std::tuple.43" = type { %"struct.std::_Tuple_impl.44" }
%"struct.std::_Tuple_impl.44" = type { %"struct.std::_Tuple_impl.45", %"struct.std::_Head_base.49" }
%"struct.std::_Tuple_impl.45" = type { %"struct.std::_Tuple_impl.46", %"struct.std::_Head_base.48" }
%"struct.std::_Tuple_impl.46" = type { %"struct.std::_Head_base.47" }
%"struct.std::_Head_base.47" = type { %"struct.std::atomic"* }
%"struct.std::_Head_base.48" = type { %"class.MARC::ThreadPool"* }
%"struct.std::_Head_base.49" = type { %"struct.std::_Mem_fn" }
%"struct.std::_Mem_fn" = type { %"class.std::_Mem_fn_base" }
%"class.std::_Mem_fn_base" = type { { i64, i64 } }
%union.pthread_attr_t = type { i64, [48 x i8] }
%"struct.std::thread::_State_impl" = type { %"struct.std::thread::_State", %"struct.std::_Bind_simple" }
%"struct.std::default_delete.40" = type { i8 }
%"struct.std::_Index_tuple" = type { i8 }
%"struct.std::__invoke_memfun_deref" = type { i8 }
%"struct.std::_Tuple_impl.38" = type { i8 }
%"struct.std::_Head_base.39" = type { i8 }
%"struct.std::_Maybe_unary_or_binary_function.50" = type { i8 }
%"class.std::move_iterator" = type { %"class.std::thread"* }
%class.anon = type { %"class.MARC::ThreadSafeQueue.0"* }
%class.anon.51 = type { %"class.MARC::ThreadSafeQueue.13"* }
%"class.std::allocator" = type { i8 }
%"class.__gnu_cxx::new_allocator" = type { i8 }
%"class.std::allocator.52" = type { i8 }
%"class.__gnu_cxx::new_allocator.53" = type { i8 }
%"struct.std::default_delete.70" = type { i8 }
%"struct.std::_Weak_result_type" = type { i8 }
%"class.std::shared_ptr.73" = type { %"class.std::__shared_ptr.74" }
%"class.std::__shared_ptr.74" = type { %"struct.std::__future_base::_Task_state"*, %"class.std::__shared_count" }
%"struct.std::__future_base::_Task_state" = type { %"struct.std::__future_base::_Task_state_base", %"struct.std::__future_base::_Task_state<std::_Bind<int (*(MARC::ThreadSafeQueue<int> *))(MARC::ThreadSafeQueue<int> *)>, std::allocator<int>, int ()>::_Impl" }
%"struct.std::__future_base::_Task_state<std::_Bind<int (*(MARC::ThreadSafeQueue<int> *))(MARC::ThreadSafeQueue<int> *)>, std::allocator<int>, int ()>::_Impl" = type { %"class.std::_Bind" }
%"struct.std::_Sp_make_shared_tag" = type { i8 }
%"class.std::type_info" = type { i32 (...)**, i8* }
%"class.std::allocator.75" = type { i8 }
%"struct.std::__allocated_ptr" = type { %"class.std::allocator.75"*, %"class.std::_Sp_counted_ptr_inplace"* }
%"class.std::_Sp_counted_ptr_inplace" = type { %"class.std::_Sp_counted_base", %"class.std::_Sp_counted_ptr_inplace<std::__future_base::_Task_state<std::_Bind<int (*(MARC::ThreadSafeQueue<int> *))(MARC::ThreadSafeQueue<int> *)>, std::allocator<int>, int ()>, std::allocator<int>, __gnu_cxx::_Lock_policy::_S_atomic>::_Impl" }
%"class.std::_Sp_counted_ptr_inplace<std::__future_base::_Task_state<std::_Bind<int (*(MARC::ThreadSafeQueue<int> *))(MARC::ThreadSafeQueue<int> *)>, std::allocator<int>, int ()>, std::allocator<int>, __gnu_cxx::_Lock_policy::_S_atomic>::_Impl" = type { %"struct.__gnu_cxx::__aligned_buffer.78" }
%"struct.__gnu_cxx::__aligned_buffer.78" = type { %"union.std::aligned_storage<56, 8>::type" }
%"union.std::aligned_storage<56, 8>::type" = type { [56 x i8] }
%"class.__gnu_cxx::new_allocator.76" = type { i8 }
%"class.std::_Mutex_base" = type { i8 }
%"struct.std::_Sp_ebo_helper" = type { i8 }
%"struct.std::_Bind_simple.81" = type { %"class.std::tuple.82" }
%"class.std::tuple.82" = type { %"struct.std::_Tuple_impl.83" }
%"struct.std::_Tuple_impl.83" = type { %"struct.std::_Head_base.84" }
%"struct.std::_Head_base.84" = type { %"class.std::reference_wrapper" }
%"class.std::reference_wrapper" = type { %"class.std::_Bind"* }
%"class.std::function.87" = type { %"class.std::_Function_base", void (%"class.std::unique_ptr.21"*, %"union.std::_Any_data"*)* }
%"struct.std::__future_base::_Task_setter" = type { %"class.std::unique_ptr.60"*, %"struct.std::_Bind_simple.81"* }
%"class.std::weak_ptr" = type { %"class.std::__weak_ptr" }
%"class.std::__weak_ptr" = type { %"class.std::__future_base::_State_baseV2"*, %"class.std::__weak_count" }
%"class.std::__weak_count" = type { %"class.std::_Sp_counted_base"* }
%"struct.std::__atomic_futex_unsigned_base" = type { i8 }
%"struct.std::__future_base::_Result_base::_Deleter" = type { i8 }
%"struct.std::_Tuple_impl.24" = type { i8 }
%"struct.std::_Head_base.25" = type { i8 }
%"struct.std::_Maybe_unary_or_binary_function.88" = type { i8 }
%"struct.std::_Reference_wrapper_base" = type { i8 }
%class.anon.89 = type { { i64, i64 }*, %"class.std::__future_base::_State_baseV2"**, %"class.std::function.87"**, i8** }
%class.anon.90 = type { i8 }
%"class.__cxxabiv1::__forced_unwind" = type { i32 (...)** }
%"struct.std::_Index_tuple.91" = type { i8 }
%"struct.std::__invoke_other" = type { i8 }
%"class.std::tuple.92" = type { i8 }
%"struct.std::_Index_tuple.93" = type { i8 }
%"class.std::_Mu" = type { i8 }
%"class.std::unique_ptr.94" = type { %"class.std::tuple.95" }
%"class.std::tuple.95" = type { %"struct.std::_Tuple_impl.96" }
%"struct.std::_Tuple_impl.96" = type { %"struct.std::_Head_base.101" }
%"struct.std::_Head_base.101" = type { %"struct.std::__future_base::_State_baseV2::_Make_ready"* }
%"struct.std::__future_base::_State_baseV2::_Make_ready" = type { %"struct.std::__at_thread_exit_elt", %"class.std::weak_ptr" }
%"struct.std::__at_thread_exit_elt" = type { %"struct.std::__at_thread_exit_elt"*, void (i8*)* }
%"struct.std::default_delete.99" = type { i8 }
%"struct.std::_Tuple_impl.97" = type { i8 }
%"struct.std::_Head_base.98" = type { i8 }
%"struct.std::__future_base" = type { i8 }
%"struct.std::_Tuple_impl.68" = type { i8 }
%"struct.std::_Head_base.69" = type { i8 }
%"struct.std::error_code" = type { i32, %"class.std::_V2::error_category"* }
%"class.std::_V2::error_category" = type { i32 (...)** }
%"class.std::future_error" = type { %"class.std::logic_error", %"struct.std::error_code" }
%"class.std::logic_error" = type { %"class.std::exception", %"class.std::basic_string" }
%"class.std::exception" = type { i32 (...)** }
%"class.std::basic_string" = type { %"struct.std::basic_string<char, std::char_traits<char>, std::allocator<char> >::_Alloc_hider" }
%"struct.std::basic_string<char, std::char_traits<char>, std::allocator<char> >::_Alloc_hider" = type { i8* }
%"struct.std::__basic_future<int>::_Reset" = type { %"class.std::__basic_future"* }
%"struct.std::chrono::duration" = type { i64 }
%"struct.std::chrono::duration.105" = type { i64 }

$_ZN4MARC15ThreadSafeQueueIiE4pushEi = comdat any

$_ZN4MARC15ThreadSafeQueueIiE7waitPopERi = comdat any

$_ZNSt8functionIFvvEEC2EDn = comdat any

$_ZN4MARC10ThreadPoolC2EjSt8functionIFvvEE = comdat any

$_ZNSt8functionIFvvEED2Ev = comdat any

$_ZN4MARC15ThreadSafeQueueIiEC2Ev = comdat any

$_ZN4MARC10ThreadPool6submitIRFiPNS_15ThreadSafeQueueIiEEEJRS4_EEEDaOT_DpOT0_ = comdat any

$_ZN4MARC10TaskFutureIiE3getEv = comdat any

$_ZN4MARC10TaskFutureIiED2Ev = comdat any

$_ZN4MARC15ThreadSafeQueueIiED2Ev = comdat any

$_ZN4MARC10ThreadPoolD2Ev = comdat any

$_ZNSt6atomicIbEC2Eb = comdat any

$_ZN4MARC15ThreadSafeQueueISt10unique_ptrINS_11IThreadTaskESt14default_deleteIS2_EEEC2Ev = comdat any

$_ZNSt6vectorISt6threadSaIS0_EEC2Ev = comdat any

$_ZN4MARC15ThreadSafeQueueISt8functionIFvvEEEC2Ev = comdat any

$_ZNSt6atomicIbEaSEb = comdat any

$_ZNSt6vectorISt6threadSaIS0_EE12emplace_backIJMN4MARC10ThreadPoolEFvPSt6atomicIbEEPS5_S8_EEEvDpOT_ = comdat any

$_ZN4MARC10ThreadPool6workerEPSt6atomicIbE = comdat any

$_ZN4MARC10ThreadPool7destroyEv = comdat any

$__clang_call_terminate = comdat any

$_ZStneIvJEEbRKSt8functionIFT_DpT0_EEDn = comdat any

$_ZN4MARC15ThreadSafeQueueISt8functionIFvvEEE4pushES3_ = comdat any

$_ZNSt8functionIFvvEEC2ERKS1_ = comdat any

$_ZN4MARC15ThreadSafeQueueISt8functionIFvvEEED2Ev = comdat any

$_ZNSt6vectorISt6threadSaIS0_EED2Ev = comdat any

$_ZN4MARC15ThreadSafeQueueISt10unique_ptrINS_11IThreadTaskESt14default_deleteIS2_EEED2Ev = comdat any

$_ZNSt13__atomic_baseIbEC2Eb = comdat any

$_ZNSt5mutexC2Ev = comdat any

$_ZNSt5dequeISt10unique_ptrIN4MARC11IThreadTaskESt14default_deleteIS2_EESaIS5_EEC2Ev = comdat any

$_ZNSt5queueISt10unique_ptrIN4MARC11IThreadTaskESt14default_deleteIS2_EESt5dequeIS5_SaIS5_EEEC2EOS8_ = comdat any

$_ZNSt5dequeISt10unique_ptrIN4MARC11IThreadTaskESt14default_deleteIS2_EESaIS5_EED2Ev = comdat any

$_ZNSt12__mutex_baseC2Ev = comdat any

$_ZNSt11_Deque_baseISt10unique_ptrIN4MARC11IThreadTaskESt14default_deleteIS2_EESaIS5_EEC2Ev = comdat any

$_ZNSt11_Deque_baseISt10unique_ptrIN4MARC11IThreadTaskESt14default_deleteIS2_EESaIS5_EE11_Deque_implC2Ev = comdat any

$_ZNSt11_Deque_baseISt10unique_ptrIN4MARC11IThreadTaskESt14default_deleteIS2_EESaIS5_EE17_M_initialize_mapEm = comdat any

$_ZNSt11_Deque_baseISt10unique_ptrIN4MARC11IThreadTaskESt14default_deleteIS2_EESaIS5_EE11_Deque_implD2Ev = comdat any

$_ZNSaISt10unique_ptrIN4MARC11IThreadTaskESt14default_deleteIS1_EEEC2Ev = comdat any

$_ZNSt15_Deque_iteratorISt10unique_ptrIN4MARC11IThreadTaskESt14default_deleteIS2_EERS5_PS5_EC2Ev = comdat any

$_ZN9__gnu_cxx13new_allocatorISt10unique_ptrIN4MARC11IThreadTaskESt14default_deleteIS3_EEEC2Ev = comdat any

$_ZSt16__deque_buf_sizem = comdat any

$_ZSt3maxImERKT_S2_S2_ = comdat any

$_ZNSt11_Deque_baseISt10unique_ptrIN4MARC11IThreadTaskESt14default_deleteIS2_EESaIS5_EE15_M_allocate_mapEm = comdat any

$_ZNSt11_Deque_baseISt10unique_ptrIN4MARC11IThreadTaskESt14default_deleteIS2_EESaIS5_EE15_M_create_nodesEPPS5_S9_ = comdat any

$_ZNSt11_Deque_baseISt10unique_ptrIN4MARC11IThreadTaskESt14default_deleteIS2_EESaIS5_EE17_M_deallocate_mapEPPS5_m = comdat any

$_ZNSt15_Deque_iteratorISt10unique_ptrIN4MARC11IThreadTaskESt14default_deleteIS2_EERS5_PS5_E11_M_set_nodeEPS7_ = comdat any

$_ZNKSt11_Deque_baseISt10unique_ptrIN4MARC11IThreadTaskESt14default_deleteIS2_EESaIS5_EE20_M_get_map_allocatorEv = comdat any

$_ZNSt16allocator_traitsISaIPSt10unique_ptrIN4MARC11IThreadTaskESt14default_deleteIS2_EEEE8allocateERS7_m = comdat any

$_ZNSaIPSt10unique_ptrIN4MARC11IThreadTaskESt14default_deleteIS1_EEED2Ev = comdat any

$_ZNKSt11_Deque_baseISt10unique_ptrIN4MARC11IThreadTaskESt14default_deleteIS2_EESaIS5_EE19_M_get_Tp_allocatorEv = comdat any

$_ZNSaIPSt10unique_ptrIN4MARC11IThreadTaskESt14default_deleteIS1_EEEC2IS4_EERKSaIT_E = comdat any

$_ZN9__gnu_cxx13new_allocatorIPSt10unique_ptrIN4MARC11IThreadTaskESt14default_deleteIS3_EEEC2Ev = comdat any

$_ZN9__gnu_cxx13new_allocatorIPSt10unique_ptrIN4MARC11IThreadTaskESt14default_deleteIS3_EEE8allocateEmPKv = comdat any

$_ZNK9__gnu_cxx13new_allocatorIPSt10unique_ptrIN4MARC11IThreadTaskESt14default_deleteIS3_EEE8max_sizeEv = comdat any

$_ZN9__gnu_cxx13new_allocatorIPSt10unique_ptrIN4MARC11IThreadTaskESt14default_deleteIS3_EEED2Ev = comdat any

$_ZNSt11_Deque_baseISt10unique_ptrIN4MARC11IThreadTaskESt14default_deleteIS2_EESaIS5_EE16_M_allocate_nodeEv = comdat any

$_ZNSt11_Deque_baseISt10unique_ptrIN4MARC11IThreadTaskESt14default_deleteIS2_EESaIS5_EE16_M_destroy_nodesEPPS5_S9_ = comdat any

$_ZNSt16allocator_traitsISaISt10unique_ptrIN4MARC11IThreadTaskESt14default_deleteIS2_EEEE8allocateERS6_m = comdat any

$_ZN9__gnu_cxx13new_allocatorISt10unique_ptrIN4MARC11IThreadTaskESt14default_deleteIS3_EEE8allocateEmPKv = comdat any

$_ZNK9__gnu_cxx13new_allocatorISt10unique_ptrIN4MARC11IThreadTaskESt14default_deleteIS3_EEE8max_sizeEv = comdat any

$_ZNSt11_Deque_baseISt10unique_ptrIN4MARC11IThreadTaskESt14default_deleteIS2_EESaIS5_EE18_M_deallocate_nodeEPS5_ = comdat any

$_ZNSt16allocator_traitsISaISt10unique_ptrIN4MARC11IThreadTaskESt14default_deleteIS2_EEEE10deallocateERS6_PS5_m = comdat any

$_ZN9__gnu_cxx13new_allocatorISt10unique_ptrIN4MARC11IThreadTaskESt14default_deleteIS3_EEE10deallocateEPS6_m = comdat any

$_ZNSt16allocator_traitsISaIPSt10unique_ptrIN4MARC11IThreadTaskESt14default_deleteIS2_EEEE10deallocateERS7_PS6_m = comdat any

$_ZN9__gnu_cxx13new_allocatorIPSt10unique_ptrIN4MARC11IThreadTaskESt14default_deleteIS3_EEE10deallocateEPS7_m = comdat any

$_ZNSt15_Deque_iteratorISt10unique_ptrIN4MARC11IThreadTaskESt14default_deleteIS2_EERS5_PS5_E14_S_buffer_sizeEv = comdat any

$_ZNSaISt10unique_ptrIN4MARC11IThreadTaskESt14default_deleteIS1_EEED2Ev = comdat any

$_ZN9__gnu_cxx13new_allocatorISt10unique_ptrIN4MARC11IThreadTaskESt14default_deleteIS3_EEED2Ev = comdat any

$_ZSt4moveIRSt5dequeISt10unique_ptrIN4MARC11IThreadTaskESt14default_deleteIS3_EESaIS6_EEEONSt16remove_referenceIT_E4typeEOSB_ = comdat any

$_ZNSt5dequeISt10unique_ptrIN4MARC11IThreadTaskESt14default_deleteIS2_EESaIS5_EEC2EOS7_ = comdat any

$_ZNSt11_Deque_baseISt10unique_ptrIN4MARC11IThreadTaskESt14default_deleteIS2_EESaIS5_EEC2EOS7_ = comdat any

$_ZSt4moveIRSt11_Deque_baseISt10unique_ptrIN4MARC11IThreadTaskESt14default_deleteIS3_EESaIS6_EEEONSt16remove_referenceIT_E4typeEOSB_ = comdat any

$_ZNSt11_Deque_baseISt10unique_ptrIN4MARC11IThreadTaskESt14default_deleteIS2_EESaIS5_EEC2EOS7_St17integral_constantIbLb1EE = comdat any

$_ZSt4moveIRSaISt10unique_ptrIN4MARC11IThreadTaskESt14default_deleteIS2_EEEEONSt16remove_referenceIT_E4typeEOS9_ = comdat any

$_ZNSt11_Deque_baseISt10unique_ptrIN4MARC11IThreadTaskESt14default_deleteIS2_EESaIS5_EE19_M_get_Tp_allocatorEv = comdat any

$_ZNSt11_Deque_baseISt10unique_ptrIN4MARC11IThreadTaskESt14default_deleteIS2_EESaIS5_EE11_Deque_implC2EOS6_ = comdat any

$_ZNSt11_Deque_baseISt10unique_ptrIN4MARC11IThreadTaskESt14default_deleteIS2_EESaIS5_EE11_Deque_impl12_M_swap_dataERS8_ = comdat any

$_ZNSaISt10unique_ptrIN4MARC11IThreadTaskESt14default_deleteIS1_EEEC2ERKS5_ = comdat any

$_ZN9__gnu_cxx13new_allocatorISt10unique_ptrIN4MARC11IThreadTaskESt14default_deleteIS3_EEEC2ERKS7_ = comdat any

$_ZSt4swapISt15_Deque_iteratorISt10unique_ptrIN4MARC11IThreadTaskESt14default_deleteIS3_EERS6_PS6_EENSt9enable_ifIXsr6__and_ISt21is_move_constructibleIT_ESt18is_move_assignableISC_EEE5valueEvE4typeERSC_SI_ = comdat any

$_ZSt4swapIPPSt10unique_ptrIN4MARC11IThreadTaskESt14default_deleteIS2_EEENSt9enable_ifIXsr6__and_ISt21is_move_constructibleIT_ESt18is_move_assignableISA_EEE5valueEvE4typeERSA_SG_ = comdat any

$_ZSt4swapImENSt9enable_ifIXsr6__and_ISt21is_move_constructibleIT_ESt18is_move_assignableIS2_EEE5valueEvE4typeERS2_S8_ = comdat any

$_ZSt4moveIRSt15_Deque_iteratorISt10unique_ptrIN4MARC11IThreadTaskESt14default_deleteIS3_EERS6_PS6_EEONSt16remove_referenceIT_E4typeEOSC_ = comdat any

$_ZNSt15_Deque_iteratorISt10unique_ptrIN4MARC11IThreadTaskESt14default_deleteIS2_EERS5_PS5_EC2ERKS8_ = comdat any

$_ZSt4moveIRPPSt10unique_ptrIN4MARC11IThreadTaskESt14default_deleteIS2_EEEONSt16remove_referenceIT_E4typeEOSA_ = comdat any

$_ZSt4moveIRmEONSt16remove_referenceIT_E4typeEOS2_ = comdat any

$_ZNSt5dequeISt10unique_ptrIN4MARC11IThreadTaskESt14default_deleteIS2_EESaIS5_EE15_M_destroy_dataESt15_Deque_iteratorIS5_RS5_PS5_ESB_RKS6_ = comdat any

$_ZNSt5dequeISt10unique_ptrIN4MARC11IThreadTaskESt14default_deleteIS2_EESaIS5_EE5beginEv = comdat any

$_ZNSt5dequeISt10unique_ptrIN4MARC11IThreadTaskESt14default_deleteIS2_EESaIS5_EE3endEv = comdat any

$_ZNSt11_Deque_baseISt10unique_ptrIN4MARC11IThreadTaskESt14default_deleteIS2_EESaIS5_EED2Ev = comdat any

$_ZNSt5dequeISt10unique_ptrIN4MARC11IThreadTaskESt14default_deleteIS2_EESaIS5_EE19_M_destroy_data_auxESt15_Deque_iteratorIS5_RS5_PS5_ESB_ = comdat any

$_ZSt8_DestroyIPSt10unique_ptrIN4MARC11IThreadTaskESt14default_deleteIS2_EES5_EvT_S7_RSaIT0_E = comdat any

$_ZNSt5dequeISt10unique_ptrIN4MARC11IThreadTaskESt14default_deleteIS2_EESaIS5_EE14_S_buffer_sizeEv = comdat any

$_ZSt8_DestroyIPSt10unique_ptrIN4MARC11IThreadTaskESt14default_deleteIS2_EEEvT_S7_ = comdat any

$_ZNSt12_Destroy_auxILb0EE9__destroyIPSt10unique_ptrIN4MARC11IThreadTaskESt14default_deleteIS4_EEEEvT_S9_ = comdat any

$_ZSt8_DestroyISt10unique_ptrIN4MARC11IThreadTaskESt14default_deleteIS2_EEEvPT_ = comdat any

$_ZSt11__addressofISt10unique_ptrIN4MARC11IThreadTaskESt14default_deleteIS2_EEEPT_RS6_ = comdat any

$_ZNSt10unique_ptrIN4MARC11IThreadTaskESt14default_deleteIS1_EED2Ev = comdat any

$_ZSt3getILm0EJPN4MARC11IThreadTaskESt14default_deleteIS1_EEERNSt13tuple_elementIXT_ESt5tupleIJDpT0_EEE4typeERS9_ = comdat any

$_ZNSt10unique_ptrIN4MARC11IThreadTaskESt14default_deleteIS1_EE11get_deleterEv = comdat any

$_ZNKSt14default_deleteIN4MARC11IThreadTaskEEclEPS1_ = comdat any

$_ZSt12__get_helperILm0EPN4MARC11IThreadTaskEJSt14default_deleteIS1_EEERT0_RSt11_Tuple_implIXT_EJS5_DpT1_EE = comdat any

$_ZNSt11_Tuple_implILm0EJPN4MARC11IThreadTaskESt14default_deleteIS1_EEE7_M_headERS5_ = comdat any

$_ZNSt10_Head_baseILm0EPN4MARC11IThreadTaskELb0EE7_M_headERS3_ = comdat any

$_ZSt3getILm1EJPN4MARC11IThreadTaskESt14default_deleteIS1_EEERNSt13tuple_elementIXT_ESt5tupleIJDpT0_EEE4typeERS9_ = comdat any

$_ZSt12__get_helperILm1ESt14default_deleteIN4MARC11IThreadTaskEEJEERT0_RSt11_Tuple_implIXT_EJS4_DpT1_EE = comdat any

$_ZNSt11_Tuple_implILm1EJSt14default_deleteIN4MARC11IThreadTaskEEEE7_M_headERS4_ = comdat any

$_ZNSt10_Head_baseILm1ESt14default_deleteIN4MARC11IThreadTaskEELb1EE7_M_headERS4_ = comdat any

$_ZNSt12_Vector_baseISt6threadSaIS0_EEC2Ev = comdat any

$_ZNSt12_Vector_baseISt6threadSaIS0_EE12_Vector_implC2Ev = comdat any

$_ZNSaISt6threadEC2Ev = comdat any

$_ZN9__gnu_cxx13new_allocatorISt6threadEC2Ev = comdat any

$_ZNSt5dequeISt8functionIFvvEESaIS2_EEC2Ev = comdat any

$_ZNSt5queueISt8functionIFvvEESt5dequeIS2_SaIS2_EEEC2EOS5_ = comdat any

$_ZNSt5dequeISt8functionIFvvEESaIS2_EED2Ev = comdat any

$_ZNSt11_Deque_baseISt8functionIFvvEESaIS2_EEC2Ev = comdat any

$_ZNSt11_Deque_baseISt8functionIFvvEESaIS2_EE11_Deque_implC2Ev = comdat any

$_ZNSt11_Deque_baseISt8functionIFvvEESaIS2_EE17_M_initialize_mapEm = comdat any

$_ZNSt11_Deque_baseISt8functionIFvvEESaIS2_EE11_Deque_implD2Ev = comdat any

$_ZNSaISt8functionIFvvEEEC2Ev = comdat any

$_ZNSt15_Deque_iteratorISt8functionIFvvEERS2_PS2_EC2Ev = comdat any

$_ZN9__gnu_cxx13new_allocatorISt8functionIFvvEEEC2Ev = comdat any

$_ZNSt11_Deque_baseISt8functionIFvvEESaIS2_EE15_M_allocate_mapEm = comdat any

$_ZNSt11_Deque_baseISt8functionIFvvEESaIS2_EE15_M_create_nodesEPPS2_S6_ = comdat any

$_ZNSt11_Deque_baseISt8functionIFvvEESaIS2_EE17_M_deallocate_mapEPPS2_m = comdat any

$_ZNSt15_Deque_iteratorISt8functionIFvvEERS2_PS2_E11_M_set_nodeEPS4_ = comdat any

$_ZNKSt11_Deque_baseISt8functionIFvvEESaIS2_EE20_M_get_map_allocatorEv = comdat any

$_ZNSt16allocator_traitsISaIPSt8functionIFvvEEEE8allocateERS4_m = comdat any

$_ZNSaIPSt8functionIFvvEEED2Ev = comdat any

$_ZNKSt11_Deque_baseISt8functionIFvvEESaIS2_EE19_M_get_Tp_allocatorEv = comdat any

$_ZNSaIPSt8functionIFvvEEEC2IS1_EERKSaIT_E = comdat any

$_ZN9__gnu_cxx13new_allocatorIPSt8functionIFvvEEEC2Ev = comdat any

$_ZN9__gnu_cxx13new_allocatorIPSt8functionIFvvEEE8allocateEmPKv = comdat any

$_ZNK9__gnu_cxx13new_allocatorIPSt8functionIFvvEEE8max_sizeEv = comdat any

$_ZN9__gnu_cxx13new_allocatorIPSt8functionIFvvEEED2Ev = comdat any

$_ZNSt11_Deque_baseISt8functionIFvvEESaIS2_EE16_M_allocate_nodeEv = comdat any

$_ZNSt11_Deque_baseISt8functionIFvvEESaIS2_EE16_M_destroy_nodesEPPS2_S6_ = comdat any

$_ZNSt16allocator_traitsISaISt8functionIFvvEEEE8allocateERS3_m = comdat any

$_ZN9__gnu_cxx13new_allocatorISt8functionIFvvEEE8allocateEmPKv = comdat any

$_ZNK9__gnu_cxx13new_allocatorISt8functionIFvvEEE8max_sizeEv = comdat any

$_ZNSt11_Deque_baseISt8functionIFvvEESaIS2_EE18_M_deallocate_nodeEPS2_ = comdat any

$_ZNSt16allocator_traitsISaISt8functionIFvvEEEE10deallocateERS3_PS2_m = comdat any

$_ZN9__gnu_cxx13new_allocatorISt8functionIFvvEEE10deallocateEPS3_m = comdat any

$_ZNSt16allocator_traitsISaIPSt8functionIFvvEEEE10deallocateERS4_PS3_m = comdat any

$_ZN9__gnu_cxx13new_allocatorIPSt8functionIFvvEEE10deallocateEPS4_m = comdat any

$_ZNSt15_Deque_iteratorISt8functionIFvvEERS2_PS2_E14_S_buffer_sizeEv = comdat any

$_ZNSaISt8functionIFvvEEED2Ev = comdat any

$_ZN9__gnu_cxx13new_allocatorISt8functionIFvvEEED2Ev = comdat any

$_ZSt4moveIRSt5dequeISt8functionIFvvEESaIS3_EEEONSt16remove_referenceIT_E4typeEOS8_ = comdat any

$_ZNSt5dequeISt8functionIFvvEESaIS2_EEC2EOS4_ = comdat any

$_ZNSt11_Deque_baseISt8functionIFvvEESaIS2_EEC2EOS4_ = comdat any

$_ZSt4moveIRSt11_Deque_baseISt8functionIFvvEESaIS3_EEEONSt16remove_referenceIT_E4typeEOS8_ = comdat any

$_ZNSt11_Deque_baseISt8functionIFvvEESaIS2_EEC2EOS4_St17integral_constantIbLb1EE = comdat any

$_ZSt4moveIRSaISt8functionIFvvEEEEONSt16remove_referenceIT_E4typeEOS6_ = comdat any

$_ZNSt11_Deque_baseISt8functionIFvvEESaIS2_EE19_M_get_Tp_allocatorEv = comdat any

$_ZNSt11_Deque_baseISt8functionIFvvEESaIS2_EE11_Deque_implC2EOS3_ = comdat any

$_ZNSt11_Deque_baseISt8functionIFvvEESaIS2_EE11_Deque_impl12_M_swap_dataERS5_ = comdat any

$_ZNSaISt8functionIFvvEEEC2ERKS2_ = comdat any

$_ZN9__gnu_cxx13new_allocatorISt8functionIFvvEEEC2ERKS4_ = comdat any

$_ZSt4swapISt15_Deque_iteratorISt8functionIFvvEERS3_PS3_EENSt9enable_ifIXsr6__and_ISt21is_move_constructibleIT_ESt18is_move_assignableIS9_EEE5valueEvE4typeERS9_SF_ = comdat any

$_ZSt4swapIPPSt8functionIFvvEEENSt9enable_ifIXsr6__and_ISt21is_move_constructibleIT_ESt18is_move_assignableIS7_EEE5valueEvE4typeERS7_SD_ = comdat any

$_ZSt4moveIRSt15_Deque_iteratorISt8functionIFvvEERS3_PS3_EEONSt16remove_referenceIT_E4typeEOS9_ = comdat any

$_ZNSt15_Deque_iteratorISt8functionIFvvEERS2_PS2_EC2ERKS5_ = comdat any

$_ZSt4moveIRPPSt8functionIFvvEEEONSt16remove_referenceIT_E4typeEOS7_ = comdat any

$_ZNSt5dequeISt8functionIFvvEESaIS2_EE15_M_destroy_dataESt15_Deque_iteratorIS2_RS2_PS2_ES8_RKS3_ = comdat any

$_ZNSt5dequeISt8functionIFvvEESaIS2_EE5beginEv = comdat any

$_ZNSt5dequeISt8functionIFvvEESaIS2_EE3endEv = comdat any

$_ZNSt11_Deque_baseISt8functionIFvvEESaIS2_EED2Ev = comdat any

$_ZNSt5dequeISt8functionIFvvEESaIS2_EE19_M_destroy_data_auxESt15_Deque_iteratorIS2_RS2_PS2_ES8_ = comdat any

$_ZSt8_DestroyIPSt8functionIFvvEES2_EvT_S4_RSaIT0_E = comdat any

$_ZNSt5dequeISt8functionIFvvEESaIS2_EE14_S_buffer_sizeEv = comdat any

$_ZSt8_DestroyIPSt8functionIFvvEEEvT_S4_ = comdat any

$_ZNSt12_Destroy_auxILb0EE9__destroyIPSt8functionIFvvEEEEvT_S6_ = comdat any

$_ZSt8_DestroyISt8functionIFvvEEEvPT_ = comdat any

$_ZSt11__addressofISt8functionIFvvEEEPT_RS3_ = comdat any

$_ZNSt13__atomic_baseIbEaSEb = comdat any

$_ZStanSt12memory_orderSt23__memory_order_modifier = comdat any

$_ZNSt16allocator_traitsISaISt6threadEE9constructIS0_JMN4MARC10ThreadPoolEFvPSt6atomicIbEEPS5_S8_EEEvRS1_PT_DpOT0_ = comdat any

$_ZSt7forwardIMN4MARC10ThreadPoolEFvPSt6atomicIbEEEOT_RNSt16remove_referenceIS7_E4typeE = comdat any

$_ZSt7forwardIPN4MARC10ThreadPoolEEOT_RNSt16remove_referenceIS3_E4typeE = comdat any

$_ZSt7forwardIPSt6atomicIbEEOT_RNSt16remove_referenceIS3_E4typeE = comdat any

$_ZNSt6vectorISt6threadSaIS0_EE19_M_emplace_back_auxIJMN4MARC10ThreadPoolEFvPSt6atomicIbEEPS5_S8_EEEvDpOT_ = comdat any

$_ZN9__gnu_cxx13new_allocatorISt6threadE9constructIS1_JMN4MARC10ThreadPoolEFvPSt6atomicIbEEPS5_S8_EEEvPT_DpOT0_ = comdat any

$_ZNSt6threadC2IMN4MARC10ThreadPoolEFvPSt6atomicIbEEJPS2_S5_EEEOT_DpOT0_ = comdat any

$_ZNSt6thread2idC2Ev = comdat any

$_ZNSt6thread13_S_make_stateISt12_Bind_simpleIFSt7_Mem_fnIMN4MARC10ThreadPoolEFvPSt6atomicIbEEEPS4_S7_EEEESt10unique_ptrINS_6_StateESt14default_deleteISF_EEOT_ = comdat any

$_ZSt13__bind_simpleIMN4MARC10ThreadPoolEFvPSt6atomicIbEEJPS1_S4_EENSt19_Bind_simple_helperIT_JDpT0_EE6__typeEOS9_DpOSA_ = comdat any

$_ZNSt10unique_ptrINSt6thread6_StateESt14default_deleteIS1_EED2Ev = comdat any

$_ZSt7forwardISt12_Bind_simpleIFSt7_Mem_fnIMN4MARC10ThreadPoolEFvPSt6atomicIbEEEPS3_S6_EEEOT_RNSt16remove_referenceISD_E4typeE = comdat any

$_ZNSt6thread11_State_implISt12_Bind_simpleIFSt7_Mem_fnIMN4MARC10ThreadPoolEFvPSt6atomicIbEEEPS4_S7_EEEC2EOSD_ = comdat any

$_ZNSt10unique_ptrINSt6thread6_StateESt14default_deleteIS1_EEC2EPS1_ = comdat any

$_ZNSt6thread6_StateC2Ev = comdat any

$_ZNSt12_Bind_simpleIFSt7_Mem_fnIMN4MARC10ThreadPoolEFvPSt6atomicIbEEEPS2_S5_EEC2EOSB_ = comdat any

$_ZNSt6thread11_State_implISt12_Bind_simpleIFSt7_Mem_fnIMN4MARC10ThreadPoolEFvPSt6atomicIbEEEPS4_S7_EEED2Ev = comdat any

$_ZNSt6thread11_State_implISt12_Bind_simpleIFSt7_Mem_fnIMN4MARC10ThreadPoolEFvPSt6atomicIbEEEPS4_S7_EEED0Ev = comdat any

$_ZNSt6thread11_State_implISt12_Bind_simpleIFSt7_Mem_fnIMN4MARC10ThreadPoolEFvPSt6atomicIbEEEPS4_S7_EEE6_M_runEv = comdat any

$_ZNSt5tupleIJSt7_Mem_fnIMN4MARC10ThreadPoolEFvPSt6atomicIbEEEPS2_S5_EEC2EOSA_ = comdat any

$_ZNSt11_Tuple_implILm0EJSt7_Mem_fnIMN4MARC10ThreadPoolEFvPSt6atomicIbEEEPS2_S5_EEC2EOSA_ = comdat any

$_ZSt4moveIRSt11_Tuple_implILm1EJPN4MARC10ThreadPoolEPSt6atomicIbEEEEONSt16remove_referenceIT_E4typeEOSA_ = comdat any

$_ZNSt11_Tuple_implILm0EJSt7_Mem_fnIMN4MARC10ThreadPoolEFvPSt6atomicIbEEEPS2_S5_EE7_M_tailERSA_ = comdat any

$_ZNSt11_Tuple_implILm1EJPN4MARC10ThreadPoolEPSt6atomicIbEEEC2EOS6_ = comdat any

$_ZSt7forwardISt7_Mem_fnIMN4MARC10ThreadPoolEFvPSt6atomicIbEEEEOT_RNSt16remove_referenceIS9_E4typeE = comdat any

$_ZNSt11_Tuple_implILm0EJSt7_Mem_fnIMN4MARC10ThreadPoolEFvPSt6atomicIbEEEPS2_S5_EE7_M_headERSA_ = comdat any

$_ZNSt10_Head_baseILm0ESt7_Mem_fnIMN4MARC10ThreadPoolEFvPSt6atomicIbEEELb0EEC2IS8_EEOT_ = comdat any

$_ZSt4moveIRSt11_Tuple_implILm2EJPSt6atomicIbEEEEONSt16remove_referenceIT_E4typeEOS7_ = comdat any

$_ZNSt11_Tuple_implILm1EJPN4MARC10ThreadPoolEPSt6atomicIbEEE7_M_tailERS6_ = comdat any

$_ZNSt11_Tuple_implILm2EJPSt6atomicIbEEEC2EOS3_ = comdat any

$_ZNSt11_Tuple_implILm1EJPN4MARC10ThreadPoolEPSt6atomicIbEEE7_M_headERS6_ = comdat any

$_ZNSt10_Head_baseILm1EPN4MARC10ThreadPoolELb0EEC2IS2_EEOT_ = comdat any

$_ZNSt11_Tuple_implILm2EJPSt6atomicIbEEE7_M_headERS3_ = comdat any

$_ZNSt10_Head_baseILm2EPSt6atomicIbELb0EEC2IS2_EEOT_ = comdat any

$_ZNSt10_Head_baseILm2EPSt6atomicIbELb0EE7_M_headERS3_ = comdat any

$_ZNSt10_Head_baseILm1EPN4MARC10ThreadPoolELb0EE7_M_headERS3_ = comdat any

$_ZNSt10_Head_baseILm0ESt7_Mem_fnIMN4MARC10ThreadPoolEFvPSt6atomicIbEEELb0EE7_M_headERS9_ = comdat any

$_ZNSt12_Bind_simpleIFSt7_Mem_fnIMN4MARC10ThreadPoolEFvPSt6atomicIbEEEPS2_S5_EEclEv = comdat any

$_ZNSt12_Bind_simpleIFSt7_Mem_fnIMN4MARC10ThreadPoolEFvPSt6atomicIbEEEPS2_S5_EE9_M_invokeIJLm0ELm1EEEEvSt12_Index_tupleIJXspT_EEE = comdat any

$_ZSt3getILm0EJSt7_Mem_fnIMN4MARC10ThreadPoolEFvPSt6atomicIbEEEPS2_S5_EERNSt13tuple_elementIXT_ESt5tupleIJDpT0_EEE4typeERSE_ = comdat any

$_ZNKSt12_Mem_fn_baseIMN4MARC10ThreadPoolEFvPSt6atomicIbEELb1EEclIJPS1_S4_EEEDTclsr3stdE8__invokedtdefpT6_M_pmfspclsr3stdE7forwardIT_Efp_EEEDpOSA_ = comdat any

$_ZSt3getILm1EJSt7_Mem_fnIMN4MARC10ThreadPoolEFvPSt6atomicIbEEEPS2_S5_EERNSt13tuple_elementIXT_ESt5tupleIJDpT0_EEE4typeERSE_ = comdat any

$_ZSt3getILm2EJSt7_Mem_fnIMN4MARC10ThreadPoolEFvPSt6atomicIbEEEPS2_S5_EERNSt13tuple_elementIXT_ESt5tupleIJDpT0_EEE4typeERSE_ = comdat any

$_ZSt12__get_helperILm0ESt7_Mem_fnIMN4MARC10ThreadPoolEFvPSt6atomicIbEEEJPS2_S5_EERT0_RSt11_Tuple_implIXT_EJSA_DpT1_EE = comdat any

$_ZSt8__invokeIRKMN4MARC10ThreadPoolEFvPSt6atomicIbEEJPS1_S4_EENSt9result_ofIFOT_DpOT0_EE4typeESC_SF_ = comdat any

$_ZSt13__invoke_implIvRKMN4MARC10ThreadPoolEFvPSt6atomicIbEEPS1_JS4_EET_St21__invoke_memfun_derefOT0_OT1_DpOT2_ = comdat any

$_ZSt7forwardIRKMN4MARC10ThreadPoolEFvPSt6atomicIbEEEOT_RNSt16remove_referenceIS9_E4typeE = comdat any

$_ZSt12__get_helperILm1EPN4MARC10ThreadPoolEJPSt6atomicIbEEERT0_RSt11_Tuple_implIXT_EJS6_DpT1_EE = comdat any

$_ZSt12__get_helperILm2EPSt6atomicIbEJEERT0_RSt11_Tuple_implIXT_EJS3_DpT1_EE = comdat any

$_ZNSt5tupleIJPNSt6thread6_StateESt14default_deleteIS1_EEEC2IS2_S4_Lb1EEEv = comdat any

$_ZSt3getILm0EJPNSt6thread6_StateESt14default_deleteIS1_EEERNSt13tuple_elementIXT_ESt5tupleIJDpT0_EEE4typeERS9_ = comdat any

$_ZNSt11_Tuple_implILm0EJPNSt6thread6_StateESt14default_deleteIS1_EEEC2Ev = comdat any

$_ZNSt11_Tuple_implILm1EJSt14default_deleteINSt6thread6_StateEEEEC2Ev = comdat any

$_ZNSt10_Head_baseILm0EPNSt6thread6_StateELb0EEC2Ev = comdat any

$_ZNSt10_Head_baseILm1ESt14default_deleteINSt6thread6_StateEELb1EEC2Ev = comdat any

$_ZSt12__get_helperILm0EPNSt6thread6_StateEJSt14default_deleteIS1_EEERT0_RSt11_Tuple_implIXT_EJS5_DpT1_EE = comdat any

$_ZNSt11_Tuple_implILm0EJPNSt6thread6_StateESt14default_deleteIS1_EEE7_M_headERS5_ = comdat any

$_ZNSt10_Head_baseILm0EPNSt6thread6_StateELb0EE7_M_headERS3_ = comdat any

$_ZNSt26_Maybe_wrap_member_pointerIMN4MARC10ThreadPoolEFvPSt6atomicIbEEE9__do_wrapES6_ = comdat any

$_ZNSt12_Bind_simpleIFSt7_Mem_fnIMN4MARC10ThreadPoolEFvPSt6atomicIbEEEPS2_S5_EEC2IS8_JS9_S5_EEEOT_DpOT0_ = comdat any

$_ZNSt7_Mem_fnIMN4MARC10ThreadPoolEFvPSt6atomicIbEEECI2St12_Mem_fn_baseIS6_Lb1EEES6_ = comdat any

$_ZNSt12_Mem_fn_baseIMN4MARC10ThreadPoolEFvPSt6atomicIbEELb1EEC2ES6_ = comdat any

$_ZNSt5tupleIJSt7_Mem_fnIMN4MARC10ThreadPoolEFvPSt6atomicIbEEEPS2_S5_EEC2IJS8_S9_S5_ELb1EEEDpOT_ = comdat any

$_ZNSt11_Tuple_implILm0EJSt7_Mem_fnIMN4MARC10ThreadPoolEFvPSt6atomicIbEEEPS2_S5_EEC2IS8_JS9_S5_EvEEOT_DpOT0_ = comdat any

$_ZNSt11_Tuple_implILm1EJPN4MARC10ThreadPoolEPSt6atomicIbEEEC2IS2_JS5_EvEEOT_DpOT0_ = comdat any

$_ZNSt11_Tuple_implILm2EJPSt6atomicIbEEEC2IS2_EEOT_ = comdat any

$_ZNSt10unique_ptrINSt6thread6_StateESt14default_deleteIS1_EE11get_deleterEv = comdat any

$_ZNKSt14default_deleteINSt6thread6_StateEEclEPS1_ = comdat any

$_ZSt3getILm1EJPNSt6thread6_StateESt14default_deleteIS1_EEERNSt13tuple_elementIXT_ESt5tupleIJDpT0_EEE4typeERS9_ = comdat any

$_ZSt12__get_helperILm1ESt14default_deleteINSt6thread6_StateEEJEERT0_RSt11_Tuple_implIXT_EJS4_DpT1_EE = comdat any

$_ZNSt11_Tuple_implILm1EJSt14default_deleteINSt6thread6_StateEEEE7_M_headERS4_ = comdat any

$_ZNSt10_Head_baseILm1ESt14default_deleteINSt6thread6_StateEELb1EE7_M_headERS4_ = comdat any

$_ZNKSt6vectorISt6threadSaIS0_EE12_M_check_lenEmPKc = comdat any

$_ZNSt12_Vector_baseISt6threadSaIS0_EE11_M_allocateEm = comdat any

$_ZNKSt6vectorISt6threadSaIS0_EE4sizeEv = comdat any

$_ZSt34__uninitialized_move_if_noexcept_aIPSt6threadS1_SaIS0_EET0_T_S4_S3_RT1_ = comdat any

$_ZNSt12_Vector_baseISt6threadSaIS0_EE19_M_get_Tp_allocatorEv = comdat any

$_ZNSt16allocator_traitsISaISt6threadEE7destroyIS0_EEvRS1_PT_ = comdat any

$_ZSt8_DestroyIPSt6threadS0_EvT_S2_RSaIT0_E = comdat any

$_ZNSt12_Vector_baseISt6threadSaIS0_EE13_M_deallocateEPS0_m = comdat any

$_ZNKSt6vectorISt6threadSaIS0_EE8max_sizeEv = comdat any

$_ZNSt16allocator_traitsISaISt6threadEE8max_sizeERKS1_ = comdat any

$_ZNKSt12_Vector_baseISt6threadSaIS0_EE19_M_get_Tp_allocatorEv = comdat any

$_ZNK9__gnu_cxx13new_allocatorISt6threadE8max_sizeEv = comdat any

$_ZNSt16allocator_traitsISaISt6threadEE8allocateERS1_m = comdat any

$_ZN9__gnu_cxx13new_allocatorISt6threadE8allocateEmPKv = comdat any

$_ZSt22__uninitialized_copy_aISt13move_iteratorIPSt6threadES2_S1_ET0_T_S5_S4_RSaIT1_E = comdat any

$_ZSt32__make_move_if_noexcept_iteratorISt6threadSt13move_iteratorIPS0_EET0_PT_ = comdat any

$_ZSt18uninitialized_copyISt13move_iteratorIPSt6threadES2_ET0_T_S5_S4_ = comdat any

$_ZNSt20__uninitialized_copyILb0EE13__uninit_copyISt13move_iteratorIPSt6threadES4_EET0_T_S7_S6_ = comdat any

$_ZStneIPSt6threadEbRKSt13move_iteratorIT_ES6_ = comdat any

$_ZSt10_ConstructISt6threadJS0_EEvPT_DpOT0_ = comdat any

$_ZSt11__addressofISt6threadEPT_RS1_ = comdat any

$_ZNKSt13move_iteratorIPSt6threadEdeEv = comdat any

$_ZNSt13move_iteratorIPSt6threadEppEv = comdat any

$_ZSt8_DestroyIPSt6threadEvT_S2_ = comdat any

$_ZSteqIPSt6threadEbRKSt13move_iteratorIT_ES6_ = comdat any

$_ZNKSt13move_iteratorIPSt6threadE4baseEv = comdat any

$_ZSt7forwardISt6threadEOT_RNSt16remove_referenceIS1_E4typeE = comdat any

$_ZNSt6threadC2EOS_ = comdat any

$_ZNSt6thread4swapERS_ = comdat any

$_ZSt4swapINSt6thread2idEENSt9enable_ifIXsr6__and_ISt21is_move_constructibleIT_ESt18is_move_assignableIS4_EEE5valueEvE4typeERS4_SA_ = comdat any

$_ZSt4moveIRNSt6thread2idEEONSt16remove_referenceIT_E4typeEOS4_ = comdat any

$_ZNSt12_Destroy_auxILb0EE9__destroyIPSt6threadEEvT_S4_ = comdat any

$_ZSt8_DestroyISt6threadEvPT_ = comdat any

$_ZNSt6threadD2Ev = comdat any

$_ZNKSt6thread8joinableEv = comdat any

$_ZSteqNSt6thread2idES0_ = comdat any

$_ZNSt13move_iteratorIPSt6threadEC2ES1_ = comdat any

$_ZN9__gnu_cxx13new_allocatorISt6threadE7destroyIS1_EEvPT_ = comdat any

$_ZNSt16allocator_traitsISaISt6threadEE10deallocateERS1_PS0_m = comdat any

$_ZN9__gnu_cxx13new_allocatorISt6threadE10deallocateEPS1_m = comdat any

$_ZNKSt6atomicIbEcvbEv = comdat any

$_ZNSt10unique_ptrIN4MARC11IThreadTaskESt14default_deleteIS1_EEC2EDn = comdat any

$_ZN4MARC15ThreadSafeQueueISt10unique_ptrINS_11IThreadTaskESt14default_deleteIS2_EEE7waitPopERS5_ = comdat any

$_ZNKSt10unique_ptrIN4MARC11IThreadTaskESt14default_deleteIS1_EEptEv = comdat any

$_ZNSt10unique_ptrIN4MARC11IThreadTaskESt14default_deleteIS1_EEC2Ev = comdat any

$_ZNSt5tupleIJPN4MARC11IThreadTaskESt14default_deleteIS1_EEEC2IS2_S4_Lb1EEEv = comdat any

$_ZNSt11_Tuple_implILm0EJPN4MARC11IThreadTaskESt14default_deleteIS1_EEEC2Ev = comdat any

$_ZNSt11_Tuple_implILm1EJSt14default_deleteIN4MARC11IThreadTaskEEEEC2Ev = comdat any

$_ZNSt10_Head_baseILm0EPN4MARC11IThreadTaskELb0EEC2Ev = comdat any

$_ZNSt10_Head_baseILm1ESt14default_deleteIN4MARC11IThreadTaskEELb1EEC2Ev = comdat any

$_ZNSt11unique_lockISt5mutexEC2ERS0_ = comdat any

$_ZNKSt5queueISt10unique_ptrIN4MARC11IThreadTaskESt14default_deleteIS2_EESt5dequeIS5_SaIS5_EEE5emptyEv = comdat any

$_ZNSt18condition_variable4waitIZN4MARC15ThreadSafeQueueISt10unique_ptrINS1_11IThreadTaskESt14default_deleteIS4_EEE7waitPopERS7_EUlvE_EEvRSt11unique_lockISt5mutexET_ = comdat any

$_ZN4MARC15ThreadSafeQueueISt10unique_ptrINS_11IThreadTaskESt14default_deleteIS2_EEE12internal_popERS5_ = comdat any

$_ZNSt11unique_lockISt5mutexED2Ev = comdat any

$_ZSt11__addressofISt5mutexEPT_RS1_ = comdat any

$_ZNSt11unique_lockISt5mutexE4lockEv = comdat any

$_ZNSt5mutex4lockEv = comdat any

$_ZNKSt5dequeISt10unique_ptrIN4MARC11IThreadTaskESt14default_deleteIS2_EESaIS5_EE5emptyEv = comdat any

$_ZSteqISt10unique_ptrIN4MARC11IThreadTaskESt14default_deleteIS2_EERS5_PS5_EbRKSt15_Deque_iteratorIT_T0_T1_ESE_ = comdat any

$_ZZN4MARC15ThreadSafeQueueISt10unique_ptrINS_11IThreadTaskESt14default_deleteIS2_EEE7waitPopERS5_ENKUlvE_clEv = comdat any

$_ZSt4moveIRSt10unique_ptrIN4MARC11IThreadTaskESt14default_deleteIS2_EEEONSt16remove_referenceIT_E4typeEOS8_ = comdat any

$_ZNSt5queueISt10unique_ptrIN4MARC11IThreadTaskESt14default_deleteIS2_EESt5dequeIS5_SaIS5_EEE5frontEv = comdat any

$_ZNSt10unique_ptrIN4MARC11IThreadTaskESt14default_deleteIS1_EEaSEOS4_ = comdat any

$_ZNSt5queueISt10unique_ptrIN4MARC11IThreadTaskESt14default_deleteIS2_EESt5dequeIS5_SaIS5_EEE3popEv = comdat any

$_ZNSt5dequeISt10unique_ptrIN4MARC11IThreadTaskESt14default_deleteIS2_EESaIS5_EE5frontEv = comdat any

$_ZNKSt15_Deque_iteratorISt10unique_ptrIN4MARC11IThreadTaskESt14default_deleteIS2_EERS5_PS5_EdeEv = comdat any

$_ZNSt10unique_ptrIN4MARC11IThreadTaskESt14default_deleteIS1_EE5resetEPS1_ = comdat any

$_ZNSt10unique_ptrIN4MARC11IThreadTaskESt14default_deleteIS1_EE7releaseEv = comdat any

$_ZSt7forwardISt14default_deleteIN4MARC11IThreadTaskEEEOT_RNSt16remove_referenceIS4_E4typeE = comdat any

$_ZSt4swapIPN4MARC11IThreadTaskEENSt9enable_ifIXsr6__and_ISt21is_move_constructibleIT_ESt18is_move_assignableIS5_EEE5valueEvE4typeERS5_SB_ = comdat any

$_ZSt4moveIRPN4MARC11IThreadTaskEEONSt16remove_referenceIT_E4typeEOS5_ = comdat any

$_ZNKSt10unique_ptrIN4MARC11IThreadTaskESt14default_deleteIS1_EE3getEv = comdat any

$_ZSt3getILm0EJPN4MARC11IThreadTaskESt14default_deleteIS1_EEERKNSt13tuple_elementIXT_ESt5tupleIJDpT0_EEE4typeERKS9_ = comdat any

$_ZSt12__get_helperILm0EPN4MARC11IThreadTaskEJSt14default_deleteIS1_EEERKT0_RKSt11_Tuple_implIXT_EJS5_DpT1_EE = comdat any

$_ZNSt11_Tuple_implILm0EJPN4MARC11IThreadTaskESt14default_deleteIS1_EEE7_M_headERKS5_ = comdat any

$_ZNSt10_Head_baseILm0EPN4MARC11IThreadTaskELb0EE7_M_headERKS3_ = comdat any

$_ZNSt5dequeISt10unique_ptrIN4MARC11IThreadTaskESt14default_deleteIS2_EESaIS5_EE9pop_frontEv = comdat any

$_ZNSt16allocator_traitsISaISt10unique_ptrIN4MARC11IThreadTaskESt14default_deleteIS2_EEEE7destroyIS5_EEvRS6_PT_ = comdat any

$_ZNSt5dequeISt10unique_ptrIN4MARC11IThreadTaskESt14default_deleteIS2_EESaIS5_EE16_M_pop_front_auxEv = comdat any

$_ZN9__gnu_cxx13new_allocatorISt10unique_ptrIN4MARC11IThreadTaskESt14default_deleteIS3_EEE7destroyIS6_EEvPT_ = comdat any

$_ZNSt11unique_lockISt5mutexE6unlockEv = comdat any

$_ZNSt5mutex6unlockEv = comdat any

$_ZNK4MARC15ThreadSafeQueueISt8functionIFvvEEE4sizeEv = comdat any

$_ZNSt8functionIFvvEEC2Ev = comdat any

$_ZN4MARC15ThreadSafeQueueISt8functionIFvvEEE7waitPopERS3_ = comdat any

$_ZNKSt8functionIFvvEEclEv = comdat any

$_ZN4MARC15ThreadSafeQueueISt10unique_ptrINS_11IThreadTaskESt14default_deleteIS2_EEE10invalidateEv = comdat any

$_ZNSt6vectorISt6threadSaIS0_EE5beginEv = comdat any

$_ZNSt6vectorISt6threadSaIS0_EE3endEv = comdat any

$_ZN9__gnu_cxxneIPSt6threadSt6vectorIS1_SaIS1_EEEEbRKNS_17__normal_iteratorIT_T0_EESB_ = comdat any

$_ZNK9__gnu_cxx17__normal_iteratorIPSt6threadSt6vectorIS1_SaIS1_EEEdeEv = comdat any

$_ZN9__gnu_cxx17__normal_iteratorIPSt6threadSt6vectorIS1_SaIS1_EEEppEv = comdat any

$_ZNSt10lock_guardISt5mutexEC2ERS0_ = comdat any

$_ZNKSt5queueISt8functionIFvvEESt5dequeIS2_SaIS2_EEE4sizeEv = comdat any

$_ZNSt10lock_guardISt5mutexED2Ev = comdat any

$_ZNKSt5dequeISt8functionIFvvEESaIS2_EE4sizeEv = comdat any

$_ZStmiISt8functionIFvvEERS2_PS2_ENSt15_Deque_iteratorIT_T0_T1_E15difference_typeERKS9_SC_ = comdat any

$_ZNSt14_Function_baseC2Ev = comdat any

$_ZNKSt5queueISt8functionIFvvEESt5dequeIS2_SaIS2_EEE5emptyEv = comdat any

$_ZNSt18condition_variable4waitIZN4MARC15ThreadSafeQueueISt8functionIFvvEEE7waitPopERS5_EUlvE_EEvRSt11unique_lockISt5mutexET_ = comdat any

$_ZN4MARC15ThreadSafeQueueISt8functionIFvvEEE12internal_popERS3_ = comdat any

$_ZNKSt5dequeISt8functionIFvvEESaIS2_EE5emptyEv = comdat any

$_ZSteqISt8functionIFvvEERS2_PS2_EbRKSt15_Deque_iteratorIT_T0_T1_ESB_ = comdat any

$_ZZN4MARC15ThreadSafeQueueISt8functionIFvvEEE7waitPopERS3_ENKUlvE_clEv = comdat any

$_ZSt4moveIRSt8functionIFvvEEEONSt16remove_referenceIT_E4typeEOS5_ = comdat any

$_ZNSt5queueISt8functionIFvvEESt5dequeIS2_SaIS2_EEE5frontEv = comdat any

$_ZNSt8functionIFvvEEaSEOS1_ = comdat any

$_ZNSt5queueISt8functionIFvvEESt5dequeIS2_SaIS2_EEE3popEv = comdat any

$_ZNSt5dequeISt8functionIFvvEESaIS2_EE5frontEv = comdat any

$_ZNKSt15_Deque_iteratorISt8functionIFvvEERS2_PS2_EdeEv = comdat any

$_ZNSt8functionIFvvEEC2EOS1_ = comdat any

$_ZNSt8functionIFvvEE4swapERS1_ = comdat any

$_ZSt4swapISt9_Any_dataENSt9enable_ifIXsr6__and_ISt21is_move_constructibleIT_ESt18is_move_assignableIS3_EEE5valueEvE4typeERS3_S9_ = comdat any

$_ZSt4swapIPFbRSt9_Any_dataRKS0_St18_Manager_operationEENSt9enable_ifIXsr6__and_ISt21is_move_constructibleIT_ESt18is_move_assignableIS9_EEE5valueEvE4typeERS9_SF_ = comdat any

$_ZSt4swapIPFvRKSt9_Any_dataEENSt9enable_ifIXsr6__and_ISt21is_move_constructibleIT_ESt18is_move_assignableIS7_EEE5valueEvE4typeERS7_SD_ = comdat any

$_ZSt4moveIRSt9_Any_dataEONSt16remove_referenceIT_E4typeEOS3_ = comdat any

$_ZSt4moveIRPFbRSt9_Any_dataRKS0_St18_Manager_operationEEONSt16remove_referenceIT_E4typeEOS9_ = comdat any

$_ZSt4moveIRPFvRKSt9_Any_dataEEONSt16remove_referenceIT_E4typeEOS7_ = comdat any

$_ZNSt5dequeISt8functionIFvvEESaIS2_EE9pop_frontEv = comdat any

$_ZNSt16allocator_traitsISaISt8functionIFvvEEEE7destroyIS2_EEvRS3_PT_ = comdat any

$_ZNSt5dequeISt8functionIFvvEESaIS2_EE16_M_pop_front_auxEv = comdat any

$_ZN9__gnu_cxx13new_allocatorISt8functionIFvvEEE7destroyIS3_EEvPT_ = comdat any

$_ZNKSt14_Function_base8_M_emptyEv = comdat any

$_ZN9__gnu_cxx17__normal_iteratorIPSt6threadSt6vectorIS1_SaIS1_EEEC2ERKS2_ = comdat any

$_ZNK9__gnu_cxx17__normal_iteratorIPSt6threadSt6vectorIS1_SaIS1_EEE4baseEv = comdat any

$_ZNKSt8functionIFvvEEcvbEv = comdat any

$_ZN4MARC15ThreadSafeQueueISt8functionIFvvEEE13internal_pushERS3_ = comdat any

$_ZNSt5queueISt8functionIFvvEESt5dequeIS2_SaIS2_EEE4pushEOS2_ = comdat any

$_ZNSt5dequeISt8functionIFvvEESaIS2_EE9push_backEOS2_ = comdat any

$_ZNSt5dequeISt8functionIFvvEESaIS2_EE12emplace_backIJS2_EEEvDpOT_ = comdat any

$_ZNSt16allocator_traitsISaISt8functionIFvvEEEE9constructIS2_JS2_EEEvRS3_PT_DpOT0_ = comdat any

$_ZSt7forwardISt8functionIFvvEEEOT_RNSt16remove_referenceIS3_E4typeE = comdat any

$_ZNSt5dequeISt8functionIFvvEESaIS2_EE16_M_push_back_auxIJS2_EEEvDpOT_ = comdat any

$_ZN9__gnu_cxx13new_allocatorISt8functionIFvvEEE9constructIS3_JS3_EEEvPT_DpOT0_ = comdat any

$_ZNSt5dequeISt8functionIFvvEESaIS2_EE22_M_reserve_map_at_backEm = comdat any

$_ZNSt5dequeISt8functionIFvvEESaIS2_EE17_M_reallocate_mapEmb = comdat any

$_ZSt4copyIPPSt8functionIFvvEES4_ET0_T_S6_S5_ = comdat any

$_ZSt13copy_backwardIPPSt8functionIFvvEES4_ET0_T_S6_S5_ = comdat any

$_ZSt14__copy_move_a2ILb0EPPSt8functionIFvvEES4_ET1_T0_S6_S5_ = comdat any

$_ZSt12__miter_baseIPPSt8functionIFvvEEET_S5_ = comdat any

$_ZSt13__copy_move_aILb0EPPSt8functionIFvvEES4_ET1_T0_S6_S5_ = comdat any

$_ZSt12__niter_baseIPPSt8functionIFvvEEET_S5_ = comdat any

$_ZNSt11__copy_moveILb0ELb1ESt26random_access_iterator_tagE8__copy_mIPSt8functionIFvvEEEEPT_PKS7_SA_S8_ = comdat any

$_ZSt23__copy_move_backward_a2ILb0EPPSt8functionIFvvEES4_ET1_T0_S6_S5_ = comdat any

$_ZSt22__copy_move_backward_aILb0EPPSt8functionIFvvEES4_ET1_T0_S6_S5_ = comdat any

$_ZNSt20__copy_move_backwardILb0ELb1ESt26random_access_iterator_tagE13__copy_move_bIPSt8functionIFvvEEEEPT_PKS7_SA_S8_ = comdat any

$_ZNSt14_Function_baseD2Ev = comdat any

$_ZN4MARC15ThreadSafeQueueISt8functionIFvvEEE10invalidateEv = comdat any

$_ZNSt5queueISt8functionIFvvEESt5dequeIS2_SaIS2_EEED2Ev = comdat any

$_ZNSt12_Vector_baseISt6threadSaIS0_EED2Ev = comdat any

$_ZNSt12_Vector_baseISt6threadSaIS0_EE12_Vector_implD2Ev = comdat any

$_ZNSaISt6threadED2Ev = comdat any

$_ZN9__gnu_cxx13new_allocatorISt6threadED2Ev = comdat any

$_ZNSt5queueISt10unique_ptrIN4MARC11IThreadTaskESt14default_deleteIS2_EESt5dequeIS5_SaIS5_EEED2Ev = comdat any

$_ZNSt5dequeIiSaIiEEC2Ev = comdat any

$_ZNSt5queueIiSt5dequeIiSaIiEEEC2EOS2_ = comdat any

$_ZNSt5dequeIiSaIiEED2Ev = comdat any

$_ZNSt11_Deque_baseIiSaIiEEC2Ev = comdat any

$_ZNSt11_Deque_baseIiSaIiEE11_Deque_implC2Ev = comdat any

$_ZNSt11_Deque_baseIiSaIiEE17_M_initialize_mapEm = comdat any

$_ZNSt11_Deque_baseIiSaIiEE11_Deque_implD2Ev = comdat any

$_ZNSt15_Deque_iteratorIiRiPiEC2Ev = comdat any

$_ZN9__gnu_cxx13new_allocatorIiEC2Ev = comdat any

$_ZNSt11_Deque_baseIiSaIiEE15_M_allocate_mapEm = comdat any

$_ZNSt11_Deque_baseIiSaIiEE15_M_create_nodesEPPiS3_ = comdat any

$_ZNSt11_Deque_baseIiSaIiEE17_M_deallocate_mapEPPim = comdat any

$_ZNSt15_Deque_iteratorIiRiPiE11_M_set_nodeEPS1_ = comdat any

$_ZNKSt11_Deque_baseIiSaIiEE20_M_get_map_allocatorEv = comdat any

$_ZNSt16allocator_traitsISaIPiEE8allocateERS1_m = comdat any

$_ZNSaIPiED2Ev = comdat any

$_ZNKSt11_Deque_baseIiSaIiEE19_M_get_Tp_allocatorEv = comdat any

$_ZNSaIPiEC2IiEERKSaIT_E = comdat any

$_ZN9__gnu_cxx13new_allocatorIPiEC2Ev = comdat any

$_ZN9__gnu_cxx13new_allocatorIPiE8allocateEmPKv = comdat any

$_ZNK9__gnu_cxx13new_allocatorIPiE8max_sizeEv = comdat any

$_ZN9__gnu_cxx13new_allocatorIPiED2Ev = comdat any

$_ZNSt11_Deque_baseIiSaIiEE16_M_allocate_nodeEv = comdat any

$_ZNSt11_Deque_baseIiSaIiEE16_M_destroy_nodesEPPiS3_ = comdat any

$_ZNSt16allocator_traitsISaIiEE8allocateERS0_m = comdat any

$_ZN9__gnu_cxx13new_allocatorIiE8allocateEmPKv = comdat any

$_ZNK9__gnu_cxx13new_allocatorIiE8max_sizeEv = comdat any

$_ZNSt11_Deque_baseIiSaIiEE18_M_deallocate_nodeEPi = comdat any

$_ZNSt16allocator_traitsISaIiEE10deallocateERS0_Pim = comdat any

$_ZN9__gnu_cxx13new_allocatorIiE10deallocateEPim = comdat any

$_ZNSt16allocator_traitsISaIPiEE10deallocateERS1_PS0_m = comdat any

$_ZN9__gnu_cxx13new_allocatorIPiE10deallocateEPS1_m = comdat any

$_ZNSt15_Deque_iteratorIiRiPiE14_S_buffer_sizeEv = comdat any

$_ZN9__gnu_cxx13new_allocatorIiED2Ev = comdat any

$_ZSt4moveIRSt5dequeIiSaIiEEEONSt16remove_referenceIT_E4typeEOS5_ = comdat any

$_ZNSt5dequeIiSaIiEEC2EOS1_ = comdat any

$_ZNSt11_Deque_baseIiSaIiEEC2EOS1_ = comdat any

$_ZSt4moveIRSt11_Deque_baseIiSaIiEEEONSt16remove_referenceIT_E4typeEOS5_ = comdat any

$_ZNSt11_Deque_baseIiSaIiEEC2EOS1_St17integral_constantIbLb1EE = comdat any

$_ZSt4moveIRSaIiEEONSt16remove_referenceIT_E4typeEOS3_ = comdat any

$_ZNSt11_Deque_baseIiSaIiEE19_M_get_Tp_allocatorEv = comdat any

$_ZNSt11_Deque_baseIiSaIiEE11_Deque_implC2EOS0_ = comdat any

$_ZNSt11_Deque_baseIiSaIiEE11_Deque_impl12_M_swap_dataERS2_ = comdat any

$_ZN9__gnu_cxx13new_allocatorIiEC2ERKS1_ = comdat any

$_ZSt4swapISt15_Deque_iteratorIiRiPiEENSt9enable_ifIXsr6__and_ISt21is_move_constructibleIT_ESt18is_move_assignableIS6_EEE5valueEvE4typeERS6_SC_ = comdat any

$_ZSt4swapIPPiENSt9enable_ifIXsr6__and_ISt21is_move_constructibleIT_ESt18is_move_assignableIS4_EEE5valueEvE4typeERS4_SA_ = comdat any

$_ZSt4moveIRSt15_Deque_iteratorIiRiPiEEONSt16remove_referenceIT_E4typeEOS6_ = comdat any

$_ZNSt15_Deque_iteratorIiRiPiEC2ERKS2_ = comdat any

$_ZSt4moveIRPPiEONSt16remove_referenceIT_E4typeEOS4_ = comdat any

$_ZNSt5dequeIiSaIiEE15_M_destroy_dataESt15_Deque_iteratorIiRiPiES5_RKS0_ = comdat any

$_ZNSt5dequeIiSaIiEE5beginEv = comdat any

$_ZNSt5dequeIiSaIiEE3endEv = comdat any

$_ZNSt11_Deque_baseIiSaIiEED2Ev = comdat any

$_ZSt4bindIRFiPN4MARC15ThreadSafeQueueIiEEEJRS3_EENSt12_Bind_helperIXsr15__is_socketlikeIT_EE5valueES8_JDpT0_EE4typeEOS8_DpOS9_ = comdat any

$_ZSt7forwardIRFiPN4MARC15ThreadSafeQueueIiEEEEOT_RNSt16remove_referenceIS6_E4typeE = comdat any

$_ZSt7forwardIRPN4MARC15ThreadSafeQueueIiEEEOT_RNSt16remove_referenceIS5_E4typeE = comdat any

$_ZSt4moveIRSt5_BindIFPFiPN4MARC15ThreadSafeQueueIiEEES4_EEEONSt16remove_referenceIT_E4typeEOSB_ = comdat any

$_ZNSt13packaged_taskIFivEEC2ISt5_BindIFPFiPN4MARC15ThreadSafeQueueIiEEES7_EEvEEOT_ = comdat any

$_ZNSt13packaged_taskIFivEE10get_futureEv = comdat any

$_ZN4MARC10TaskFutureIiEC2EOSt6futureIiE = comdat any

$_ZNSt6futureIiED2Ev = comdat any

$_ZN4MARC15ThreadSafeQueueISt10unique_ptrINS_11IThreadTaskESt14default_deleteIS2_EEE4pushES5_ = comdat any

$_ZSt11make_uniqueIN4MARC10ThreadTaskISt13packaged_taskIFivEEEEJS4_EENSt9_MakeUniqIT_E15__single_objectEDpOT0_ = comdat any

$_ZSt4moveIRSt13packaged_taskIFivEEEONSt16remove_referenceIT_E4typeEOS5_ = comdat any

$_ZNSt10unique_ptrIN4MARC11IThreadTaskESt14default_deleteIS1_EEC2INS0_10ThreadTaskISt13packaged_taskIFivEEEES2_ISA_EvEEOS_IT_T0_E = comdat any

$_ZNSt10unique_ptrIN4MARC10ThreadTaskISt13packaged_taskIFivEEEESt14default_deleteIS5_EED2Ev = comdat any

$_ZN4MARC10TaskFutureIiEC2EOS1_ = comdat any

$_ZNSt13packaged_taskIFivEED2Ev = comdat any

$_ZNSt26_Maybe_wrap_member_pointerIPFiPN4MARC15ThreadSafeQueueIiEEEE9__do_wrapEOS5_ = comdat any

$_ZNSt5_BindIFPFiPN4MARC15ThreadSafeQueueIiEEES3_EEC2IJRS3_EEEOS5_DpOT_ = comdat any

$_ZSt4moveIRPFiPN4MARC15ThreadSafeQueueIiEEEEONSt16remove_referenceIT_E4typeEOS8_ = comdat any

$_ZNSt5tupleIJPN4MARC15ThreadSafeQueueIiEEEEC2IJRS3_ELb1EEEDpOT_ = comdat any

$_ZNSt11_Tuple_implILm0EJPN4MARC15ThreadSafeQueueIiEEEEC2IRS3_EEOT_ = comdat any

$_ZNSt10_Head_baseILm0EPN4MARC15ThreadSafeQueueIiEELb0EEC2IRS3_EEOT_ = comdat any

$_ZNSaIiEC2Ev = comdat any

$_ZSt7forwardISt5_BindIFPFiPN4MARC15ThreadSafeQueueIiEEES4_EEEOT_RNSt16remove_referenceIS9_E4typeE = comdat any

$_ZNSt13packaged_taskIFivEEC2ISt5_BindIFPFiPN4MARC15ThreadSafeQueueIiEEES7_EESaIiEvEESt15allocator_arg_tRKT0_OT_ = comdat any

$_ZNSaIiED2Ev = comdat any

$_ZSt15allocate_sharedINSt13__future_base11_Task_stateISt5_BindIFPFiPN4MARC15ThreadSafeQueueIiEEES6_EESaIiEFivEEESB_JSA_RKSB_EESt10shared_ptrIT_ERKT0_DpOT1_ = comdat any

$_ZNSt10shared_ptrINSt13__future_base16_Task_state_baseIFivEEEEC2INS0_11_Task_stateISt5_BindIFPFiPN4MARC15ThreadSafeQueueIiEEESB_EESaIiES2_EEvEEOS_IT_E = comdat any

$_ZNSt10shared_ptrINSt13__future_base11_Task_stateISt5_BindIFPFiPN4MARC15ThreadSafeQueueIiEEES6_EESaIiEFivEEEED2Ev = comdat any

$_ZSt7forwardIRKSaIiEEOT_RNSt16remove_referenceIS3_E4typeE = comdat any

$_ZNSt10shared_ptrINSt13__future_base11_Task_stateISt5_BindIFPFiPN4MARC15ThreadSafeQueueIiEEES6_EESaIiEFivEEEEC2ISB_JSA_RKSB_EEESt19_Sp_make_shared_tagRKT_DpOT0_ = comdat any

$_ZNSt12__shared_ptrINSt13__future_base11_Task_stateISt5_BindIFPFiPN4MARC15ThreadSafeQueueIiEEES6_EESaIiEFivEEELN9__gnu_cxx12_Lock_policyE2EEC2ISB_JSA_RKSB_EEESt19_Sp_make_shared_tagRKT_DpOT0_ = comdat any

$_ZNSt14__shared_countILN9__gnu_cxx12_Lock_policyE2EEC2INSt13__future_base11_Task_stateISt5_BindIFPFiPN4MARC15ThreadSafeQueueIiEEESA_EESaIiEFivEEESF_JSE_RKSF_EEESt19_Sp_make_shared_tagPT_RKT0_DpOT1_ = comdat any

$_ZNKSt14__shared_countILN9__gnu_cxx12_Lock_policyE2EE14_M_get_deleterERKSt9type_info = comdat any

$_ZSt32__enable_shared_from_this_helperILN9__gnu_cxx12_Lock_policyE2EEvRKSt14__shared_countIXT_EEz = comdat any

$_ZNSaISt23_Sp_counted_ptr_inplaceINSt13__future_base11_Task_stateISt5_BindIFPFiPN4MARC15ThreadSafeQueueIiEEES6_EESaIiEFivEEESB_LN9__gnu_cxx12_Lock_policyE2EEEC2IiEERKSaIT_E = comdat any

$_ZSt18__allocate_guardedISaISt23_Sp_counted_ptr_inplaceINSt13__future_base11_Task_stateISt5_BindIFPFiPN4MARC15ThreadSafeQueueIiEEES7_EESaIiEFivEEESC_LN9__gnu_cxx12_Lock_policyE2EEEESt15__allocated_ptrIT_ERSK_ = comdat any

$_ZNSt15__allocated_ptrISaISt23_Sp_counted_ptr_inplaceINSt13__future_base11_Task_stateISt5_BindIFPFiPN4MARC15ThreadSafeQueueIiEEES7_EESaIiEFivEEESC_LN9__gnu_cxx12_Lock_policyE2EEEE3getEv = comdat any

$_ZSt4moveIRKSaIiEEONSt16remove_referenceIT_E4typeEOS4_ = comdat any

$_ZNSaIiEC2ERKS_ = comdat any

$_ZNSt23_Sp_counted_ptr_inplaceINSt13__future_base11_Task_stateISt5_BindIFPFiPN4MARC15ThreadSafeQueueIiEEES6_EESaIiEFivEEESB_LN9__gnu_cxx12_Lock_policyE2EEC2IJSA_RKSB_EEESB_DpOT_ = comdat any

$_ZNSt15__allocated_ptrISaISt23_Sp_counted_ptr_inplaceINSt13__future_base11_Task_stateISt5_BindIFPFiPN4MARC15ThreadSafeQueueIiEEES7_EESaIiEFivEEESC_LN9__gnu_cxx12_Lock_policyE2EEEEaSEDn = comdat any

$_ZNSt15__allocated_ptrISaISt23_Sp_counted_ptr_inplaceINSt13__future_base11_Task_stateISt5_BindIFPFiPN4MARC15ThreadSafeQueueIiEEES7_EESaIiEFivEEESC_LN9__gnu_cxx12_Lock_policyE2EEEED2Ev = comdat any

$_ZNSaISt23_Sp_counted_ptr_inplaceINSt13__future_base11_Task_stateISt5_BindIFPFiPN4MARC15ThreadSafeQueueIiEEES6_EESaIiEFivEEESB_LN9__gnu_cxx12_Lock_policyE2EEED2Ev = comdat any

$_ZN9__gnu_cxx13new_allocatorISt23_Sp_counted_ptr_inplaceINSt13__future_base11_Task_stateISt5_BindIFPFiPN4MARC15ThreadSafeQueueIiEEES8_EESaIiEFivEEESD_LNS_12_Lock_policyE2EEEC2Ev = comdat any

$_ZNSt16allocator_traitsISaISt23_Sp_counted_ptr_inplaceINSt13__future_base11_Task_stateISt5_BindIFPFiPN4MARC15ThreadSafeQueueIiEEES7_EESaIiEFivEEESC_LN9__gnu_cxx12_Lock_policyE2EEEE8allocateERSI_m = comdat any

$_ZNSt15__allocated_ptrISaISt23_Sp_counted_ptr_inplaceINSt13__future_base11_Task_stateISt5_BindIFPFiPN4MARC15ThreadSafeQueueIiEEES7_EESaIiEFivEEESC_LN9__gnu_cxx12_Lock_policyE2EEEEC2ERSI_PSH_ = comdat any

$_ZN9__gnu_cxx13new_allocatorISt23_Sp_counted_ptr_inplaceINSt13__future_base11_Task_stateISt5_BindIFPFiPN4MARC15ThreadSafeQueueIiEEES8_EESaIiEFivEEESD_LNS_12_Lock_policyE2EEE8allocateEmPKv = comdat any

$_ZNK9__gnu_cxx13new_allocatorISt23_Sp_counted_ptr_inplaceINSt13__future_base11_Task_stateISt5_BindIFPFiPN4MARC15ThreadSafeQueueIiEEES8_EESaIiEFivEEESD_LNS_12_Lock_policyE2EEE8max_sizeEv = comdat any

$_ZSt11__addressofISaISt23_Sp_counted_ptr_inplaceINSt13__future_base11_Task_stateISt5_BindIFPFiPN4MARC15ThreadSafeQueueIiEEES7_EESaIiEFivEEESC_LN9__gnu_cxx12_Lock_policyE2EEEEPT_RSJ_ = comdat any

$_ZNSt15__allocated_ptrISaISt23_Sp_counted_ptr_inplaceINSt13__future_base11_Task_stateISt5_BindIFPFiPN4MARC15ThreadSafeQueueIiEEES7_EESaIiEFivEEESC_LN9__gnu_cxx12_Lock_policyE2EEEE10_S_raw_ptrEPSH_ = comdat any

$_ZNSt16_Sp_counted_baseILN9__gnu_cxx12_Lock_policyE2EEC2Ev = comdat any

$_ZNSt23_Sp_counted_ptr_inplaceINSt13__future_base11_Task_stateISt5_BindIFPFiPN4MARC15ThreadSafeQueueIiEEES6_EESaIiEFivEEESB_LN9__gnu_cxx12_Lock_policyE2EE5_ImplC2ESB_ = comdat any

$_ZNSt16allocator_traitsISaIiEE9constructINSt13__future_base11_Task_stateISt5_BindIFPFiPN4MARC15ThreadSafeQueueIiEEES9_EES0_FivEEEJSD_RKS0_EEEvRS0_PT_DpOT0_ = comdat any

$_ZNSt23_Sp_counted_ptr_inplaceINSt13__future_base11_Task_stateISt5_BindIFPFiPN4MARC15ThreadSafeQueueIiEEES6_EESaIiEFivEEESB_LN9__gnu_cxx12_Lock_policyE2EE6_M_ptrEv = comdat any

$_ZNSt23_Sp_counted_ptr_inplaceINSt13__future_base11_Task_stateISt5_BindIFPFiPN4MARC15ThreadSafeQueueIiEEES6_EESaIiEFivEEESB_LN9__gnu_cxx12_Lock_policyE2EE5_ImplD2Ev = comdat any

$_ZNSt23_Sp_counted_ptr_inplaceINSt13__future_base11_Task_stateISt5_BindIFPFiPN4MARC15ThreadSafeQueueIiEEES6_EESaIiEFivEEESB_LN9__gnu_cxx12_Lock_policyE2EED2Ev = comdat any

$_ZNSt23_Sp_counted_ptr_inplaceINSt13__future_base11_Task_stateISt5_BindIFPFiPN4MARC15ThreadSafeQueueIiEEES6_EESaIiEFivEEESB_LN9__gnu_cxx12_Lock_policyE2EED0Ev = comdat any

$_ZNSt23_Sp_counted_ptr_inplaceINSt13__future_base11_Task_stateISt5_BindIFPFiPN4MARC15ThreadSafeQueueIiEEES6_EESaIiEFivEEESB_LN9__gnu_cxx12_Lock_policyE2EE10_M_disposeEv = comdat any

$_ZNSt23_Sp_counted_ptr_inplaceINSt13__future_base11_Task_stateISt5_BindIFPFiPN4MARC15ThreadSafeQueueIiEEES6_EESaIiEFivEEESB_LN9__gnu_cxx12_Lock_policyE2EE10_M_destroyEv = comdat any

$_ZNSt23_Sp_counted_ptr_inplaceINSt13__future_base11_Task_stateISt5_BindIFPFiPN4MARC15ThreadSafeQueueIiEEES6_EESaIiEFivEEESB_LN9__gnu_cxx12_Lock_policyE2EE14_M_get_deleterERKSt9type_info = comdat any

$_ZNSt16_Sp_counted_baseILN9__gnu_cxx12_Lock_policyE2EED2Ev = comdat any

$_ZNSt16_Sp_counted_baseILN9__gnu_cxx12_Lock_policyE2EED0Ev = comdat any

$_ZNSt16_Sp_counted_baseILN9__gnu_cxx12_Lock_policyE2EE10_M_destroyEv = comdat any

$_ZNSt14_Sp_ebo_helperILi0ESaIiELb1EEC2ERKS0_ = comdat any

$_ZN9__gnu_cxx13new_allocatorIiE9constructINSt13__future_base11_Task_stateISt5_BindIFPFiPN4MARC15ThreadSafeQueueIiEEES9_EESaIiEFivEEEJSD_RKSE_EEEvPT_DpOT0_ = comdat any

$_ZNSt13__future_base11_Task_stateISt5_BindIFPFiPN4MARC15ThreadSafeQueueIiEEES5_EESaIiEFivEEC2IS9_EEOT_RKSA_ = comdat any

$_ZNSt13__future_base16_Task_state_baseIFivEEC2ISaIiEEERKT_ = comdat any

$_ZNSt13__future_base11_Task_stateISt5_BindIFPFiPN4MARC15ThreadSafeQueueIiEEES5_EESaIiEFivEE5_ImplC2IS9_EEOT_RKSA_ = comdat any

$_ZNSt13__future_base11_Task_stateISt5_BindIFPFiPN4MARC15ThreadSafeQueueIiEEES5_EESaIiEFivEED2Ev = comdat any

$_ZNSt13__future_base11_Task_stateISt5_BindIFPFiPN4MARC15ThreadSafeQueueIiEEES5_EESaIiEFivEED0Ev = comdat any

$_ZNSt13__future_base13_State_baseV217_M_complete_asyncEv = comdat any

$_ZNKSt13__future_base13_State_baseV221_M_is_deferred_futureEv = comdat any

$_ZNSt13__future_base11_Task_stateISt5_BindIFPFiPN4MARC15ThreadSafeQueueIiEEES5_EESaIiEFivEE6_M_runEv = comdat any

$_ZNSt13__future_base11_Task_stateISt5_BindIFPFiPN4MARC15ThreadSafeQueueIiEEES5_EESaIiEFivEE14_M_run_delayedESt8weak_ptrINS_13_State_baseV2EE = comdat any

$_ZNSt13__future_base11_Task_stateISt5_BindIFPFiPN4MARC15ThreadSafeQueueIiEEES5_EESaIiEFivEE8_M_resetEv = comdat any

$_ZNSt13__future_base13_State_baseV2C2Ev = comdat any

$_ZNSt13__future_base18_S_allocate_resultIiiEESt10unique_ptrINS_7_ResultIT_EENS_12_Result_base8_DeleterEERKSaIT0_E = comdat any

$_ZNSt13__future_base16_Task_state_baseIFivEED2Ev = comdat any

$_ZNSt13__future_base16_Task_state_baseIFivEED0Ev = comdat any

$_ZNSt10unique_ptrINSt13__future_base12_Result_baseENS1_8_DeleterEEC2Ev = comdat any

$_ZNSt23__atomic_futex_unsignedILj2147483648EEC2Ej = comdat any

$_ZNSt11atomic_flagC2Eb = comdat any

$_ZNSt9once_flagC2Ev = comdat any

$_ZNSt10unique_ptrINSt13__future_base12_Result_baseENS1_8_DeleterEED2Ev = comdat any

$_ZNSt13__future_base13_State_baseV2D2Ev = comdat any

$_ZNSt13__future_base13_State_baseV2D0Ev = comdat any

$_ZNSt5tupleIJPNSt13__future_base12_Result_baseENS1_8_DeleterEEEC2IS2_S3_Lb1EEEv = comdat any

$_ZNSt11_Tuple_implILm0EJPNSt13__future_base12_Result_baseENS1_8_DeleterEEEC2Ev = comdat any

$_ZNSt11_Tuple_implILm1EJNSt13__future_base12_Result_base8_DeleterEEEC2Ev = comdat any

$_ZNSt10_Head_baseILm0EPNSt13__future_base12_Result_baseELb0EEC2Ev = comdat any

$_ZNSt10_Head_baseILm1ENSt13__future_base12_Result_base8_DeleterELb1EEC2Ev = comdat any

$_ZNSt6atomicIjEC2Ej = comdat any

$_ZNSt13__atomic_baseIjEC2Ej = comdat any

$_ZNSt11atomic_flag7_S_initEb = comdat any

$_ZSt3getILm0EJPNSt13__future_base12_Result_baseENS1_8_DeleterEEERNSt13tuple_elementIXT_ESt5tupleIJDpT0_EEE4typeERS8_ = comdat any

$_ZNSt10unique_ptrINSt13__future_base12_Result_baseENS1_8_DeleterEE11get_deleterEv = comdat any

$_ZNKSt13__future_base12_Result_base8_DeleterclEPS0_ = comdat any

$_ZSt12__get_helperILm0EPNSt13__future_base12_Result_baseEJNS1_8_DeleterEEERT0_RSt11_Tuple_implIXT_EJS4_DpT1_EE = comdat any

$_ZNSt11_Tuple_implILm0EJPNSt13__future_base12_Result_baseENS1_8_DeleterEEE7_M_headERS4_ = comdat any

$_ZNSt10_Head_baseILm0EPNSt13__future_base12_Result_baseELb0EE7_M_headERS3_ = comdat any

$_ZSt3getILm1EJPNSt13__future_base12_Result_baseENS1_8_DeleterEEERNSt13tuple_elementIXT_ESt5tupleIJDpT0_EEE4typeERS8_ = comdat any

$_ZSt12__get_helperILm1ENSt13__future_base12_Result_base8_DeleterEJEERT0_RSt11_Tuple_implIXT_EJS3_DpT1_EE = comdat any

$_ZNSt11_Tuple_implILm1EJNSt13__future_base12_Result_base8_DeleterEEE7_M_headERS3_ = comdat any

$_ZNSt10_Head_baseILm1ENSt13__future_base12_Result_base8_DeleterELb1EE7_M_headERS3_ = comdat any

$_ZNSt13__future_base7_ResultIiEC2Ev = comdat any

$_ZNSt10unique_ptrINSt13__future_base7_ResultIiEENS0_12_Result_base8_DeleterEEC2EPS2_ = comdat any

$_ZNSt13__future_base7_ResultIiE10_M_destroyEv = comdat any

$_ZNSt13__future_base7_ResultIiED2Ev = comdat any

$_ZNSt13__future_base7_ResultIiED0Ev = comdat any

$_ZNSt13__future_base7_ResultIiE8_M_valueEv = comdat any

$_ZN9__gnu_cxx16__aligned_bufferIiE6_M_ptrEv = comdat any

$_ZN9__gnu_cxx16__aligned_bufferIiE7_M_addrEv = comdat any

$_ZNSt5tupleIJPNSt13__future_base7_ResultIiEENS0_12_Result_base8_DeleterEEEC2IS3_S5_Lb1EEEv = comdat any

$_ZSt3getILm0EJPNSt13__future_base7_ResultIiEENS0_12_Result_base8_DeleterEEERNSt13tuple_elementIXT_ESt5tupleIJDpT0_EEE4typeERSA_ = comdat any

$_ZNSt11_Tuple_implILm0EJPNSt13__future_base7_ResultIiEENS0_12_Result_base8_DeleterEEEC2Ev = comdat any

$_ZNSt10_Head_baseILm0EPNSt13__future_base7_ResultIiEELb0EEC2Ev = comdat any

$_ZSt12__get_helperILm0EPNSt13__future_base7_ResultIiEEJNS0_12_Result_base8_DeleterEEERT0_RSt11_Tuple_implIXT_EJS6_DpT1_EE = comdat any

$_ZNSt11_Tuple_implILm0EJPNSt13__future_base7_ResultIiEENS0_12_Result_base8_DeleterEEE7_M_headERS6_ = comdat any

$_ZNSt10_Head_baseILm0EPNSt13__future_base7_ResultIiEELb0EE7_M_headERS4_ = comdat any

$_ZNSt5_BindIFPFiPN4MARC15ThreadSafeQueueIiEEES3_EEC2EOS7_ = comdat any

$_ZSt4moveIRSt5tupleIJPN4MARC15ThreadSafeQueueIiEEEEEONSt16remove_referenceIT_E4typeEOS8_ = comdat any

$_ZNSt5tupleIJPN4MARC15ThreadSafeQueueIiEEEEC2EOS4_ = comdat any

$_ZNSt11_Tuple_implILm0EJPN4MARC15ThreadSafeQueueIiEEEEC2EOS4_ = comdat any

$_ZSt7forwardIPN4MARC15ThreadSafeQueueIiEEEOT_RNSt16remove_referenceIS4_E4typeE = comdat any

$_ZNSt11_Tuple_implILm0EJPN4MARC15ThreadSafeQueueIiEEEE7_M_headERS4_ = comdat any

$_ZNSt10_Head_baseILm0EPN4MARC15ThreadSafeQueueIiEELb0EEC2IS3_EEOT_ = comdat any

$_ZNSt10_Head_baseILm0EPN4MARC15ThreadSafeQueueIiEELb0EE7_M_headERS4_ = comdat any

$_ZNSt10unique_ptrINSt13__future_base7_ResultIiEENS0_12_Result_base8_DeleterEED2Ev = comdat any

$_ZNSt10unique_ptrINSt13__future_base7_ResultIiEENS0_12_Result_base8_DeleterEE11get_deleterEv = comdat any

$_ZSt3getILm1EJPNSt13__future_base7_ResultIiEENS0_12_Result_base8_DeleterEEERNSt13tuple_elementIXT_ESt5tupleIJDpT0_EEE4typeERSA_ = comdat any

$_ZNSt13__future_base11_Task_stateISt5_BindIFPFiPN4MARC15ThreadSafeQueueIiEEES5_EESaIiEFivEE5_ImplD2Ev = comdat any

$_ZSt13__bind_simpleISt17reference_wrapperISt5_BindIFPFiPN4MARC15ThreadSafeQueueIiEEES5_EEEJEENSt19_Bind_simple_helperIT_JDpT0_EE6__typeEOSC_DpOSD_ = comdat any

$_ZSt3refISt5_BindIFPFiPN4MARC15ThreadSafeQueueIiEEES4_EEESt17reference_wrapperIT_ERSA_ = comdat any

$_ZNSt13__future_base13_State_baseV213_M_set_resultESt8functionIFSt10unique_ptrINS_12_Result_baseENS3_8_DeleterEEvEEb = comdat any

$_ZNSt13__future_base14_S_task_setterISt10unique_ptrINS_7_ResultIiEENS_12_Result_base8_DeleterEESt12_Bind_simpleIFSt17reference_wrapperISt5_BindIFPFiPN4MARC15ThreadSafeQueueIiEEESD_EEEvEEEENS_12_Task_setterIT_T0_NSM_12element_type11result_typeEEERSM_RSN_ = comdat any

$_ZNSt8functionIFSt10unique_ptrINSt13__future_base12_Result_baseENS2_8_DeleterEEvEEC2INS1_12_Task_setterIS0_INS1_7_ResultIiEES3_ESt12_Bind_simpleIFSt17reference_wrapperISt5_BindIFPFiPN4MARC15ThreadSafeQueueIiEEESI_EEEvEEiEEvvEET_ = comdat any

$_ZNSt8functionIFSt10unique_ptrINSt13__future_base12_Result_baseENS2_8_DeleterEEvEED2Ev = comdat any

$_ZNSt26_Maybe_wrap_member_pointerISt17reference_wrapperISt5_BindIFPFiPN4MARC15ThreadSafeQueueIiEEES5_EEEE9__do_wrapEOSA_ = comdat any

$_ZSt7forwardISt17reference_wrapperISt5_BindIFPFiPN4MARC15ThreadSafeQueueIiEEES5_EEEEOT_RNSt16remove_referenceISB_E4typeE = comdat any

$_ZNSt12_Bind_simpleIFSt17reference_wrapperISt5_BindIFPFiPN4MARC15ThreadSafeQueueIiEEES5_EEEvEEC2ISA_JEEEOT_DpOT0_ = comdat any

$_ZNSt5tupleIJSt17reference_wrapperISt5_BindIFPFiPN4MARC15ThreadSafeQueueIiEEES5_EEEEEC2IJSA_ELb1EEEDpOT_ = comdat any

$_ZNSt11_Tuple_implILm0EJSt17reference_wrapperISt5_BindIFPFiPN4MARC15ThreadSafeQueueIiEEES5_EEEEEC2ISA_EEOT_ = comdat any

$_ZNSt10_Head_baseILm0ESt17reference_wrapperISt5_BindIFPFiPN4MARC15ThreadSafeQueueIiEEES5_EEELb0EEC2ISA_EEOT_ = comdat any

$_ZNSt17reference_wrapperISt5_BindIFPFiPN4MARC15ThreadSafeQueueIiEEES4_EEEC2ERS8_ = comdat any

$_ZSt11__addressofISt5_BindIFPFiPN4MARC15ThreadSafeQueueIiEEES4_EEEPT_RS9_ = comdat any

$_ZSt9call_onceIMNSt13__future_base13_State_baseV2EFvPSt8functionIFSt10unique_ptrINS0_12_Result_baseENS4_8_DeleterEEvEEPbEJPS1_S9_SA_EEvRSt9once_flagOT_DpOT0_ = comdat any

$_ZNSt13__future_base13_State_baseV29_M_do_setEPSt8functionIFSt10unique_ptrINS_12_Result_baseENS3_8_DeleterEEvEEPb = comdat any

$_ZSt11__addressofISt8functionIFSt10unique_ptrINSt13__future_base12_Result_baseENS3_8_DeleterEEvEEEPT_RS8_ = comdat any

$_ZSt11__addressofIbEPT_RS0_ = comdat any

$_ZSt11__addressofIZSt9call_onceIMNSt13__future_base13_State_baseV2EFvPSt8functionIFSt10unique_ptrINS1_12_Result_baseENS5_8_DeleterEEvEEPbEJPS2_SA_SB_EEvRSt9once_flagOT_DpOT0_EUlvE_EPSH_RSH_ = comdat any

$_ZZSt9call_onceIMNSt13__future_base13_State_baseV2EFvPSt8functionIFSt10unique_ptrINS0_12_Result_baseENS4_8_DeleterEEvEEPbEJPS1_S9_SA_EEvRSt9once_flagOT_DpOT0_ENKUlvE0_cvPFvvEEv = comdat any

$_ZZSt9call_onceIMNSt13__future_base13_State_baseV2EFvPSt8functionIFSt10unique_ptrINS0_12_Result_baseENS4_8_DeleterEEvEEPbEJPS1_S9_SA_EEvRSt9once_flagOT_DpOT0_ENUlvE0_8__invokeEv = comdat any

$_ZZSt9call_onceIMNSt13__future_base13_State_baseV2EFvPSt8functionIFSt10unique_ptrINS0_12_Result_baseENS4_8_DeleterEEvEEPbEJPS1_S9_SA_EEvRSt9once_flagOT_DpOT0_ENKUlvE0_clEv = comdat any

$_ZZSt9call_onceIMNSt13__future_base13_State_baseV2EFvPSt8functionIFSt10unique_ptrINS0_12_Result_baseENS4_8_DeleterEEvEEPbEJPS1_S9_SA_EEvRSt9once_flagOT_DpOT0_ENKUlvE_clEv = comdat any

$_ZSt8__invokeIMNSt13__future_base13_State_baseV2EFvPSt8functionIFSt10unique_ptrINS0_12_Result_baseENS4_8_DeleterEEvEEPbEJPS1_S9_SA_EENSt9result_ofIFOT_DpOT0_EE4typeESG_SJ_ = comdat any

$_ZSt7forwardIMNSt13__future_base13_State_baseV2EFvPSt8functionIFSt10unique_ptrINS0_12_Result_baseENS4_8_DeleterEEvEEPbEEOT_RNSt16remove_referenceISD_E4typeE = comdat any

$_ZSt7forwardIPNSt13__future_base13_State_baseV2EEOT_RNSt16remove_referenceIS3_E4typeE = comdat any

$_ZSt7forwardIPSt8functionIFSt10unique_ptrINSt13__future_base12_Result_baseENS3_8_DeleterEEvEEEOT_RNSt16remove_referenceIS9_E4typeE = comdat any

$_ZSt7forwardIPbEOT_RNSt16remove_referenceIS1_E4typeE = comdat any

$_ZSt13__invoke_implIvMNSt13__future_base13_State_baseV2EFvPSt8functionIFSt10unique_ptrINS0_12_Result_baseENS4_8_DeleterEEvEEPbEPS1_JS9_SA_EET_St21__invoke_memfun_derefOT0_OT1_DpOT2_ = comdat any

$_ZNKSt8functionIFSt10unique_ptrINSt13__future_base12_Result_baseENS2_8_DeleterEEvEEclEv = comdat any

$_ZNSt10unique_ptrINSt13__future_base12_Result_baseENS1_8_DeleterEE4swapERS3_ = comdat any

$_ZSt4swapIJPNSt13__future_base12_Result_baseENS1_8_DeleterEEEvRSt5tupleIJDpT_EES8_ = comdat any

$_ZNSt5tupleIJPNSt13__future_base12_Result_baseENS1_8_DeleterEEE4swapERS4_ = comdat any

$_ZNSt11_Tuple_implILm0EJPNSt13__future_base12_Result_baseENS1_8_DeleterEEE7_M_swapERS4_ = comdat any

$_ZSt4swapIPNSt13__future_base12_Result_baseEENSt9enable_ifIXsr6__and_ISt21is_move_constructibleIT_ESt18is_move_assignableIS5_EEE5valueEvE4typeERS5_SB_ = comdat any

$_ZNSt11_Tuple_implILm1EJNSt13__future_base12_Result_base8_DeleterEEE7_M_swapERS3_ = comdat any

$_ZNSt11_Tuple_implILm0EJPNSt13__future_base12_Result_baseENS1_8_DeleterEEE7_M_tailERS4_ = comdat any

$_ZSt4moveIRPNSt13__future_base12_Result_baseEEONSt16remove_referenceIT_E4typeEOS5_ = comdat any

$_ZSt4swapINSt13__future_base12_Result_base8_DeleterEENSt9enable_ifIXsr6__and_ISt21is_move_constructibleIT_ESt18is_move_assignableIS5_EEE5valueEvE4typeERS5_SB_ = comdat any

$_ZSt4moveIRNSt13__future_base12_Result_base8_DeleterEEONSt16remove_referenceIT_E4typeEOS5_ = comdat any

$_ZSt11__addressofISt10unique_ptrINSt13__future_base7_ResultIiEENS1_12_Result_base8_DeleterEEEPT_RS7_ = comdat any

$_ZSt11__addressofISt12_Bind_simpleIFSt17reference_wrapperISt5_BindIFPFiPN4MARC15ThreadSafeQueueIiEEES6_EEEvEEEPT_RSE_ = comdat any

$_ZNSt14_Function_base13_Base_managerINSt13__future_base12_Task_setterISt10unique_ptrINS1_7_ResultIiEENS1_12_Result_base8_DeleterEESt12_Bind_simpleIFSt17reference_wrapperISt5_BindIFPFiPN4MARC15ThreadSafeQueueIiEEESF_EEEvEEiEEE21_M_not_empty_functionISN_EEbRKT_ = comdat any

$_ZNSt14_Function_base13_Base_managerINSt13__future_base12_Task_setterISt10unique_ptrINS1_7_ResultIiEENS1_12_Result_base8_DeleterEESt12_Bind_simpleIFSt17reference_wrapperISt5_BindIFPFiPN4MARC15ThreadSafeQueueIiEEESF_EEEvEEiEEE15_M_init_functorERSt9_Any_dataOSN_ = comdat any

$_ZSt4moveIRNSt13__future_base12_Task_setterISt10unique_ptrINS0_7_ResultIiEENS0_12_Result_base8_DeleterEESt12_Bind_simpleIFSt17reference_wrapperISt5_BindIFPFiPN4MARC15ThreadSafeQueueIiEEESE_EEEvEEiEEEONSt16remove_referenceIT_E4typeEOSP_ = comdat any

$_ZNSt17_Function_handlerIFSt10unique_ptrINSt13__future_base12_Result_baseENS2_8_DeleterEEvENS1_12_Task_setterIS0_INS1_7_ResultIiEES3_ESt12_Bind_simpleIFSt17reference_wrapperISt5_BindIFPFiPN4MARC15ThreadSafeQueueIiEEESG_EEEvEEiEEE9_M_invokeERKSt9_Any_data = comdat any

$_ZNSt14_Function_base13_Base_managerINSt13__future_base12_Task_setterISt10unique_ptrINS1_7_ResultIiEENS1_12_Result_base8_DeleterEESt12_Bind_simpleIFSt17reference_wrapperISt5_BindIFPFiPN4MARC15ThreadSafeQueueIiEEESF_EEEvEEiEEE10_M_managerERSt9_Any_dataRKSP_St18_Manager_operation = comdat any

$_ZNSt14_Function_base13_Base_managerINSt13__future_base12_Task_setterISt10unique_ptrINS1_7_ResultIiEENS1_12_Result_base8_DeleterEESt12_Bind_simpleIFSt17reference_wrapperISt5_BindIFPFiPN4MARC15ThreadSafeQueueIiEEESF_EEEvEEiEEE15_M_init_functorERSt9_Any_dataOSN_St17integral_constantIbLb1EE = comdat any

$_ZNSt9_Any_data9_M_accessEv = comdat any

$_ZNSt14_Function_base13_Base_managerINSt13__future_base12_Task_setterISt10unique_ptrINS1_7_ResultIiEENS1_12_Result_base8_DeleterEESt12_Bind_simpleIFSt17reference_wrapperISt5_BindIFPFiPN4MARC15ThreadSafeQueueIiEEESF_EEEvEEiEEE14_M_get_pointerERKSt9_Any_data = comdat any

$_ZNKSt13__future_base12_Task_setterISt10unique_ptrINS_7_ResultIiEENS_12_Result_base8_DeleterEESt12_Bind_simpleIFSt17reference_wrapperISt5_BindIFPFiPN4MARC15ThreadSafeQueueIiEEESD_EEEvEEiEclEv = comdat any

$_ZNSt10unique_ptrINSt13__future_base12_Result_baseENS1_8_DeleterEEC2INS0_7_ResultIiEES2_vEEOS_IT_T0_E = comdat any

$_ZSt11__addressofIKNSt13__future_base12_Task_setterISt10unique_ptrINS0_7_ResultIiEENS0_12_Result_base8_DeleterEESt12_Bind_simpleIFSt17reference_wrapperISt5_BindIFPFiPN4MARC15ThreadSafeQueueIiEEESE_EEEvEEiEEEPT_RSO_ = comdat any

$_ZNKSt9_Any_data9_M_accessINSt13__future_base12_Task_setterISt10unique_ptrINS1_7_ResultIiEENS1_12_Result_base8_DeleterEESt12_Bind_simpleIFSt17reference_wrapperISt5_BindIFPFiPN4MARC15ThreadSafeQueueIiEEESF_EEEvEEiEEEERKT_v = comdat any

$_ZNKSt9_Any_data9_M_accessEv = comdat any

$_ZNKSt10unique_ptrINSt13__future_base7_ResultIiEENS0_12_Result_base8_DeleterEEptEv = comdat any

$_ZNSt13__future_base7_ResultIiE6_M_setEOi = comdat any

$_ZNSt12_Bind_simpleIFSt17reference_wrapperISt5_BindIFPFiPN4MARC15ThreadSafeQueueIiEEES5_EEEvEEclEv = comdat any

$_ZNSt15__exception_ptr13exception_ptraSEOS0_ = comdat any

$_ZSt4moveIRSt10unique_ptrINSt13__future_base7_ResultIiEENS1_12_Result_base8_DeleterEEEONSt16remove_referenceIT_E4typeEOS9_ = comdat any

$_ZNSt10unique_ptrINSt13__future_base7_ResultIiEENS0_12_Result_base8_DeleterEEC2EOS5_ = comdat any

$_ZNKSt10unique_ptrINSt13__future_base7_ResultIiEENS0_12_Result_base8_DeleterEE3getEv = comdat any

$_ZSt3getILm0EJPNSt13__future_base7_ResultIiEENS0_12_Result_base8_DeleterEEERKNSt13tuple_elementIXT_ESt5tupleIJDpT0_EEE4typeERKSA_ = comdat any

$_ZSt12__get_helperILm0EPNSt13__future_base7_ResultIiEEJNS0_12_Result_base8_DeleterEEERKT0_RKSt11_Tuple_implIXT_EJS6_DpT1_EE = comdat any

$_ZNSt11_Tuple_implILm0EJPNSt13__future_base7_ResultIiEENS0_12_Result_base8_DeleterEEE7_M_headERKS6_ = comdat any

$_ZNSt10_Head_baseILm0EPNSt13__future_base7_ResultIiEELb0EE7_M_headERKS4_ = comdat any

$_ZSt4moveIRiEONSt16remove_referenceIT_E4typeEOS2_ = comdat any

$_ZNSt12_Bind_simpleIFSt17reference_wrapperISt5_BindIFPFiPN4MARC15ThreadSafeQueueIiEEES5_EEEvEE9_M_invokeIJEEEiSt12_Index_tupleIJXspT_EEE = comdat any

$_ZSt3getILm0EJSt17reference_wrapperISt5_BindIFPFiPN4MARC15ThreadSafeQueueIiEEES5_EEEEERNSt13tuple_elementIXT_ESt5tupleIJDpT0_EEE4typeERSF_ = comdat any

$_ZNKSt17reference_wrapperISt5_BindIFPFiPN4MARC15ThreadSafeQueueIiEEES4_EEEclIJEEENSt9result_ofIFRS8_DpOT_EE4typeESF_ = comdat any

$_ZSt12__get_helperILm0ESt17reference_wrapperISt5_BindIFPFiPN4MARC15ThreadSafeQueueIiEEES5_EEEJEERT0_RSt11_Tuple_implIXT_EJSB_DpT1_EE = comdat any

$_ZNSt11_Tuple_implILm0EJSt17reference_wrapperISt5_BindIFPFiPN4MARC15ThreadSafeQueueIiEEES5_EEEEE7_M_headERSB_ = comdat any

$_ZNSt10_Head_baseILm0ESt17reference_wrapperISt5_BindIFPFiPN4MARC15ThreadSafeQueueIiEEES5_EEELb0EE7_M_headERSB_ = comdat any

$_ZSt8__invokeIRSt5_BindIFPFiPN4MARC15ThreadSafeQueueIiEEES4_EEJEENSt9result_ofIFOT_DpOT0_EE4typeESC_SF_ = comdat any

$_ZNKSt17reference_wrapperISt5_BindIFPFiPN4MARC15ThreadSafeQueueIiEEES4_EEE3getEv = comdat any

$_ZSt13__invoke_implIiRSt5_BindIFPFiPN4MARC15ThreadSafeQueueIiEEES4_EEJEET_St14__invoke_otherOT0_DpOT1_ = comdat any

$_ZSt7forwardIRSt5_BindIFPFiPN4MARC15ThreadSafeQueueIiEEES4_EEEOT_RNSt16remove_referenceISA_E4typeE = comdat any

$_ZNSt5_BindIFPFiPN4MARC15ThreadSafeQueueIiEEES3_EEclIJEiEET0_DpOT_ = comdat any

$_ZNSt5_BindIFPFiPN4MARC15ThreadSafeQueueIiEEES3_EE6__callIiJEJLm0EEEET_OSt5tupleIJDpT0_EESt12_Index_tupleIJXspT1_EEE = comdat any

$_ZSt16forward_as_tupleIJEESt5tupleIJDpOT_EES3_ = comdat any

$_ZNVKSt3_MuIPN4MARC15ThreadSafeQueueIiEELb0ELb0EEclIRS3_St5tupleIJEEEEOT_SA_RT0_ = comdat any

$_ZSt3getILm0EJPN4MARC15ThreadSafeQueueIiEEEERNSt13tuple_elementIXT_ESt5tupleIJDpT0_EEE4typeERS8_ = comdat any

$_ZSt12__get_helperILm0EPN4MARC15ThreadSafeQueueIiEEJEERT0_RSt11_Tuple_implIXT_EJS4_DpT1_EE = comdat any

$_ZNSt15__exception_ptr13exception_ptrC2EOS0_ = comdat any

$_ZNSt10unique_ptrINSt13__future_base7_ResultIiEENS0_12_Result_base8_DeleterEE7releaseEv = comdat any

$_ZSt7forwardINSt13__future_base12_Result_base8_DeleterEEOT_RNSt16remove_referenceIS3_E4typeE = comdat any

$_ZNSt5tupleIJPNSt13__future_base7_ResultIiEENS0_12_Result_base8_DeleterEEEC2IS3_S5_Lb1EEEOT_OT0_ = comdat any

$_ZSt7forwardIPNSt13__future_base7_ResultIiEEEOT_RNSt16remove_referenceIS4_E4typeE = comdat any

$_ZNSt11_Tuple_implILm0EJPNSt13__future_base7_ResultIiEENS0_12_Result_base8_DeleterEEEC2IS3_JS5_EvEEOT_DpOT0_ = comdat any

$_ZNSt11_Tuple_implILm1EJNSt13__future_base12_Result_base8_DeleterEEEC2IS2_EEOT_ = comdat any

$_ZNSt10_Head_baseILm0EPNSt13__future_base7_ResultIiEELb0EEC2IS3_EEOT_ = comdat any

$_ZNSt10_Head_baseILm1ENSt13__future_base12_Result_base8_DeleterELb1EEC2IS2_EEOT_ = comdat any

$_ZNSt5tupleIJPNSt13__future_base12_Result_baseENS1_8_DeleterEEEC2IPNS0_7_ResultIiEES3_Lb1EEEOT_OT0_ = comdat any

$_ZNSt11_Tuple_implILm0EJPNSt13__future_base12_Result_baseENS1_8_DeleterEEEC2IPNS0_7_ResultIiEEJS3_EvEEOT_DpOT0_ = comdat any

$_ZNSt10_Head_baseILm0EPNSt13__future_base12_Result_baseELb0EEC2IPNS0_7_ResultIiEEEEOT_ = comdat any

$_ZNSt9_Any_data9_M_accessIPKSt9type_infoEERT_v = comdat any

$_ZNSt9_Any_data9_M_accessIPNSt13__future_base12_Task_setterISt10unique_ptrINS1_7_ResultIiEENS1_12_Result_base8_DeleterEESt12_Bind_simpleIFSt17reference_wrapperISt5_BindIFPFiPN4MARC15ThreadSafeQueueIiEEESF_EEEvEEiEEEERT_v = comdat any

$_ZNSt14_Function_base13_Base_managerINSt13__future_base12_Task_setterISt10unique_ptrINS1_7_ResultIiEENS1_12_Result_base8_DeleterEESt12_Bind_simpleIFSt17reference_wrapperISt5_BindIFPFiPN4MARC15ThreadSafeQueueIiEEESF_EEEvEEiEEE8_M_cloneERSt9_Any_dataRKSP_St17integral_constantIbLb1EE = comdat any

$_ZNSt14_Function_base13_Base_managerINSt13__future_base12_Task_setterISt10unique_ptrINS1_7_ResultIiEENS1_12_Result_base8_DeleterEESt12_Bind_simpleIFSt17reference_wrapperISt5_BindIFPFiPN4MARC15ThreadSafeQueueIiEEESF_EEEvEEiEEE10_M_destroyERSt9_Any_dataSt17integral_constantIbLb1EE = comdat any

$_ZNSt9_Any_data9_M_accessINSt13__future_base12_Task_setterISt10unique_ptrINS1_7_ResultIiEENS1_12_Result_base8_DeleterEESt12_Bind_simpleIFSt17reference_wrapperISt5_BindIFPFiPN4MARC15ThreadSafeQueueIiEEESF_EEEvEEiEEEERT_v = comdat any

$_ZNSt13__future_base13_State_baseV221_M_set_delayed_resultESt8functionIFSt10unique_ptrINS_12_Result_baseENS3_8_DeleterEEvEESt8weak_ptrIS0_E = comdat any

$_ZSt4moveIRSt8weak_ptrINSt13__future_base13_State_baseV2EEEONSt16remove_referenceIT_E4typeEOS6_ = comdat any

$_ZNSt8weak_ptrINSt13__future_base13_State_baseV2EEC2EOS2_ = comdat any

$_ZNSt8weak_ptrINSt13__future_base13_State_baseV2EED2Ev = comdat any

$_ZNSt13__future_base13_State_baseV211_Make_readyC2Ev = comdat any

$_ZNSt10unique_ptrINSt13__future_base13_State_baseV211_Make_readyESt14default_deleteIS2_EEC2EPS2_ = comdat any

$_ZNKSt10unique_ptrINSt13__future_base13_State_baseV211_Make_readyESt14default_deleteIS2_EEptEv = comdat any

$_ZNSt8weak_ptrINSt13__future_base13_State_baseV2EEaSEOS2_ = comdat any

$_ZNSt10unique_ptrINSt13__future_base13_State_baseV211_Make_readyESt14default_deleteIS2_EE7releaseEv = comdat any

$_ZNSt10unique_ptrINSt13__future_base13_State_baseV211_Make_readyESt14default_deleteIS2_EED2Ev = comdat any

$_ZNSt8weak_ptrINSt13__future_base13_State_baseV2EEC2Ev = comdat any

$_ZNSt10__weak_ptrINSt13__future_base13_State_baseV2ELN9__gnu_cxx12_Lock_policyE2EEC2Ev = comdat any

$_ZNSt12__weak_countILN9__gnu_cxx12_Lock_policyE2EEC2Ev = comdat any

$_ZNSt5tupleIJPNSt13__future_base13_State_baseV211_Make_readyESt14default_deleteIS2_EEEC2IS3_S5_Lb1EEEv = comdat any

$_ZSt3getILm0EJPNSt13__future_base13_State_baseV211_Make_readyESt14default_deleteIS2_EEERNSt13tuple_elementIXT_ESt5tupleIJDpT0_EEE4typeERSA_ = comdat any

$_ZNSt11_Tuple_implILm0EJPNSt13__future_base13_State_baseV211_Make_readyESt14default_deleteIS2_EEEC2Ev = comdat any

$_ZNSt11_Tuple_implILm1EJSt14default_deleteINSt13__future_base13_State_baseV211_Make_readyEEEEC2Ev = comdat any

$_ZNSt10_Head_baseILm0EPNSt13__future_base13_State_baseV211_Make_readyELb0EEC2Ev = comdat any

$_ZNSt10_Head_baseILm1ESt14default_deleteINSt13__future_base13_State_baseV211_Make_readyEELb1EEC2Ev = comdat any

$_ZSt12__get_helperILm0EPNSt13__future_base13_State_baseV211_Make_readyEJSt14default_deleteIS2_EEERT0_RSt11_Tuple_implIXT_EJS6_DpT1_EE = comdat any

$_ZNSt11_Tuple_implILm0EJPNSt13__future_base13_State_baseV211_Make_readyESt14default_deleteIS2_EEE7_M_headERS6_ = comdat any

$_ZNSt10_Head_baseILm0EPNSt13__future_base13_State_baseV211_Make_readyELb0EE7_M_headERS4_ = comdat any

$_ZNKSt10unique_ptrINSt13__future_base13_State_baseV211_Make_readyESt14default_deleteIS2_EE3getEv = comdat any

$_ZSt3getILm0EJPNSt13__future_base13_State_baseV211_Make_readyESt14default_deleteIS2_EEERKNSt13tuple_elementIXT_ESt5tupleIJDpT0_EEE4typeERKSA_ = comdat any

$_ZSt12__get_helperILm0EPNSt13__future_base13_State_baseV211_Make_readyEJSt14default_deleteIS2_EEERKT0_RKSt11_Tuple_implIXT_EJS6_DpT1_EE = comdat any

$_ZNSt11_Tuple_implILm0EJPNSt13__future_base13_State_baseV211_Make_readyESt14default_deleteIS2_EEE7_M_headERKS6_ = comdat any

$_ZNSt10_Head_baseILm0EPNSt13__future_base13_State_baseV211_Make_readyELb0EE7_M_headERKS4_ = comdat any

$_ZNSt10__weak_ptrINSt13__future_base13_State_baseV2ELN9__gnu_cxx12_Lock_policyE2EEaSEOS4_ = comdat any

$_ZSt4moveIRSt12__weak_countILN9__gnu_cxx12_Lock_policyE2EEEONSt16remove_referenceIT_E4typeEOS6_ = comdat any

$_ZNSt12__weak_countILN9__gnu_cxx12_Lock_policyE2EEaSEOS2_ = comdat any

$_ZNSt16_Sp_counted_baseILN9__gnu_cxx12_Lock_policyE2EE15_M_weak_releaseEv = comdat any

$_ZNSt10unique_ptrINSt13__future_base13_State_baseV211_Make_readyESt14default_deleteIS2_EE11get_deleterEv = comdat any

$_ZNKSt14default_deleteINSt13__future_base13_State_baseV211_Make_readyEEclEPS2_ = comdat any

$_ZSt3getILm1EJPNSt13__future_base13_State_baseV211_Make_readyESt14default_deleteIS2_EEERNSt13tuple_elementIXT_ESt5tupleIJDpT0_EEE4typeERSA_ = comdat any

$_ZSt12__get_helperILm1ESt14default_deleteINSt13__future_base13_State_baseV211_Make_readyEEJEERT0_RSt11_Tuple_implIXT_EJS5_DpT1_EE = comdat any

$_ZNSt11_Tuple_implILm1EJSt14default_deleteINSt13__future_base13_State_baseV211_Make_readyEEEE7_M_headERS5_ = comdat any

$_ZNSt10_Head_baseILm1ESt14default_deleteINSt13__future_base13_State_baseV211_Make_readyEELb1EE7_M_headERS5_ = comdat any

$_ZNSt13__future_base13_State_baseV211_Make_readyD2Ev = comdat any

$_ZNSt10__weak_ptrINSt13__future_base13_State_baseV2ELN9__gnu_cxx12_Lock_policyE2EEC2EOS4_ = comdat any

$_ZNSt12__weak_countILN9__gnu_cxx12_Lock_policyE2EEC2EOS2_ = comdat any

$_ZNSt10__weak_ptrINSt13__future_base13_State_baseV2ELN9__gnu_cxx12_Lock_policyE2EED2Ev = comdat any

$_ZNSt12__weak_countILN9__gnu_cxx12_Lock_policyE2EED2Ev = comdat any

$_ZN9__gnu_cxx16__aligned_bufferINSt13__future_base11_Task_stateISt5_BindIFPFiPN4MARC15ThreadSafeQueueIiEEES7_EESaIiEFivEEEE6_M_ptrEv = comdat any

$_ZN9__gnu_cxx16__aligned_bufferINSt13__future_base11_Task_stateISt5_BindIFPFiPN4MARC15ThreadSafeQueueIiEEES7_EESaIiEFivEEEE7_M_addrEv = comdat any

$_ZNSt14_Sp_ebo_helperILi0ESaIiELb1EED2Ev = comdat any

$_ZNSt16allocator_traitsISaIiEE7destroyINSt13__future_base11_Task_stateISt5_BindIFPFiPN4MARC15ThreadSafeQueueIiEEES9_EES0_FivEEEEEvRS0_PT_ = comdat any

$_ZNSt23_Sp_counted_ptr_inplaceINSt13__future_base11_Task_stateISt5_BindIFPFiPN4MARC15ThreadSafeQueueIiEEES6_EESaIiEFivEEESB_LN9__gnu_cxx12_Lock_policyE2EE5_Impl8_M_allocEv = comdat any

$_ZN9__gnu_cxx13new_allocatorIiE7destroyINSt13__future_base11_Task_stateISt5_BindIFPFiPN4MARC15ThreadSafeQueueIiEEES9_EESaIiEFivEEEEEvPT_ = comdat any

$_ZNSt14_Sp_ebo_helperILi0ESaIiELb1EE6_S_getERS1_ = comdat any

$_ZNKSt9type_infoeqERKS_ = comdat any

$_ZNSt16allocator_traitsISaISt23_Sp_counted_ptr_inplaceINSt13__future_base11_Task_stateISt5_BindIFPFiPN4MARC15ThreadSafeQueueIiEEES7_EESaIiEFivEEESC_LN9__gnu_cxx12_Lock_policyE2EEEE10deallocateERSI_PSH_m = comdat any

$_ZN9__gnu_cxx13new_allocatorISt23_Sp_counted_ptr_inplaceINSt13__future_base11_Task_stateISt5_BindIFPFiPN4MARC15ThreadSafeQueueIiEEES8_EESaIiEFivEEESD_LNS_12_Lock_policyE2EEE10deallocateEPSH_m = comdat any

$_ZN9__gnu_cxx13new_allocatorISt23_Sp_counted_ptr_inplaceINSt13__future_base11_Task_stateISt5_BindIFPFiPN4MARC15ThreadSafeQueueIiEEES8_EESaIiEFivEEESD_LNS_12_Lock_policyE2EEED2Ev = comdat any

$_ZSt4moveIRSt10shared_ptrINSt13__future_base11_Task_stateISt5_BindIFPFiPN4MARC15ThreadSafeQueueIiEEES7_EESaIiEFivEEEEEONSt16remove_referenceIT_E4typeEOSI_ = comdat any

$_ZNSt12__shared_ptrINSt13__future_base16_Task_state_baseIFivEEELN9__gnu_cxx12_Lock_policyE2EEC2INS0_11_Task_stateISt5_BindIFPFiPN4MARC15ThreadSafeQueueIiEEESD_EESaIiES2_EEvEEOS_IT_LS5_2EE = comdat any

$_ZNSt14__shared_countILN9__gnu_cxx12_Lock_policyE2EEC2Ev = comdat any

$_ZNSt14__shared_countILN9__gnu_cxx12_Lock_policyE2EE7_M_swapERS2_ = comdat any

$_ZNSt12__shared_ptrINSt13__future_base11_Task_stateISt5_BindIFPFiPN4MARC15ThreadSafeQueueIiEEES6_EESaIiEFivEEELN9__gnu_cxx12_Lock_policyE2EED2Ev = comdat any

$_ZNSt14__shared_countILN9__gnu_cxx12_Lock_policyE2EED2Ev = comdat any

$_ZNSt16_Sp_counted_baseILN9__gnu_cxx12_Lock_policyE2EE10_M_releaseEv = comdat any

$_ZNSt10shared_ptrINSt13__future_base13_State_baseV2EEC2INS0_16_Task_state_baseIFivEEEvEERKS_IT_E = comdat any

$_ZNSt6futureIiEC2ERKSt10shared_ptrINSt13__future_base13_State_baseV2EE = comdat any

$_ZNSt10shared_ptrINSt13__future_base13_State_baseV2EED2Ev = comdat any

$_ZNSt12__shared_ptrINSt13__future_base13_State_baseV2ELN9__gnu_cxx12_Lock_policyE2EEC2INS0_16_Task_state_baseIFivEEEvEERKS_IT_LS3_2EE = comdat any

$_ZNSt14__shared_countILN9__gnu_cxx12_Lock_policyE2EEC2ERKS2_ = comdat any

$_ZNSt16_Sp_counted_baseILN9__gnu_cxx12_Lock_policyE2EE15_M_add_ref_copyEv = comdat any

$_ZNSt14__basic_futureIiEC2ERKSt10shared_ptrINSt13__future_base13_State_baseV2EE = comdat any

$_ZNSt10shared_ptrINSt13__future_base13_State_baseV2EEC2ERKS2_ = comdat any

$_ZNSt13__future_base13_State_baseV28_S_checkIS0_EEvRKSt10shared_ptrIT_E = comdat any

$_ZNKSt12__shared_ptrINSt13__future_base13_State_baseV2ELN9__gnu_cxx12_Lock_policyE2EEptEv = comdat any

$_ZNSt13__future_base13_State_baseV221_M_set_retrieved_flagEv = comdat any

$_ZNSt12__shared_ptrINSt13__future_base13_State_baseV2ELN9__gnu_cxx12_Lock_policyE2EEC2ERKS4_ = comdat any

$_ZNKSt12__shared_ptrINSt13__future_base13_State_baseV2ELN9__gnu_cxx12_Lock_policyE2EEcvbEv = comdat any

$_ZSt4moveIRSt6futureIiEEONSt16remove_referenceIT_E4typeEOS4_ = comdat any

$_ZNSt6futureIiEC2EOS0_ = comdat any

$_ZNSt14__basic_futureIiEC2EOSt6futureIiE = comdat any

$_ZSt4moveIRSt10shared_ptrINSt13__future_base13_State_baseV2EEEONSt16remove_referenceIT_E4typeEOS6_ = comdat any

$_ZNSt10shared_ptrINSt13__future_base13_State_baseV2EEC2EOS2_ = comdat any

$_ZNSt12__shared_ptrINSt13__future_base13_State_baseV2ELN9__gnu_cxx12_Lock_policyE2EEC2EOS4_ = comdat any

$_ZNSt14__basic_futureIiED2Ev = comdat any

$_ZN4MARC15ThreadSafeQueueISt10unique_ptrINS_11IThreadTaskESt14default_deleteIS2_EEE13internal_pushERS5_ = comdat any

$_ZNSt5queueISt10unique_ptrIN4MARC11IThreadTaskESt14default_deleteIS2_EESt5dequeIS5_SaIS5_EEE4pushEOS5_ = comdat any

$_ZNSt5dequeISt10unique_ptrIN4MARC11IThreadTaskESt14default_deleteIS2_EESaIS5_EE9push_backEOS5_ = comdat any

$_ZNSt5dequeISt10unique_ptrIN4MARC11IThreadTaskESt14default_deleteIS2_EESaIS5_EE12emplace_backIJS5_EEEvDpOT_ = comdat any

$_ZNSt16allocator_traitsISaISt10unique_ptrIN4MARC11IThreadTaskESt14default_deleteIS2_EEEE9constructIS5_JS5_EEEvRS6_PT_DpOT0_ = comdat any

$_ZSt7forwardISt10unique_ptrIN4MARC11IThreadTaskESt14default_deleteIS2_EEEOT_RNSt16remove_referenceIS6_E4typeE = comdat any

$_ZNSt5dequeISt10unique_ptrIN4MARC11IThreadTaskESt14default_deleteIS2_EESaIS5_EE16_M_push_back_auxIJS5_EEEvDpOT_ = comdat any

$_ZN9__gnu_cxx13new_allocatorISt10unique_ptrIN4MARC11IThreadTaskESt14default_deleteIS3_EEE9constructIS6_JS6_EEEvPT_DpOT0_ = comdat any

$_ZNSt10unique_ptrIN4MARC11IThreadTaskESt14default_deleteIS1_EEC2EOS4_ = comdat any

$_ZNSt5tupleIJPN4MARC11IThreadTaskESt14default_deleteIS1_EEEC2IS2_S4_Lb1EEEOT_OT0_ = comdat any

$_ZSt7forwardIPN4MARC11IThreadTaskEEOT_RNSt16remove_referenceIS3_E4typeE = comdat any

$_ZNSt11_Tuple_implILm0EJPN4MARC11IThreadTaskESt14default_deleteIS1_EEEC2IS2_JS4_EvEEOT_DpOT0_ = comdat any

$_ZNSt11_Tuple_implILm1EJSt14default_deleteIN4MARC11IThreadTaskEEEEC2IS3_EEOT_ = comdat any

$_ZNSt10_Head_baseILm0EPN4MARC11IThreadTaskELb0EEC2IS2_EEOT_ = comdat any

$_ZNSt10_Head_baseILm1ESt14default_deleteIN4MARC11IThreadTaskEELb1EEC2IS3_EEOT_ = comdat any

$_ZNSt5dequeISt10unique_ptrIN4MARC11IThreadTaskESt14default_deleteIS2_EESaIS5_EE22_M_reserve_map_at_backEm = comdat any

$_ZNSt5dequeISt10unique_ptrIN4MARC11IThreadTaskESt14default_deleteIS2_EESaIS5_EE17_M_reallocate_mapEmb = comdat any

$_ZSt4copyIPPSt10unique_ptrIN4MARC11IThreadTaskESt14default_deleteIS2_EES7_ET0_T_S9_S8_ = comdat any

$_ZSt13copy_backwardIPPSt10unique_ptrIN4MARC11IThreadTaskESt14default_deleteIS2_EES7_ET0_T_S9_S8_ = comdat any

$_ZSt14__copy_move_a2ILb0EPPSt10unique_ptrIN4MARC11IThreadTaskESt14default_deleteIS2_EES7_ET1_T0_S9_S8_ = comdat any

$_ZSt12__miter_baseIPPSt10unique_ptrIN4MARC11IThreadTaskESt14default_deleteIS2_EEET_S8_ = comdat any

$_ZSt13__copy_move_aILb0EPPSt10unique_ptrIN4MARC11IThreadTaskESt14default_deleteIS2_EES7_ET1_T0_S9_S8_ = comdat any

$_ZSt12__niter_baseIPPSt10unique_ptrIN4MARC11IThreadTaskESt14default_deleteIS2_EEET_S8_ = comdat any

$_ZNSt11__copy_moveILb0ELb1ESt26random_access_iterator_tagE8__copy_mIPSt10unique_ptrIN4MARC11IThreadTaskESt14default_deleteIS5_EEEEPT_PKSA_SD_SB_ = comdat any

$_ZSt23__copy_move_backward_a2ILb0EPPSt10unique_ptrIN4MARC11IThreadTaskESt14default_deleteIS2_EES7_ET1_T0_S9_S8_ = comdat any

$_ZSt22__copy_move_backward_aILb0EPPSt10unique_ptrIN4MARC11IThreadTaskESt14default_deleteIS2_EES7_ET1_T0_S9_S8_ = comdat any

$_ZNSt20__copy_move_backwardILb0ELb1ESt26random_access_iterator_tagE13__copy_move_bIPSt10unique_ptrIN4MARC11IThreadTaskESt14default_deleteIS5_EEEEPT_PKSA_SD_SB_ = comdat any

$_ZSt7forwardISt13packaged_taskIFivEEEOT_RNSt16remove_referenceIS3_E4typeE = comdat any

$_ZN4MARC10ThreadTaskISt13packaged_taskIFivEEEC2EOS3_ = comdat any

$_ZNSt10unique_ptrIN4MARC10ThreadTaskISt13packaged_taskIFivEEEESt14default_deleteIS5_EEC2EPS5_ = comdat any

$_ZN4MARC11IThreadTaskC2Ev = comdat any

$_ZNSt13packaged_taskIFivEEC2EOS1_ = comdat any

$_ZN4MARC10ThreadTaskISt13packaged_taskIFivEEE7executeEv = comdat any

$_ZN4MARC10ThreadTaskISt13packaged_taskIFivEEED2Ev = comdat any

$_ZN4MARC10ThreadTaskISt13packaged_taskIFivEEED0Ev = comdat any

$_ZN4MARC11IThreadTaskD2Ev = comdat any

$_ZN4MARC11IThreadTaskD0Ev = comdat any

$_ZNSt10shared_ptrINSt13__future_base16_Task_state_baseIFivEEEEC2Ev = comdat any

$_ZNSt13packaged_taskIFivEE4swapERS1_ = comdat any

$_ZNSt12__shared_ptrINSt13__future_base16_Task_state_baseIFivEEELN9__gnu_cxx12_Lock_policyE2EEC2Ev = comdat any

$_ZNSt12__shared_ptrINSt13__future_base16_Task_state_baseIFivEEELN9__gnu_cxx12_Lock_policyE2EE4swapERS6_ = comdat any

$_ZSt4swapIPNSt13__future_base16_Task_state_baseIFivEEEENSt9enable_ifIXsr6__and_ISt21is_move_constructibleIT_ESt18is_move_assignableIS7_EEE5valueEvE4typeERS7_SD_ = comdat any

$_ZSt4moveIRPNSt13__future_base16_Task_state_baseIFivEEEEONSt16remove_referenceIT_E4typeEOS7_ = comdat any

$_ZNSt13packaged_taskIFivEEclEv = comdat any

$_ZNSt13__future_base13_State_baseV28_S_checkINS_16_Task_state_baseIFivEEEEEvRKSt10shared_ptrIT_E = comdat any

$_ZNKSt12__shared_ptrINSt13__future_base16_Task_state_baseIFivEEELN9__gnu_cxx12_Lock_policyE2EEptEv = comdat any

$_ZNKSt12__shared_ptrINSt13__future_base16_Task_state_baseIFivEEELN9__gnu_cxx12_Lock_policyE2EEcvbEv = comdat any

$_ZNSt5tupleIJPN4MARC10ThreadTaskISt13packaged_taskIFivEEEESt14default_deleteIS5_EEEC2IS6_S8_Lb1EEEv = comdat any

$_ZSt3getILm0EJPN4MARC10ThreadTaskISt13packaged_taskIFivEEEESt14default_deleteIS5_EEERNSt13tuple_elementIXT_ESt5tupleIJDpT0_EEE4typeERSD_ = comdat any

$_ZNSt11_Tuple_implILm0EJPN4MARC10ThreadTaskISt13packaged_taskIFivEEEESt14default_deleteIS5_EEEC2Ev = comdat any

$_ZNSt11_Tuple_implILm1EJSt14default_deleteIN4MARC10ThreadTaskISt13packaged_taskIFivEEEEEEEC2Ev = comdat any

$_ZNSt10_Head_baseILm0EPN4MARC10ThreadTaskISt13packaged_taskIFivEEEELb0EEC2Ev = comdat any

$_ZNSt10_Head_baseILm1ESt14default_deleteIN4MARC10ThreadTaskISt13packaged_taskIFivEEEEELb1EEC2Ev = comdat any

$_ZSt12__get_helperILm0EPN4MARC10ThreadTaskISt13packaged_taskIFivEEEEJSt14default_deleteIS5_EEERT0_RSt11_Tuple_implIXT_EJS9_DpT1_EE = comdat any

$_ZNSt11_Tuple_implILm0EJPN4MARC10ThreadTaskISt13packaged_taskIFivEEEESt14default_deleteIS5_EEE7_M_headERS9_ = comdat any

$_ZNSt10_Head_baseILm0EPN4MARC10ThreadTaskISt13packaged_taskIFivEEEELb0EE7_M_headERS7_ = comdat any

$_ZNSt10unique_ptrIN4MARC10ThreadTaskISt13packaged_taskIFivEEEESt14default_deleteIS5_EE7releaseEv = comdat any

$_ZSt7forwardISt14default_deleteIN4MARC10ThreadTaskISt13packaged_taskIFivEEEEEEOT_RNSt16remove_referenceIS8_E4typeE = comdat any

$_ZNSt10unique_ptrIN4MARC10ThreadTaskISt13packaged_taskIFivEEEESt14default_deleteIS5_EE11get_deleterEv = comdat any

$_ZNSt5tupleIJPN4MARC11IThreadTaskESt14default_deleteIS1_EEEC2IPNS0_10ThreadTaskISt13packaged_taskIFivEEEES3_ISB_ELb1EEEOT_OT0_ = comdat any

$_ZNKSt10unique_ptrIN4MARC10ThreadTaskISt13packaged_taskIFivEEEESt14default_deleteIS5_EE3getEv = comdat any

$_ZSt3getILm0EJPN4MARC10ThreadTaskISt13packaged_taskIFivEEEESt14default_deleteIS5_EEERKNSt13tuple_elementIXT_ESt5tupleIJDpT0_EEE4typeERKSD_ = comdat any

$_ZSt12__get_helperILm0EPN4MARC10ThreadTaskISt13packaged_taskIFivEEEEJSt14default_deleteIS5_EEERKT0_RKSt11_Tuple_implIXT_EJS9_DpT1_EE = comdat any

$_ZNSt11_Tuple_implILm0EJPN4MARC10ThreadTaskISt13packaged_taskIFivEEEESt14default_deleteIS5_EEE7_M_headERKS9_ = comdat any

$_ZNSt10_Head_baseILm0EPN4MARC10ThreadTaskISt13packaged_taskIFivEEEELb0EE7_M_headERKS7_ = comdat any

$_ZSt3getILm1EJPN4MARC10ThreadTaskISt13packaged_taskIFivEEEESt14default_deleteIS5_EEERNSt13tuple_elementIXT_ESt5tupleIJDpT0_EEE4typeERSD_ = comdat any

$_ZSt12__get_helperILm1ESt14default_deleteIN4MARC10ThreadTaskISt13packaged_taskIFivEEEEEJEERT0_RSt11_Tuple_implIXT_EJS8_DpT1_EE = comdat any

$_ZNSt11_Tuple_implILm1EJSt14default_deleteIN4MARC10ThreadTaskISt13packaged_taskIFivEEEEEEE7_M_headERS8_ = comdat any

$_ZNSt10_Head_baseILm1ESt14default_deleteIN4MARC10ThreadTaskISt13packaged_taskIFivEEEEELb1EE7_M_headERS8_ = comdat any

$_ZSt7forwardIPN4MARC10ThreadTaskISt13packaged_taskIFivEEEEEOT_RNSt16remove_referenceIS7_E4typeE = comdat any

$_ZNSt11_Tuple_implILm0EJPN4MARC11IThreadTaskESt14default_deleteIS1_EEEC2IPNS0_10ThreadTaskISt13packaged_taskIFivEEEEJS3_ISB_EEvEEOT_DpOT0_ = comdat any

$_ZNSt11_Tuple_implILm1EJSt14default_deleteIN4MARC11IThreadTaskEEEEC2IS0_INS1_10ThreadTaskISt13packaged_taskIFivEEEEEEEOT_ = comdat any

$_ZNSt10_Head_baseILm0EPN4MARC11IThreadTaskELb0EEC2IPNS0_10ThreadTaskISt13packaged_taskIFivEEEEEEOT_ = comdat any

$_ZNSt10_Head_baseILm1ESt14default_deleteIN4MARC11IThreadTaskEELb1EEC2IS0_INS1_10ThreadTaskISt13packaged_taskIFivEEEEEEEOT_ = comdat any

$_ZNSt14default_deleteIN4MARC11IThreadTaskEEC2INS0_10ThreadTaskISt13packaged_taskIFivEEEEvEERKS_IT_E = comdat any

$_ZNKSt14default_deleteIN4MARC10ThreadTaskISt13packaged_taskIFivEEEEEclEPS5_ = comdat any

$_ZNKSt12__shared_ptrINSt13__future_base16_Task_state_baseIFivEEELN9__gnu_cxx12_Lock_policyE2EE6uniqueEv = comdat any

$_ZNSt13__future_base13_State_baseV216_M_break_promiseESt10unique_ptrINS_12_Result_baseENS2_8_DeleterEE = comdat any

$_ZNSt10shared_ptrINSt13__future_base16_Task_state_baseIFivEEEED2Ev = comdat any

$_ZNKSt14__shared_countILN9__gnu_cxx12_Lock_policyE2EE9_M_uniqueEv = comdat any

$_ZNKSt14__shared_countILN9__gnu_cxx12_Lock_policyE2EE16_M_get_use_countEv = comdat any

$_ZNKSt16_Sp_counted_baseILN9__gnu_cxx12_Lock_policyE2EE16_M_get_use_countEv = comdat any

$_ZNKSt10unique_ptrINSt13__future_base12_Result_baseENS1_8_DeleterEEcvbEv = comdat any

$_ZSt15make_error_codeSt11future_errc = comdat any

$_ZSt18make_exception_ptrISt12future_errorENSt15__exception_ptr13exception_ptrET_ = comdat any

$_ZNSt12future_errorC2ESt10error_code = comdat any

$_ZNKSt10unique_ptrINSt13__future_base12_Result_baseENS1_8_DeleterEEptEv = comdat any

$_ZNKSt10unique_ptrINSt13__future_base12_Result_baseENS1_8_DeleterEE3getEv = comdat any

$_ZSt3getILm0EJPNSt13__future_base12_Result_baseENS1_8_DeleterEEERKNSt13tuple_elementIXT_ESt5tupleIJDpT0_EEE4typeERKS8_ = comdat any

$_ZSt12__get_helperILm0EPNSt13__future_base12_Result_baseEJNS1_8_DeleterEEERKT0_RKSt11_Tuple_implIXT_EJS4_DpT1_EE = comdat any

$_ZNSt11_Tuple_implILm0EJPNSt13__future_base12_Result_baseENS1_8_DeleterEEE7_M_headERKS4_ = comdat any

$_ZNSt10_Head_baseILm0EPNSt13__future_base12_Result_baseELb0EE7_M_headERKS3_ = comdat any

$_ZNSt10error_codeC2EiRKNSt3_V214error_categoryE = comdat any

$_ZNSt12future_errorC2ERKS_ = comdat any

$_ZNSt11logic_errorC2ERKS_ = comdat any

$_ZNSt9exceptionC2ERKS_ = comdat any

$_ZStplIcSt11char_traitsIcESaIcEESbIT_T0_T1_EPKS3_OS6_ = comdat any

$_ZNKSt10error_code7messageEv = comdat any

$_ZSt4moveIRSsEONSt16remove_referenceIT_E4typeEOS2_ = comdat any

$_ZNKSt10error_code8categoryEv = comdat any

$_ZNKSt10error_code5valueEv = comdat any

$_ZNSt12__shared_ptrINSt13__future_base16_Task_state_baseIFivEEELN9__gnu_cxx12_Lock_policyE2EED2Ev = comdat any

$_ZNSt6futureIiE3getEv = comdat any

$_ZNSt14__basic_futureIiE6_ResetC2ERS0_ = comdat any

$_ZNKSt14__basic_futureIiE13_M_get_resultEv = comdat any

$_ZNSt14__basic_futureIiE6_ResetD2Ev = comdat any

$_ZNSt13__future_base13_State_baseV24waitEv = comdat any

$_ZNSt15__exception_ptr13exception_ptrC2EDn = comdat any

$_ZNKSt10unique_ptrINSt13__future_base12_Result_baseENS1_8_DeleterEEdeEv = comdat any

$_ZNSt23__atomic_futex_unsignedILj2147483648EE16_M_load_and_testEjjbSt12memory_order = comdat any

$_ZNSt23__atomic_futex_unsignedILj2147483648EE22_M_load_and_test_untilEjjbSt12memory_orderbNSt6chrono8durationIlSt5ratioILl1ELl1EEEENS3_IlS4_ILl1ELl1000000000EEEE = comdat any

$_ZNSt12__shared_ptrINSt13__future_base13_State_baseV2ELN9__gnu_cxx12_Lock_policyE2EE5resetEv = comdat any

$_ZNSt12__shared_ptrINSt13__future_base13_State_baseV2ELN9__gnu_cxx12_Lock_policyE2EEC2Ev = comdat any

$_ZNSt12__shared_ptrINSt13__future_base13_State_baseV2ELN9__gnu_cxx12_Lock_policyE2EE4swapERS4_ = comdat any

$_ZNSt12__shared_ptrINSt13__future_base13_State_baseV2ELN9__gnu_cxx12_Lock_policyE2EED2Ev = comdat any

$_ZSt4swapIPNSt13__future_base13_State_baseV2EENSt9enable_ifIXsr6__and_ISt21is_move_constructibleIT_ESt18is_move_assignableIS5_EEE5valueEvE4typeERS5_SB_ = comdat any

$_ZSt4moveIRPNSt13__future_base13_State_baseV2EEONSt16remove_referenceIT_E4typeEOS5_ = comdat any

$_ZN4MARC15ThreadSafeQueueIiE13internal_pushERi = comdat any

$_ZNSt5queueIiSt5dequeIiSaIiEEE4pushEOi = comdat any

$_ZNSt5dequeIiSaIiEE9push_backEOi = comdat any

$_ZNSt5dequeIiSaIiEE12emplace_backIJiEEEvDpOT_ = comdat any

$_ZNSt16allocator_traitsISaIiEE9constructIiJiEEEvRS0_PT_DpOT0_ = comdat any

$_ZSt7forwardIiEOT_RNSt16remove_referenceIS0_E4typeE = comdat any

$_ZNSt5dequeIiSaIiEE16_M_push_back_auxIJiEEEvDpOT_ = comdat any

$_ZN9__gnu_cxx13new_allocatorIiE9constructIiJiEEEvPT_DpOT0_ = comdat any

$_ZNSt5dequeIiSaIiEE22_M_reserve_map_at_backEm = comdat any

$_ZNSt5dequeIiSaIiEE17_M_reallocate_mapEmb = comdat any

$_ZSt4copyIPPiS1_ET0_T_S3_S2_ = comdat any

$_ZSt13copy_backwardIPPiS1_ET0_T_S3_S2_ = comdat any

$_ZSt14__copy_move_a2ILb0EPPiS1_ET1_T0_S3_S2_ = comdat any

$_ZSt12__miter_baseIPPiET_S2_ = comdat any

$_ZSt13__copy_move_aILb0EPPiS1_ET1_T0_S3_S2_ = comdat any

$_ZSt12__niter_baseIPPiET_S2_ = comdat any

$_ZNSt11__copy_moveILb0ELb1ESt26random_access_iterator_tagE8__copy_mIPiEEPT_PKS4_S7_S5_ = comdat any

$_ZSt23__copy_move_backward_a2ILb0EPPiS1_ET1_T0_S3_S2_ = comdat any

$_ZSt22__copy_move_backward_aILb0EPPiS1_ET1_T0_S3_S2_ = comdat any

$_ZNSt20__copy_move_backwardILb0ELb1ESt26random_access_iterator_tagE13__copy_move_bIPiEEPT_PKS4_S7_S5_ = comdat any

$_ZNKSt5queueIiSt5dequeIiSaIiEEE5emptyEv = comdat any

$_ZNSt18condition_variable4waitIZN4MARC15ThreadSafeQueueIiE7waitPopERiEUlvE_EEvRSt11unique_lockISt5mutexET_ = comdat any

$_ZN4MARC15ThreadSafeQueueIiE12internal_popERi = comdat any

$_ZNKSt5dequeIiSaIiEE5emptyEv = comdat any

$_ZSteqIiRiPiEbRKSt15_Deque_iteratorIT_T0_T1_ES8_ = comdat any

$_ZZN4MARC15ThreadSafeQueueIiE7waitPopERiENKUlvE_clEv = comdat any

$_ZNSt5queueIiSt5dequeIiSaIiEEE5frontEv = comdat any

$_ZNSt5queueIiSt5dequeIiSaIiEEE3popEv = comdat any

$_ZNSt5dequeIiSaIiEE5frontEv = comdat any

$_ZNKSt15_Deque_iteratorIiRiPiEdeEv = comdat any

$_ZNSt5dequeIiSaIiEE9pop_frontEv = comdat any

$_ZNSt16allocator_traitsISaIiEE7destroyIiEEvRS0_PT_ = comdat any

$_ZNSt5dequeIiSaIiEE16_M_pop_front_auxEv = comdat any

$_ZN9__gnu_cxx13new_allocatorIiE7destroyIiEEvPT_ = comdat any

$_ZN4MARC15ThreadSafeQueueIiE10invalidateEv = comdat any

$_ZNSt5queueIiSt5dequeIiSaIiEEED2Ev = comdat any

$_ZNKSt14__basic_futureIiE5validEv = comdat any

$_ZTVNSt6thread11_State_implISt12_Bind_simpleIFSt7_Mem_fnIMN4MARC10ThreadPoolEFvPSt6atomicIbEEEPS4_S7_EEEE = comdat any

$_ZTSNSt6thread11_State_implISt12_Bind_simpleIFSt7_Mem_fnIMN4MARC10ThreadPoolEFvPSt6atomicIbEEEPS4_S7_EEEE = comdat any

$_ZTINSt6thread11_State_implISt12_Bind_simpleIFSt7_Mem_fnIMN4MARC10ThreadPoolEFvPSt6atomicIbEEEPS4_S7_EEEE = comdat any

$_ZTSSt19_Sp_make_shared_tag = comdat any

$_ZTISt19_Sp_make_shared_tag = comdat any

$_ZTVSt23_Sp_counted_ptr_inplaceINSt13__future_base11_Task_stateISt5_BindIFPFiPN4MARC15ThreadSafeQueueIiEEES6_EESaIiEFivEEESB_LN9__gnu_cxx12_Lock_policyE2EE = comdat any

$_ZTSSt23_Sp_counted_ptr_inplaceINSt13__future_base11_Task_stateISt5_BindIFPFiPN4MARC15ThreadSafeQueueIiEEES6_EESaIiEFivEEESB_LN9__gnu_cxx12_Lock_policyE2EE = comdat any

$_ZTSSt16_Sp_counted_baseILN9__gnu_cxx12_Lock_policyE2EE = comdat any

$_ZTSSt11_Mutex_baseILN9__gnu_cxx12_Lock_policyE2EE = comdat any

$_ZTISt11_Mutex_baseILN9__gnu_cxx12_Lock_policyE2EE = comdat any

$_ZTISt16_Sp_counted_baseILN9__gnu_cxx12_Lock_policyE2EE = comdat any

$_ZTISt23_Sp_counted_ptr_inplaceINSt13__future_base11_Task_stateISt5_BindIFPFiPN4MARC15ThreadSafeQueueIiEEES6_EESaIiEFivEEESB_LN9__gnu_cxx12_Lock_policyE2EE = comdat any

$_ZTVSt16_Sp_counted_baseILN9__gnu_cxx12_Lock_policyE2EE = comdat any

$_ZTVNSt13__future_base11_Task_stateISt5_BindIFPFiPN4MARC15ThreadSafeQueueIiEEES5_EESaIiEFivEEE = comdat any

$_ZTSNSt13__future_base11_Task_stateISt5_BindIFPFiPN4MARC15ThreadSafeQueueIiEEES5_EESaIiEFivEEE = comdat any

$_ZTSNSt13__future_base16_Task_state_baseIFivEEE = comdat any

$_ZTSNSt13__future_base13_State_baseV2E = comdat any

$_ZTINSt13__future_base13_State_baseV2E = comdat any

$_ZTINSt13__future_base16_Task_state_baseIFivEEE = comdat any

$_ZTINSt13__future_base11_Task_stateISt5_BindIFPFiPN4MARC15ThreadSafeQueueIiEEES5_EESaIiEFivEEE = comdat any

$_ZTVNSt13__future_base16_Task_state_baseIFivEEE = comdat any

$_ZTVNSt13__future_base13_State_baseV2E = comdat any

$_ZTVNSt13__future_base7_ResultIiEE = comdat any

$_ZTSNSt13__future_base7_ResultIiEE = comdat any

$_ZTINSt13__future_base7_ResultIiEE = comdat any

$_ZTSNSt13__future_base12_Task_setterISt10unique_ptrINS_7_ResultIiEENS_12_Result_base8_DeleterEESt12_Bind_simpleIFSt17reference_wrapperISt5_BindIFPFiPN4MARC15ThreadSafeQueueIiEEESD_EEEvEEiEE = comdat any

$_ZTINSt13__future_base12_Task_setterISt10unique_ptrINS_7_ResultIiEENS_12_Result_base8_DeleterEESt12_Bind_simpleIFSt17reference_wrapperISt5_BindIFPFiPN4MARC15ThreadSafeQueueIiEEESD_EEEvEEiEE = comdat any

$_ZTVN4MARC10ThreadTaskISt13packaged_taskIFivEEEE = comdat any

$_ZTSN4MARC10ThreadTaskISt13packaged_taskIFivEEEE = comdat any

$_ZTSN4MARC11IThreadTaskE = comdat any

$_ZTIN4MARC11IThreadTaskE = comdat any

$_ZTIN4MARC10ThreadTaskISt13packaged_taskIFivEEEE = comdat any

$_ZTVN4MARC11IThreadTaskE = comdat any

@_ZStL8__ioinit = internal global %"class.std::ios_base::Init" zeroinitializer, align 1
@__dso_handle = external hidden global i8
@_ZSt4cout = external global %"class.std::basic_ostream", align 8
@.str = private unnamed_addr constant [4 x i8] c"S: \00", align 1
@.str.1 = private unnamed_addr constant [6 x i8] c", T: \00", align 1
@.str.2 = private unnamed_addr constant [2 x i8] c"\0A\00", align 1
@_ZTVNSt6thread11_State_implISt12_Bind_simpleIFSt7_Mem_fnIMN4MARC10ThreadPoolEFvPSt6atomicIbEEEPS4_S7_EEEE = linkonce_odr unnamed_addr constant { [5 x i8*] } { [5 x i8*] [i8* null, i8* bitcast ({ i8*, i8*, i8* }* @_ZTINSt6thread11_State_implISt12_Bind_simpleIFSt7_Mem_fnIMN4MARC10ThreadPoolEFvPSt6atomicIbEEEPS4_S7_EEEE to i8*), i8* bitcast (void (%"struct.std::thread::_State_impl"*)* @_ZNSt6thread11_State_implISt12_Bind_simpleIFSt7_Mem_fnIMN4MARC10ThreadPoolEFvPSt6atomicIbEEEPS4_S7_EEED2Ev to i8*), i8* bitcast (void (%"struct.std::thread::_State_impl"*)* @_ZNSt6thread11_State_implISt12_Bind_simpleIFSt7_Mem_fnIMN4MARC10ThreadPoolEFvPSt6atomicIbEEEPS4_S7_EEED0Ev to i8*), i8* bitcast (void (%"struct.std::thread::_State_impl"*)* @_ZNSt6thread11_State_implISt12_Bind_simpleIFSt7_Mem_fnIMN4MARC10ThreadPoolEFvPSt6atomicIbEEEPS4_S7_EEE6_M_runEv to i8*)] }, comdat, align 8
@_ZTVN10__cxxabiv120__si_class_type_infoE = external global i8*
@_ZTSNSt6thread11_State_implISt12_Bind_simpleIFSt7_Mem_fnIMN4MARC10ThreadPoolEFvPSt6atomicIbEEEPS4_S7_EEEE = linkonce_odr constant [102 x i8] c"NSt6thread11_State_implISt12_Bind_simpleIFSt7_Mem_fnIMN4MARC10ThreadPoolEFvPSt6atomicIbEEEPS4_S7_EEEE\00", comdat
@_ZTINSt6thread6_StateE = external constant i8*
@_ZTINSt6thread11_State_implISt12_Bind_simpleIFSt7_Mem_fnIMN4MARC10ThreadPoolEFvPSt6atomicIbEEEPS4_S7_EEEE = linkonce_odr constant { i8*, i8*, i8* } { i8* bitcast (i8** getelementptr inbounds (i8*, i8** @_ZTVN10__cxxabiv120__si_class_type_infoE, i64 2) to i8*), i8* getelementptr inbounds ([102 x i8], [102 x i8]* @_ZTSNSt6thread11_State_implISt12_Bind_simpleIFSt7_Mem_fnIMN4MARC10ThreadPoolEFvPSt6atomicIbEEEPS4_S7_EEEE, i32 0, i32 0), i8* bitcast (i8** @_ZTINSt6thread6_StateE to i8*) }, comdat
@_ZTVNSt6thread6_StateE = external unnamed_addr constant { [5 x i8*] }
@.str.3 = private unnamed_addr constant [28 x i8] c"vector::_M_emplace_back_aux\00", align 1
@_ZZL18__gthread_active_pvE20__gthread_active_ptr = internal constant i8* bitcast (i32 (i32*, void (i8*)*)* @__pthread_key_create to i8*), align 8
@_ZStL13allocator_arg = internal constant %"struct.std::allocator_arg_t" undef, align 1
@_ZTVN10__cxxabiv117__class_type_infoE = external global i8*
@_ZTSSt19_Sp_make_shared_tag = linkonce_odr constant [24 x i8] c"St19_Sp_make_shared_tag\00", comdat
@_ZTISt19_Sp_make_shared_tag = linkonce_odr constant { i8*, i8* } { i8* bitcast (i8** getelementptr inbounds (i8*, i8** @_ZTVN10__cxxabiv117__class_type_infoE, i64 2) to i8*), i8* getelementptr inbounds ([24 x i8], [24 x i8]* @_ZTSSt19_Sp_make_shared_tag, i32 0, i32 0) }, comdat
@_ZTVSt23_Sp_counted_ptr_inplaceINSt13__future_base11_Task_stateISt5_BindIFPFiPN4MARC15ThreadSafeQueueIiEEES6_EESaIiEFivEEESB_LN9__gnu_cxx12_Lock_policyE2EE = linkonce_odr unnamed_addr constant { [7 x i8*] } { [7 x i8*] [i8* null, i8* bitcast ({ i8*, i8*, i8* }* @_ZTISt23_Sp_counted_ptr_inplaceINSt13__future_base11_Task_stateISt5_BindIFPFiPN4MARC15ThreadSafeQueueIiEEES6_EESaIiEFivEEESB_LN9__gnu_cxx12_Lock_policyE2EE to i8*), i8* bitcast (void (%"class.std::_Sp_counted_ptr_inplace"*)* @_ZNSt23_Sp_counted_ptr_inplaceINSt13__future_base11_Task_stateISt5_BindIFPFiPN4MARC15ThreadSafeQueueIiEEES6_EESaIiEFivEEESB_LN9__gnu_cxx12_Lock_policyE2EED2Ev to i8*), i8* bitcast (void (%"class.std::_Sp_counted_ptr_inplace"*)* @_ZNSt23_Sp_counted_ptr_inplaceINSt13__future_base11_Task_stateISt5_BindIFPFiPN4MARC15ThreadSafeQueueIiEEES6_EESaIiEFivEEESB_LN9__gnu_cxx12_Lock_policyE2EED0Ev to i8*), i8* bitcast (void (%"class.std::_Sp_counted_ptr_inplace"*)* @_ZNSt23_Sp_counted_ptr_inplaceINSt13__future_base11_Task_stateISt5_BindIFPFiPN4MARC15ThreadSafeQueueIiEEES6_EESaIiEFivEEESB_LN9__gnu_cxx12_Lock_policyE2EE10_M_disposeEv to i8*), i8* bitcast (void (%"class.std::_Sp_counted_ptr_inplace"*)* @_ZNSt23_Sp_counted_ptr_inplaceINSt13__future_base11_Task_stateISt5_BindIFPFiPN4MARC15ThreadSafeQueueIiEEES6_EESaIiEFivEEESB_LN9__gnu_cxx12_Lock_policyE2EE10_M_destroyEv to i8*), i8* bitcast (i8* (%"class.std::_Sp_counted_ptr_inplace"*, %"class.std::type_info"*)* @_ZNSt23_Sp_counted_ptr_inplaceINSt13__future_base11_Task_stateISt5_BindIFPFiPN4MARC15ThreadSafeQueueIiEEES6_EESaIiEFivEEESB_LN9__gnu_cxx12_Lock_policyE2EE14_M_get_deleterERKSt9type_info to i8*)] }, comdat, align 8
@_ZTSSt23_Sp_counted_ptr_inplaceINSt13__future_base11_Task_stateISt5_BindIFPFiPN4MARC15ThreadSafeQueueIiEEES6_EESaIiEFivEEESB_LN9__gnu_cxx12_Lock_policyE2EE = linkonce_odr constant [152 x i8] c"St23_Sp_counted_ptr_inplaceINSt13__future_base11_Task_stateISt5_BindIFPFiPN4MARC15ThreadSafeQueueIiEEES6_EESaIiEFivEEESB_LN9__gnu_cxx12_Lock_policyE2EE\00", comdat
@_ZTSSt16_Sp_counted_baseILN9__gnu_cxx12_Lock_policyE2EE = linkonce_odr constant [52 x i8] c"St16_Sp_counted_baseILN9__gnu_cxx12_Lock_policyE2EE\00", comdat
@_ZTSSt11_Mutex_baseILN9__gnu_cxx12_Lock_policyE2EE = linkonce_odr constant [47 x i8] c"St11_Mutex_baseILN9__gnu_cxx12_Lock_policyE2EE\00", comdat
@_ZTISt11_Mutex_baseILN9__gnu_cxx12_Lock_policyE2EE = linkonce_odr constant { i8*, i8* } { i8* bitcast (i8** getelementptr inbounds (i8*, i8** @_ZTVN10__cxxabiv117__class_type_infoE, i64 2) to i8*), i8* getelementptr inbounds ([47 x i8], [47 x i8]* @_ZTSSt11_Mutex_baseILN9__gnu_cxx12_Lock_policyE2EE, i32 0, i32 0) }, comdat
@_ZTISt16_Sp_counted_baseILN9__gnu_cxx12_Lock_policyE2EE = linkonce_odr constant { i8*, i8*, i8* } { i8* bitcast (i8** getelementptr inbounds (i8*, i8** @_ZTVN10__cxxabiv120__si_class_type_infoE, i64 2) to i8*), i8* getelementptr inbounds ([52 x i8], [52 x i8]* @_ZTSSt16_Sp_counted_baseILN9__gnu_cxx12_Lock_policyE2EE, i32 0, i32 0), i8* bitcast ({ i8*, i8* }* @_ZTISt11_Mutex_baseILN9__gnu_cxx12_Lock_policyE2EE to i8*) }, comdat
@_ZTISt23_Sp_counted_ptr_inplaceINSt13__future_base11_Task_stateISt5_BindIFPFiPN4MARC15ThreadSafeQueueIiEEES6_EESaIiEFivEEESB_LN9__gnu_cxx12_Lock_policyE2EE = linkonce_odr constant { i8*, i8*, i8* } { i8* bitcast (i8** getelementptr inbounds (i8*, i8** @_ZTVN10__cxxabiv120__si_class_type_infoE, i64 2) to i8*), i8* getelementptr inbounds ([152 x i8], [152 x i8]* @_ZTSSt23_Sp_counted_ptr_inplaceINSt13__future_base11_Task_stateISt5_BindIFPFiPN4MARC15ThreadSafeQueueIiEEES6_EESaIiEFivEEESB_LN9__gnu_cxx12_Lock_policyE2EE, i32 0, i32 0), i8* bitcast ({ i8*, i8*, i8* }* @_ZTISt16_Sp_counted_baseILN9__gnu_cxx12_Lock_policyE2EE to i8*) }, comdat
@_ZTVSt16_Sp_counted_baseILN9__gnu_cxx12_Lock_policyE2EE = linkonce_odr unnamed_addr constant { [7 x i8*] } { [7 x i8*] [i8* null, i8* bitcast ({ i8*, i8*, i8* }* @_ZTISt16_Sp_counted_baseILN9__gnu_cxx12_Lock_policyE2EE to i8*), i8* bitcast (void (%"class.std::_Sp_counted_base"*)* @_ZNSt16_Sp_counted_baseILN9__gnu_cxx12_Lock_policyE2EED2Ev to i8*), i8* bitcast (void (%"class.std::_Sp_counted_base"*)* @_ZNSt16_Sp_counted_baseILN9__gnu_cxx12_Lock_policyE2EED0Ev to i8*), i8* bitcast (void ()* @__cxa_pure_virtual to i8*), i8* bitcast (void (%"class.std::_Sp_counted_base"*)* @_ZNSt16_Sp_counted_baseILN9__gnu_cxx12_Lock_policyE2EE10_M_destroyEv to i8*), i8* bitcast (void ()* @__cxa_pure_virtual to i8*)] }, comdat, align 8
@_ZTVNSt13__future_base11_Task_stateISt5_BindIFPFiPN4MARC15ThreadSafeQueueIiEEES5_EESaIiEFivEEE = linkonce_odr unnamed_addr constant { [9 x i8*] } { [9 x i8*] [i8* null, i8* bitcast ({ i8*, i8*, i8* }* @_ZTINSt13__future_base11_Task_stateISt5_BindIFPFiPN4MARC15ThreadSafeQueueIiEEES5_EESaIiEFivEEE to i8*), i8* bitcast (void (%"struct.std::__future_base::_Task_state"*)* @_ZNSt13__future_base11_Task_stateISt5_BindIFPFiPN4MARC15ThreadSafeQueueIiEEES5_EESaIiEFivEED2Ev to i8*), i8* bitcast (void (%"struct.std::__future_base::_Task_state"*)* @_ZNSt13__future_base11_Task_stateISt5_BindIFPFiPN4MARC15ThreadSafeQueueIiEEES5_EESaIiEFivEED0Ev to i8*), i8* bitcast (void (%"class.std::__future_base::_State_baseV2"*)* @_ZNSt13__future_base13_State_baseV217_M_complete_asyncEv to i8*), i8* bitcast (i1 (%"class.std::__future_base::_State_baseV2"*)* @_ZNKSt13__future_base13_State_baseV221_M_is_deferred_futureEv to i8*), i8* bitcast (void (%"struct.std::__future_base::_Task_state"*)* @_ZNSt13__future_base11_Task_stateISt5_BindIFPFiPN4MARC15ThreadSafeQueueIiEEES5_EESaIiEFivEE6_M_runEv to i8*), i8* bitcast (void (%"struct.std::__future_base::_Task_state"*, %"class.std::weak_ptr"*)* @_ZNSt13__future_base11_Task_stateISt5_BindIFPFiPN4MARC15ThreadSafeQueueIiEEES5_EESaIiEFivEE14_M_run_delayedESt8weak_ptrINS_13_State_baseV2EE to i8*), i8* bitcast (void (%"class.std::shared_ptr.58"*, %"struct.std::__future_base::_Task_state"*)* @_ZNSt13__future_base11_Task_stateISt5_BindIFPFiPN4MARC15ThreadSafeQueueIiEEES5_EESaIiEFivEE8_M_resetEv to i8*)] }, comdat, align 8
@_ZTSNSt13__future_base11_Task_stateISt5_BindIFPFiPN4MARC15ThreadSafeQueueIiEEES5_EESaIiEFivEEE = linkonce_odr constant [91 x i8] c"NSt13__future_base11_Task_stateISt5_BindIFPFiPN4MARC15ThreadSafeQueueIiEEES5_EESaIiEFivEEE\00", comdat
@_ZTSNSt13__future_base16_Task_state_baseIFivEEE = linkonce_odr constant [44 x i8] c"NSt13__future_base16_Task_state_baseIFivEEE\00", comdat
@_ZTSNSt13__future_base13_State_baseV2E = linkonce_odr constant [35 x i8] c"NSt13__future_base13_State_baseV2E\00", comdat
@_ZTINSt13__future_base13_State_baseV2E = linkonce_odr constant { i8*, i8* } { i8* bitcast (i8** getelementptr inbounds (i8*, i8** @_ZTVN10__cxxabiv117__class_type_infoE, i64 2) to i8*), i8* getelementptr inbounds ([35 x i8], [35 x i8]* @_ZTSNSt13__future_base13_State_baseV2E, i32 0, i32 0) }, comdat
@_ZTINSt13__future_base16_Task_state_baseIFivEEE = linkonce_odr constant { i8*, i8*, i8* } { i8* bitcast (i8** getelementptr inbounds (i8*, i8** @_ZTVN10__cxxabiv120__si_class_type_infoE, i64 2) to i8*), i8* getelementptr inbounds ([44 x i8], [44 x i8]* @_ZTSNSt13__future_base16_Task_state_baseIFivEEE, i32 0, i32 0), i8* bitcast ({ i8*, i8* }* @_ZTINSt13__future_base13_State_baseV2E to i8*) }, comdat
@_ZTINSt13__future_base11_Task_stateISt5_BindIFPFiPN4MARC15ThreadSafeQueueIiEEES5_EESaIiEFivEEE = linkonce_odr constant { i8*, i8*, i8* } { i8* bitcast (i8** getelementptr inbounds (i8*, i8** @_ZTVN10__cxxabiv120__si_class_type_infoE, i64 2) to i8*), i8* getelementptr inbounds ([91 x i8], [91 x i8]* @_ZTSNSt13__future_base11_Task_stateISt5_BindIFPFiPN4MARC15ThreadSafeQueueIiEEES5_EESaIiEFivEEE, i32 0, i32 0), i8* bitcast ({ i8*, i8*, i8* }* @_ZTINSt13__future_base16_Task_state_baseIFivEEE to i8*) }, comdat
@_ZTVNSt13__future_base16_Task_state_baseIFivEEE = linkonce_odr unnamed_addr constant { [9 x i8*] } { [9 x i8*] [i8* null, i8* bitcast ({ i8*, i8*, i8* }* @_ZTINSt13__future_base16_Task_state_baseIFivEEE to i8*), i8* bitcast (void (%"struct.std::__future_base::_Task_state_base"*)* @_ZNSt13__future_base16_Task_state_baseIFivEED2Ev to i8*), i8* bitcast (void (%"struct.std::__future_base::_Task_state_base"*)* @_ZNSt13__future_base16_Task_state_baseIFivEED0Ev to i8*), i8* bitcast (void (%"class.std::__future_base::_State_baseV2"*)* @_ZNSt13__future_base13_State_baseV217_M_complete_asyncEv to i8*), i8* bitcast (i1 (%"class.std::__future_base::_State_baseV2"*)* @_ZNKSt13__future_base13_State_baseV221_M_is_deferred_futureEv to i8*), i8* bitcast (void ()* @__cxa_pure_virtual to i8*), i8* bitcast (void ()* @__cxa_pure_virtual to i8*), i8* bitcast (void ()* @__cxa_pure_virtual to i8*)] }, comdat, align 8
@_ZTVNSt13__future_base13_State_baseV2E = linkonce_odr unnamed_addr constant { [6 x i8*] } { [6 x i8*] [i8* null, i8* bitcast ({ i8*, i8* }* @_ZTINSt13__future_base13_State_baseV2E to i8*), i8* bitcast (void (%"class.std::__future_base::_State_baseV2"*)* @_ZNSt13__future_base13_State_baseV2D2Ev to i8*), i8* bitcast (void (%"class.std::__future_base::_State_baseV2"*)* @_ZNSt13__future_base13_State_baseV2D0Ev to i8*), i8* bitcast (void (%"class.std::__future_base::_State_baseV2"*)* @_ZNSt13__future_base13_State_baseV217_M_complete_asyncEv to i8*), i8* bitcast (i1 (%"class.std::__future_base::_State_baseV2"*)* @_ZNKSt13__future_base13_State_baseV221_M_is_deferred_futureEv to i8*)] }, comdat, align 8
@_ZTVNSt13__future_base7_ResultIiEE = linkonce_odr unnamed_addr constant { [5 x i8*] } { [5 x i8*] [i8* null, i8* bitcast ({ i8*, i8*, i8* }* @_ZTINSt13__future_base7_ResultIiEE to i8*), i8* bitcast (void (%"struct.std::__future_base::_Result"*)* @_ZNSt13__future_base7_ResultIiE10_M_destroyEv to i8*), i8* bitcast (void (%"struct.std::__future_base::_Result"*)* @_ZNSt13__future_base7_ResultIiED2Ev to i8*), i8* bitcast (void (%"struct.std::__future_base::_Result"*)* @_ZNSt13__future_base7_ResultIiED0Ev to i8*)] }, comdat, align 8
@_ZTSNSt13__future_base7_ResultIiEE = linkonce_odr constant [31 x i8] c"NSt13__future_base7_ResultIiEE\00", comdat
@_ZTINSt13__future_base12_Result_baseE = external constant i8*
@_ZTINSt13__future_base7_ResultIiEE = linkonce_odr constant { i8*, i8*, i8* } { i8* bitcast (i8** getelementptr inbounds (i8*, i8** @_ZTVN10__cxxabiv120__si_class_type_infoE, i64 2) to i8*), i8* getelementptr inbounds ([31 x i8], [31 x i8]* @_ZTSNSt13__future_base7_ResultIiEE, i32 0, i32 0), i8* bitcast (i8** @_ZTINSt13__future_base12_Result_baseE to i8*) }, comdat
@_ZSt15__once_callable = external thread_local global i8*, align 8
@_ZSt11__once_call = external thread_local global void ()*, align 8
@_ZTIN10__cxxabiv115__forced_unwindE = external constant i8*
@_ZTSNSt13__future_base12_Task_setterISt10unique_ptrINS_7_ResultIiEENS_12_Result_base8_DeleterEESt12_Bind_simpleIFSt17reference_wrapperISt5_BindIFPFiPN4MARC15ThreadSafeQueueIiEEESD_EEEvEEiEE = linkonce_odr constant [186 x i8] c"NSt13__future_base12_Task_setterISt10unique_ptrINS_7_ResultIiEENS_12_Result_base8_DeleterEESt12_Bind_simpleIFSt17reference_wrapperISt5_BindIFPFiPN4MARC15ThreadSafeQueueIiEEESD_EEEvEEiEE\00", comdat
@_ZTINSt13__future_base12_Task_setterISt10unique_ptrINS_7_ResultIiEENS_12_Result_base8_DeleterEESt12_Bind_simpleIFSt17reference_wrapperISt5_BindIFPFiPN4MARC15ThreadSafeQueueIiEEESD_EEEvEEiEE = linkonce_odr constant { i8*, i8* } { i8* bitcast (i8** getelementptr inbounds (i8*, i8** @_ZTVN10__cxxabiv117__class_type_infoE, i64 2) to i8*), i8* getelementptr inbounds ([186 x i8], [186 x i8]* @_ZTSNSt13__future_base12_Task_setterISt10unique_ptrINS_7_ResultIiEENS_12_Result_base8_DeleterEESt12_Bind_simpleIFSt17reference_wrapperISt5_BindIFPFiPN4MARC15ThreadSafeQueueIiEEESD_EEEvEEiEE, i32 0, i32 0) }, comdat
@_ZTVN4MARC10ThreadTaskISt13packaged_taskIFivEEEE = linkonce_odr unnamed_addr constant { [5 x i8*] } { [5 x i8*] [i8* null, i8* bitcast ({ i8*, i8*, i8* }* @_ZTIN4MARC10ThreadTaskISt13packaged_taskIFivEEEE to i8*), i8* bitcast (void (%"class.MARC::ThreadTask"*)* @_ZN4MARC10ThreadTaskISt13packaged_taskIFivEEE7executeEv to i8*), i8* bitcast (void (%"class.MARC::ThreadTask"*)* @_ZN4MARC10ThreadTaskISt13packaged_taskIFivEEED2Ev to i8*), i8* bitcast (void (%"class.MARC::ThreadTask"*)* @_ZN4MARC10ThreadTaskISt13packaged_taskIFivEEED0Ev to i8*)] }, comdat, align 8
@_ZTSN4MARC10ThreadTaskISt13packaged_taskIFivEEEE = linkonce_odr constant [45 x i8] c"N4MARC10ThreadTaskISt13packaged_taskIFivEEEE\00", comdat
@_ZTSN4MARC11IThreadTaskE = linkonce_odr constant [21 x i8] c"N4MARC11IThreadTaskE\00", comdat
@_ZTIN4MARC11IThreadTaskE = linkonce_odr constant { i8*, i8* } { i8* bitcast (i8** getelementptr inbounds (i8*, i8** @_ZTVN10__cxxabiv117__class_type_infoE, i64 2) to i8*), i8* getelementptr inbounds ([21 x i8], [21 x i8]* @_ZTSN4MARC11IThreadTaskE, i32 0, i32 0) }, comdat
@_ZTIN4MARC10ThreadTaskISt13packaged_taskIFivEEEE = linkonce_odr constant { i8*, i8*, i8* } { i8* bitcast (i8** getelementptr inbounds (i8*, i8** @_ZTVN10__cxxabiv120__si_class_type_infoE, i64 2) to i8*), i8* getelementptr inbounds ([45 x i8], [45 x i8]* @_ZTSN4MARC10ThreadTaskISt13packaged_taskIFivEEEE, i32 0, i32 0), i8* bitcast ({ i8*, i8* }* @_ZTIN4MARC11IThreadTaskE to i8*) }, comdat
@_ZTVN4MARC11IThreadTaskE = linkonce_odr unnamed_addr constant { [5 x i8*] } { [5 x i8*] [i8* null, i8* bitcast ({ i8*, i8* }* @_ZTIN4MARC11IThreadTaskE to i8*), i8* bitcast (void ()* @__cxa_pure_virtual to i8*), i8* bitcast (void (%"class.MARC::IThreadTask"*)* @_ZN4MARC11IThreadTaskD2Ev to i8*), i8* bitcast (void (%"class.MARC::IThreadTask"*)* @_ZN4MARC11IThreadTaskD0Ev to i8*)] }, comdat, align 8
@_ZTISt12future_error = external constant i8*
@_ZTVSt12future_error = external unnamed_addr constant { [5 x i8*] }
@_ZTVSt11logic_error = external unnamed_addr constant { [5 x i8*] }
@_ZTVSt9exception = external unnamed_addr constant { [5 x i8*] }
@.str.4 = private unnamed_addr constant [20 x i8] c"std::future_error: \00", align 1
@llvm.global_ctors = appending global [1 x { i32, void ()*, i8* }] [{ i32, void ()*, i8* } { i32 65535, void ()* @_GLOBAL__sub_I_testSCC1.cpp, i8* null }]

; Function Attrs: noinline uwtable
define internal void @__cxx_global_var_init() #0 section ".text.startup" {
  call void @_ZNSt8ios_base4InitC1Ev(%"class.std::ios_base::Init"* @_ZStL8__ioinit)
  %1 = call i32 @__cxa_atexit(void (i8*)* bitcast (void (%"class.std::ios_base::Init"*)* @_ZNSt8ios_base4InitD1Ev to void (i8*)*), i8* getelementptr inbounds (%"class.std::ios_base::Init", %"class.std::ios_base::Init"* @_ZStL8__ioinit, i32 0, i32 0), i8* @__dso_handle) #3
  ret void
}

declare void @_ZNSt8ios_base4InitC1Ev(%"class.std::ios_base::Init"*) unnamed_addr #1

; Function Attrs: nounwind
declare void @_ZNSt8ios_base4InitD1Ev(%"class.std::ios_base::Init"*) unnamed_addr #2

; Function Attrs: nounwind
declare i32 @__cxa_atexit(void (i8*)*, i8*, i8*) #3

; Function Attrs: noinline uwtable
define i32 @_Z6stage0PN4MARC15ThreadSafeQueueIiEE(%"class.MARC::ThreadSafeQueue"*) #0 {
  %2 = alloca %"class.MARC::ThreadSafeQueue"*, align 8
  %3 = alloca i32, align 4
  %4 = alloca i32, align 4
  store %"class.MARC::ThreadSafeQueue"* %0, %"class.MARC::ThreadSafeQueue"** %2, align 8
  store i32 13, i32* %3, align 4
  store i32 0, i32* %4, align 4
  br label %5

; <label>:5:                                      ; preds = %13, %1
  %6 = load i32, i32* %4, align 4
  %7 = icmp slt i32 %6, 5
  br i1 %7, label %8, label %16

; <label>:8:                                      ; preds = %5
  %9 = load i32, i32* %3, align 4
  %10 = add nsw i32 %9, 4
  store i32 %10, i32* %3, align 4
  %11 = load %"class.MARC::ThreadSafeQueue"*, %"class.MARC::ThreadSafeQueue"** %2, align 8
  %12 = load i32, i32* %3, align 4
  call void @_ZN4MARC15ThreadSafeQueueIiE4pushEi(%"class.MARC::ThreadSafeQueue"* %11, i32 %12)
  br label %13

; <label>:13:                                     ; preds = %8
  %14 = load i32, i32* %4, align 4
  %15 = add nsw i32 %14, 1
  store i32 %15, i32* %4, align 4
  br label %5

; <label>:16:                                     ; preds = %5
  %17 = load i32, i32* %3, align 4
  ret i32 %17
}

; Function Attrs: noinline uwtable
define linkonce_odr void @_ZN4MARC15ThreadSafeQueueIiE4pushEi(%"class.MARC::ThreadSafeQueue"*, i32) #0 comdat align 2 personality i8* bitcast (i32 (...)* @__gxx_personality_v0 to i8*) {
  %3 = alloca %"class.MARC::ThreadSafeQueue"*, align 8
  %4 = alloca i32, align 4
  %5 = alloca %"class.std::lock_guard", align 8
  %6 = alloca i8*
  %7 = alloca i32
  store %"class.MARC::ThreadSafeQueue"* %0, %"class.MARC::ThreadSafeQueue"** %3, align 8
  store i32 %1, i32* %4, align 4
  %8 = load %"class.MARC::ThreadSafeQueue"*, %"class.MARC::ThreadSafeQueue"** %3, align 8
  %9 = getelementptr inbounds %"class.MARC::ThreadSafeQueue", %"class.MARC::ThreadSafeQueue"* %8, i32 0, i32 1
  call void @_ZNSt10lock_guardISt5mutexEC2ERS0_(%"class.std::lock_guard"* %5, %"class.std::mutex"* dereferenceable(40) %9)
  invoke void @_ZN4MARC15ThreadSafeQueueIiE13internal_pushERi(%"class.MARC::ThreadSafeQueue"* %8, i32* dereferenceable(4) %4)
          to label %10 unwind label %11

; <label>:10:                                     ; preds = %2
  call void @_ZNSt10lock_guardISt5mutexED2Ev(%"class.std::lock_guard"* %5) #3
  ret void

; <label>:11:                                     ; preds = %2
  %12 = landingpad { i8*, i32 }
          cleanup
  %13 = extractvalue { i8*, i32 } %12, 0
  store i8* %13, i8** %6, align 8
  %14 = extractvalue { i8*, i32 } %12, 1
  store i32 %14, i32* %7, align 4
  call void @_ZNSt10lock_guardISt5mutexED2Ev(%"class.std::lock_guard"* %5) #3
  br label %15

; <label>:15:                                     ; preds = %11
  %16 = load i8*, i8** %6, align 8
  %17 = load i32, i32* %7, align 4
  %18 = insertvalue { i8*, i32 } undef, i8* %16, 0
  %19 = insertvalue { i8*, i32 } %18, i32 %17, 1
  resume { i8*, i32 } %19
}

; Function Attrs: noinline uwtable
define i32 @_Z6stage1PN4MARC15ThreadSafeQueueIiEE(%"class.MARC::ThreadSafeQueue"*) #0 {
  %2 = alloca %"class.MARC::ThreadSafeQueue"*, align 8
  %3 = alloca i32, align 4
  %4 = alloca i32, align 4
  %5 = alloca i32, align 4
  store %"class.MARC::ThreadSafeQueue"* %0, %"class.MARC::ThreadSafeQueue"** %2, align 8
  store i32 17, i32* %3, align 4
  store i32 0, i32* %5, align 4
  br label %6

; <label>:6:                                      ; preds = %15, %1
  %7 = load i32, i32* %5, align 4
  %8 = icmp slt i32 %7, 5
  br i1 %8, label %9, label %18

; <label>:9:                                      ; preds = %6
  %10 = load %"class.MARC::ThreadSafeQueue"*, %"class.MARC::ThreadSafeQueue"** %2, align 8
  %11 = call zeroext i1 @_ZN4MARC15ThreadSafeQueueIiE7waitPopERi(%"class.MARC::ThreadSafeQueue"* %10, i32* dereferenceable(4) %4)
  %12 = load i32, i32* %4, align 4
  %13 = load i32, i32* %3, align 4
  %14 = add nsw i32 %13, %12
  store i32 %14, i32* %3, align 4
  br label %15

; <label>:15:                                     ; preds = %9
  %16 = load i32, i32* %5, align 4
  %17 = add nsw i32 %16, 1
  store i32 %17, i32* %5, align 4
  br label %6

; <label>:18:                                     ; preds = %6
  %19 = load i32, i32* %3, align 4
  ret i32 %19
}

; Function Attrs: noinline uwtable
define linkonce_odr zeroext i1 @_ZN4MARC15ThreadSafeQueueIiE7waitPopERi(%"class.MARC::ThreadSafeQueue"*, i32* dereferenceable(4)) #0 comdat align 2 personality i8* bitcast (i32 (...)* @__gxx_personality_v0 to i8*) {
  %3 = alloca i1, align 1
  %4 = alloca %"class.MARC::ThreadSafeQueue"*, align 8
  %5 = alloca i32*, align 8
  %6 = alloca %"class.std::unique_lock", align 8
  %7 = alloca i32
  %8 = alloca i8*
  %9 = alloca i32
  %10 = alloca %class.anon.106, align 8
  store %"class.MARC::ThreadSafeQueue"* %0, %"class.MARC::ThreadSafeQueue"** %4, align 8
  store i32* %1, i32** %5, align 8
  %11 = load %"class.MARC::ThreadSafeQueue"*, %"class.MARC::ThreadSafeQueue"** %4, align 8
  %12 = getelementptr inbounds %"class.MARC::ThreadSafeQueue", %"class.MARC::ThreadSafeQueue"* %11, i32 0, i32 1
  call void @_ZNSt11unique_lockISt5mutexEC2ERS0_(%"class.std::unique_lock"* %6, %"class.std::mutex"* dereferenceable(40) %12)
  %13 = getelementptr inbounds %"class.MARC::ThreadSafeQueue", %"class.MARC::ThreadSafeQueue"* %11, i32 0, i32 0
  %14 = call zeroext i1 @_ZNKSt6atomicIbEcvbEv(%"struct.std::atomic"* %13) #3
  br i1 %14, label %16, label %15

; <label>:15:                                     ; preds = %2
  store i1 false, i1* %3, align 1
  store i32 1, i32* %7, align 4
  br label %37

; <label>:16:                                     ; preds = %2
  %17 = getelementptr inbounds %"class.MARC::ThreadSafeQueue", %"class.MARC::ThreadSafeQueue"* %11, i32 0, i32 2
  %18 = invoke zeroext i1 @_ZNKSt5queueIiSt5dequeIiSaIiEEE5emptyEv(%"class.std::queue"* %17)
          to label %19 unwind label %26

; <label>:19:                                     ; preds = %16
  br i1 %18, label %20, label %30

; <label>:20:                                     ; preds = %19
  %21 = getelementptr inbounds %"class.MARC::ThreadSafeQueue", %"class.MARC::ThreadSafeQueue"* %11, i32 0, i32 3
  %22 = getelementptr inbounds %class.anon.106, %class.anon.106* %10, i32 0, i32 0
  store %"class.MARC::ThreadSafeQueue"* %11, %"class.MARC::ThreadSafeQueue"** %22, align 8
  %23 = getelementptr inbounds %class.anon.106, %class.anon.106* %10, i32 0, i32 0
  %24 = load %"class.MARC::ThreadSafeQueue"*, %"class.MARC::ThreadSafeQueue"** %23, align 8
  invoke void @_ZNSt18condition_variable4waitIZN4MARC15ThreadSafeQueueIiE7waitPopERiEUlvE_EEvRSt11unique_lockISt5mutexET_(%"class.std::condition_variable"* %21, %"class.std::unique_lock"* dereferenceable(16) %6, %"class.MARC::ThreadSafeQueue"* %24)
          to label %25 unwind label %26

; <label>:25:                                     ; preds = %20
  br label %30

; <label>:26:                                     ; preds = %34, %20, %16
  %27 = landingpad { i8*, i32 }
          cleanup
  %28 = extractvalue { i8*, i32 } %27, 0
  store i8* %28, i8** %8, align 8
  %29 = extractvalue { i8*, i32 } %27, 1
  store i32 %29, i32* %9, align 4
  call void @_ZNSt11unique_lockISt5mutexED2Ev(%"class.std::unique_lock"* %6) #3
  br label %39

; <label>:30:                                     ; preds = %25, %19
  %31 = getelementptr inbounds %"class.MARC::ThreadSafeQueue", %"class.MARC::ThreadSafeQueue"* %11, i32 0, i32 0
  %32 = call zeroext i1 @_ZNKSt6atomicIbEcvbEv(%"struct.std::atomic"* %31) #3
  br i1 %32, label %34, label %33

; <label>:33:                                     ; preds = %30
  store i1 false, i1* %3, align 1
  store i32 1, i32* %7, align 4
  br label %37

; <label>:34:                                     ; preds = %30
  %35 = load i32*, i32** %5, align 8
  invoke void @_ZN4MARC15ThreadSafeQueueIiE12internal_popERi(%"class.MARC::ThreadSafeQueue"* %11, i32* dereferenceable(4) %35)
          to label %36 unwind label %26

; <label>:36:                                     ; preds = %34
  store i1 true, i1* %3, align 1
  store i32 1, i32* %7, align 4
  br label %37

; <label>:37:                                     ; preds = %36, %33, %15
  call void @_ZNSt11unique_lockISt5mutexED2Ev(%"class.std::unique_lock"* %6) #3
  %38 = load i1, i1* %3, align 1
  ret i1 %38

; <label>:39:                                     ; preds = %26
  %40 = load i8*, i8** %8, align 8
  %41 = load i32, i32* %9, align 4
  %42 = insertvalue { i8*, i32 } undef, i8* %40, 0
  %43 = insertvalue { i8*, i32 } %42, i32 %41, 1
  resume { i8*, i32 } %43
}

; Function Attrs: noinline norecurse uwtable
define i32 @main(i32, i8**) #4 personality i8* bitcast (i32 (...)* @__gxx_personality_v0 to i8*) {
  %3 = alloca i32, align 4
  %4 = alloca i32, align 4
  %5 = alloca i8**, align 8
  %6 = alloca %"class.MARC::ThreadPool", align 8
  %7 = alloca %"class.std::function", align 8
  %8 = alloca i8*
  %9 = alloca i32
  %10 = alloca %"class.MARC::ThreadSafeQueue", align 8
  %11 = alloca %"class.MARC::ThreadSafeQueue"*, align 8
  %12 = alloca i32, align 4
  %13 = alloca %"class.MARC::TaskFuture", align 8
  %14 = alloca i32, align 4
  %15 = alloca %"class.MARC::TaskFuture", align 8
  store i32 0, i32* %3, align 4
  store i32 %0, i32* %4, align 4
  store i8** %1, i8*** %5, align 8
  call void @_ZNSt8functionIFvvEEC2EDn(%"class.std::function"* %7, i8* null) #3
  invoke void @_ZN4MARC10ThreadPoolC2EjSt8functionIFvvEE(%"class.MARC::ThreadPool"* %6, i32 2, %"class.std::function"* %7)
          to label %16 unwind label %37

; <label>:16:                                     ; preds = %2
  call void @_ZNSt8functionIFvvEED2Ev(%"class.std::function"* %7) #3
  invoke void @_ZN4MARC15ThreadSafeQueueIiEC2Ev(%"class.MARC::ThreadSafeQueue"* %10)
          to label %17 unwind label %41

; <label>:17:                                     ; preds = %16
  store %"class.MARC::ThreadSafeQueue"* %10, %"class.MARC::ThreadSafeQueue"** %11, align 8
  invoke void @_ZN4MARC10ThreadPool6submitIRFiPNS_15ThreadSafeQueueIiEEEJRS4_EEEDaOT_DpOT0_(%"class.MARC::TaskFuture"* sret %13, %"class.MARC::ThreadPool"* %6, i32 (%"class.MARC::ThreadSafeQueue"*)* @_Z6stage0PN4MARC15ThreadSafeQueueIiEE, %"class.MARC::ThreadSafeQueue"** dereferenceable(8) %11)
          to label %18 unwind label %45

; <label>:18:                                     ; preds = %17
  %19 = invoke i32 @_ZN4MARC10TaskFutureIiE3getEv(%"class.MARC::TaskFuture"* %13)
          to label %20 unwind label %49

; <label>:20:                                     ; preds = %18
  call void @_ZN4MARC10TaskFutureIiED2Ev(%"class.MARC::TaskFuture"* %13) #3
  store i32 %19, i32* %12, align 4
  invoke void @_ZN4MARC10ThreadPool6submitIRFiPNS_15ThreadSafeQueueIiEEEJRS4_EEEDaOT_DpOT0_(%"class.MARC::TaskFuture"* sret %15, %"class.MARC::ThreadPool"* %6, i32 (%"class.MARC::ThreadSafeQueue"*)* @_Z6stage1PN4MARC15ThreadSafeQueueIiEE, %"class.MARC::ThreadSafeQueue"** dereferenceable(8) %11)
          to label %21 unwind label %45

; <label>:21:                                     ; preds = %20
  %22 = invoke i32 @_ZN4MARC10TaskFutureIiE3getEv(%"class.MARC::TaskFuture"* %15)
          to label %23 unwind label %53

; <label>:23:                                     ; preds = %21
  call void @_ZN4MARC10TaskFutureIiED2Ev(%"class.MARC::TaskFuture"* %15) #3
  store i32 %22, i32* %14, align 4
  %24 = invoke dereferenceable(272) %"class.std::basic_ostream"* @_ZStlsISt11char_traitsIcEERSt13basic_ostreamIcT_ES5_PKc(%"class.std::basic_ostream"* dereferenceable(272) @_ZSt4cout, i8* getelementptr inbounds ([4 x i8], [4 x i8]* @.str, i32 0, i32 0))
          to label %25 unwind label %45

; <label>:25:                                     ; preds = %23
  %26 = load i32, i32* %12, align 4
  %27 = invoke dereferenceable(272) %"class.std::basic_ostream"* @_ZNSolsEi(%"class.std::basic_ostream"* %24, i32 %26)
          to label %28 unwind label %45

; <label>:28:                                     ; preds = %25
  %29 = invoke dereferenceable(272) %"class.std::basic_ostream"* @_ZStlsISt11char_traitsIcEERSt13basic_ostreamIcT_ES5_PKc(%"class.std::basic_ostream"* dereferenceable(272) %27, i8* getelementptr inbounds ([6 x i8], [6 x i8]* @.str.1, i32 0, i32 0))
          to label %30 unwind label %45

; <label>:30:                                     ; preds = %28
  %31 = load i32, i32* %14, align 4
  %32 = invoke dereferenceable(272) %"class.std::basic_ostream"* @_ZNSolsEi(%"class.std::basic_ostream"* %29, i32 %31)
          to label %33 unwind label %45

; <label>:33:                                     ; preds = %30
  %34 = invoke dereferenceable(272) %"class.std::basic_ostream"* @_ZStlsISt11char_traitsIcEERSt13basic_ostreamIcT_ES5_PKc(%"class.std::basic_ostream"* dereferenceable(272) %32, i8* getelementptr inbounds ([2 x i8], [2 x i8]* @.str.2, i32 0, i32 0))
          to label %35 unwind label %45

; <label>:35:                                     ; preds = %33
  store i32 0, i32* %3, align 4
  call void @_ZN4MARC15ThreadSafeQueueIiED2Ev(%"class.MARC::ThreadSafeQueue"* %10) #3
  call void @_ZN4MARC10ThreadPoolD2Ev(%"class.MARC::ThreadPool"* %6) #3
  %36 = load i32, i32* %3, align 4
  ret i32 %36

; <label>:37:                                     ; preds = %2
  %38 = landingpad { i8*, i32 }
          cleanup
  %39 = extractvalue { i8*, i32 } %38, 0
  store i8* %39, i8** %8, align 8
  %40 = extractvalue { i8*, i32 } %38, 1
  store i32 %40, i32* %9, align 4
  call void @_ZNSt8functionIFvvEED2Ev(%"class.std::function"* %7) #3
  br label %59

; <label>:41:                                     ; preds = %16
  %42 = landingpad { i8*, i32 }
          cleanup
  %43 = extractvalue { i8*, i32 } %42, 0
  store i8* %43, i8** %8, align 8
  %44 = extractvalue { i8*, i32 } %42, 1
  store i32 %44, i32* %9, align 4
  br label %58

; <label>:45:                                     ; preds = %33, %30, %28, %25, %23, %20, %17
  %46 = landingpad { i8*, i32 }
          cleanup
  %47 = extractvalue { i8*, i32 } %46, 0
  store i8* %47, i8** %8, align 8
  %48 = extractvalue { i8*, i32 } %46, 1
  store i32 %48, i32* %9, align 4
  br label %57

; <label>:49:                                     ; preds = %18
  %50 = landingpad { i8*, i32 }
          cleanup
  %51 = extractvalue { i8*, i32 } %50, 0
  store i8* %51, i8** %8, align 8
  %52 = extractvalue { i8*, i32 } %50, 1
  store i32 %52, i32* %9, align 4
  call void @_ZN4MARC10TaskFutureIiED2Ev(%"class.MARC::TaskFuture"* %13) #3
  br label %57

; <label>:53:                                     ; preds = %21
  %54 = landingpad { i8*, i32 }
          cleanup
  %55 = extractvalue { i8*, i32 } %54, 0
  store i8* %55, i8** %8, align 8
  %56 = extractvalue { i8*, i32 } %54, 1
  store i32 %56, i32* %9, align 4
  call void @_ZN4MARC10TaskFutureIiED2Ev(%"class.MARC::TaskFuture"* %15) #3
  br label %57

; <label>:57:                                     ; preds = %53, %49, %45
  call void @_ZN4MARC15ThreadSafeQueueIiED2Ev(%"class.MARC::ThreadSafeQueue"* %10) #3
  br label %58

; <label>:58:                                     ; preds = %57, %41
  call void @_ZN4MARC10ThreadPoolD2Ev(%"class.MARC::ThreadPool"* %6) #3
  br label %59

; <label>:59:                                     ; preds = %58, %37
  %60 = load i8*, i8** %8, align 8
  %61 = load i32, i32* %9, align 4
  %62 = insertvalue { i8*, i32 } undef, i8* %60, 0
  %63 = insertvalue { i8*, i32 } %62, i32 %61, 1
  resume { i8*, i32 } %63
}

; Function Attrs: noinline nounwind uwtable
define linkonce_odr void @_ZNSt8functionIFvvEEC2EDn(%"class.std::function"*, i8*) unnamed_addr #5 comdat align 2 personality i8* bitcast (i32 (...)* @__gxx_personality_v0 to i8*) {
  %3 = alloca %"class.std::function"*, align 8
  %4 = alloca i8*, align 8
  store %"class.std::function"* %0, %"class.std::function"** %3, align 8
  store i8* %1, i8** %4, align 8
  %5 = load %"class.std::function"*, %"class.std::function"** %3, align 8
  %6 = bitcast %"class.std::function"* %5 to %"struct.std::_Maybe_unary_or_binary_function"*
  %7 = bitcast %"class.std::function"* %5 to %"class.std::_Function_base"*
  invoke void @_ZNSt14_Function_baseC2Ev(%"class.std::_Function_base"* %7)
          to label %8 unwind label %9

; <label>:8:                                      ; preds = %2
  ret void

; <label>:9:                                      ; preds = %2
  %10 = landingpad { i8*, i32 }
          catch i8* null
  %11 = extractvalue { i8*, i32 } %10, 0
  call void @__clang_call_terminate(i8* %11) #11
  unreachable
}

; Function Attrs: noinline uwtable
define linkonce_odr void @_ZN4MARC10ThreadPoolC2EjSt8functionIFvvEE(%"class.MARC::ThreadPool"*, i32, %"class.std::function"*) unnamed_addr #0 comdat align 2 personality i8* bitcast (i32 (...)* @__gxx_personality_v0 to i8*) {
  %4 = alloca %"class.MARC::ThreadPool"*, align 8
  %5 = alloca i32, align 4
  %6 = alloca i8*
  %7 = alloca i32
  %8 = alloca i32, align 4
  %9 = alloca i32, align 4
  %10 = alloca { i64, i64 }, align 8
  %11 = alloca %"class.MARC::ThreadPool"*, align 8
  %12 = alloca %"struct.std::atomic"*, align 8
  %13 = alloca %"class.std::function", align 8
  store %"class.MARC::ThreadPool"* %0, %"class.MARC::ThreadPool"** %4, align 8
  store i32 %1, i32* %5, align 4
  %14 = load %"class.MARC::ThreadPool"*, %"class.MARC::ThreadPool"** %4, align 8
  %15 = getelementptr inbounds %"class.MARC::ThreadPool", %"class.MARC::ThreadPool"* %14, i32 0, i32 0
  call void @_ZNSt6atomicIbEC2Eb(%"struct.std::atomic"* %15, i1 zeroext false) #3
  %16 = getelementptr inbounds %"class.MARC::ThreadPool", %"class.MARC::ThreadPool"* %14, i32 0, i32 1
  %17 = bitcast %"class.MARC::ThreadSafeQueue.0"* %16 to i8*
  call void @llvm.memset.p0i8.i64(i8* %17, i8 0, i64 224, i32 8, i1 false)
  call void @_ZN4MARC15ThreadSafeQueueISt10unique_ptrINS_11IThreadTaskESt14default_deleteIS2_EEEC2Ev(%"class.MARC::ThreadSafeQueue.0"* %16)
  %18 = getelementptr inbounds %"class.MARC::ThreadPool", %"class.MARC::ThreadPool"* %14, i32 0, i32 2
  call void @_ZNSt6vectorISt6threadSaIS0_EEC2Ev(%"class.std::vector"* %18) #3
  %19 = getelementptr inbounds %"class.MARC::ThreadPool", %"class.MARC::ThreadPool"* %14, i32 0, i32 4
  invoke void @_ZN4MARC15ThreadSafeQueueISt8functionIFvvEEEC2Ev(%"class.MARC::ThreadSafeQueue.13"* %19)
          to label %20 unwind label %41

; <label>:20:                                     ; preds = %3
  %21 = load i32, i32* %5, align 4
  %22 = zext i32 %21 to i64
  %23 = invoke i8* @_Znam(i64 %22) #14
          to label %24 unwind label %45

; <label>:24:                                     ; preds = %20
  %25 = bitcast i8* %23 to %"struct.std::atomic"*
  %26 = getelementptr inbounds %"class.MARC::ThreadPool", %"class.MARC::ThreadPool"* %14, i32 0, i32 3
  store %"struct.std::atomic"* %25, %"struct.std::atomic"** %26, align 8
  store i32 0, i32* %8, align 4
  br label %27

; <label>:27:                                     ; preds = %38, %24
  %28 = load i32, i32* %8, align 4
  %29 = load i32, i32* %5, align 4
  %30 = icmp ult i32 %28, %29
  br i1 %30, label %31, label %53

; <label>:31:                                     ; preds = %27
  %32 = getelementptr inbounds %"class.MARC::ThreadPool", %"class.MARC::ThreadPool"* %14, i32 0, i32 3
  %33 = load %"struct.std::atomic"*, %"struct.std::atomic"** %32, align 8
  %34 = load i32, i32* %8, align 4
  %35 = zext i32 %34 to i64
  %36 = getelementptr inbounds %"struct.std::atomic", %"struct.std::atomic"* %33, i64 %35
  %37 = call zeroext i1 @_ZNSt6atomicIbEaSEb(%"struct.std::atomic"* %36, i1 zeroext true) #3
  br label %38

; <label>:38:                                     ; preds = %31
  %39 = load i32, i32* %8, align 4
  %40 = add i32 %39, 1
  store i32 %40, i32* %8, align 4
  br label %27

; <label>:41:                                     ; preds = %3
  %42 = landingpad { i8*, i32 }
          cleanup
  %43 = extractvalue { i8*, i32 } %42, 0
  store i8* %43, i8** %6, align 8
  %44 = extractvalue { i8*, i32 } %42, 1
  store i32 %44, i32* %7, align 4
  br label %91

; <label>:45:                                     ; preds = %58, %20
  %46 = landingpad { i8*, i32 }
          catch i8* null
  %47 = extractvalue { i8*, i32 } %46, 0
  store i8* %47, i8** %6, align 8
  %48 = extractvalue { i8*, i32 } %46, 1
  store i32 %48, i32* %7, align 4
  br label %49

; <label>:49:                                     ; preds = %45
  %50 = load i8*, i8** %6, align 8
  %51 = call i8* @__cxa_begin_catch(i8* %50) #3
  invoke void @_ZN4MARC10ThreadPool7destroyEv(%"class.MARC::ThreadPool"* %14)
          to label %52 unwind label %70

; <label>:52:                                     ; preds = %49
  invoke void @__cxa_rethrow() #15
          to label %100 unwind label %70

; <label>:53:                                     ; preds = %27
  store i32 0, i32* %9, align 4
  br label %54

; <label>:54:                                     ; preds = %66, %53
  %55 = load i32, i32* %9, align 4
  %56 = load i32, i32* %5, align 4
  %57 = icmp ult i32 %55, %56
  br i1 %57, label %58, label %69

; <label>:58:                                     ; preds = %54
  %59 = getelementptr inbounds %"class.MARC::ThreadPool", %"class.MARC::ThreadPool"* %14, i32 0, i32 2
  store { i64, i64 } { i64 ptrtoint (void (%"class.MARC::ThreadPool"*, %"struct.std::atomic"*)* @_ZN4MARC10ThreadPool6workerEPSt6atomicIbE to i64), i64 0 }, { i64, i64 }* %10, align 8
  store %"class.MARC::ThreadPool"* %14, %"class.MARC::ThreadPool"** %11, align 8
  %60 = getelementptr inbounds %"class.MARC::ThreadPool", %"class.MARC::ThreadPool"* %14, i32 0, i32 3
  %61 = load %"struct.std::atomic"*, %"struct.std::atomic"** %60, align 8
  %62 = load i32, i32* %9, align 4
  %63 = zext i32 %62 to i64
  %64 = getelementptr inbounds %"struct.std::atomic", %"struct.std::atomic"* %61, i64 %63
  store %"struct.std::atomic"* %64, %"struct.std::atomic"** %12, align 8
  invoke void @_ZNSt6vectorISt6threadSaIS0_EE12emplace_backIJMN4MARC10ThreadPoolEFvPSt6atomicIbEEPS5_S8_EEEvDpOT_(%"class.std::vector"* %59, { i64, i64 }* dereferenceable(16) %10, %"class.MARC::ThreadPool"** dereferenceable(8) %11, %"struct.std::atomic"** dereferenceable(8) %12)
          to label %65 unwind label %45

; <label>:65:                                     ; preds = %58
  br label %66

; <label>:66:                                     ; preds = %65
  %67 = load i32, i32* %9, align 4
  %68 = add i32 %67, 1
  store i32 %68, i32* %9, align 4
  br label %54

; <label>:69:                                     ; preds = %54
  br label %75

; <label>:70:                                     ; preds = %52, %49
  %71 = landingpad { i8*, i32 }
          cleanup
  %72 = extractvalue { i8*, i32 } %71, 0
  store i8* %72, i8** %6, align 8
  %73 = extractvalue { i8*, i32 } %71, 1
  store i32 %73, i32* %7, align 4
  invoke void @__cxa_end_catch()
          to label %74 unwind label %97

; <label>:74:                                     ; preds = %70
  br label %90

; <label>:75:                                     ; preds = %69
  %76 = call zeroext i1 @_ZStneIvJEEbRKSt8functionIFT_DpT0_EEDn(%"class.std::function"* dereferenceable(32) %2, i8* null) #3
  br i1 %76, label %77, label %89

; <label>:77:                                     ; preds = %75
  %78 = getelementptr inbounds %"class.MARC::ThreadPool", %"class.MARC::ThreadPool"* %14, i32 0, i32 4
  invoke void @_ZNSt8functionIFvvEEC2ERKS1_(%"class.std::function"* %13, %"class.std::function"* dereferenceable(32) %2)
          to label %79 unwind label %81

; <label>:79:                                     ; preds = %77
  invoke void @_ZN4MARC15ThreadSafeQueueISt8functionIFvvEEE4pushES3_(%"class.MARC::ThreadSafeQueue.13"* %78, %"class.std::function"* %13)
          to label %80 unwind label %85

; <label>:80:                                     ; preds = %79
  call void @_ZNSt8functionIFvvEED2Ev(%"class.std::function"* %13) #3
  br label %89

; <label>:81:                                     ; preds = %77
  %82 = landingpad { i8*, i32 }
          cleanup
  %83 = extractvalue { i8*, i32 } %82, 0
  store i8* %83, i8** %6, align 8
  %84 = extractvalue { i8*, i32 } %82, 1
  store i32 %84, i32* %7, align 4
  br label %90

; <label>:85:                                     ; preds = %79
  %86 = landingpad { i8*, i32 }
          cleanup
  %87 = extractvalue { i8*, i32 } %86, 0
  store i8* %87, i8** %6, align 8
  %88 = extractvalue { i8*, i32 } %86, 1
  store i32 %88, i32* %7, align 4
  call void @_ZNSt8functionIFvvEED2Ev(%"class.std::function"* %13) #3
  br label %90

; <label>:89:                                     ; preds = %80, %75
  ret void

; <label>:90:                                     ; preds = %85, %81, %74
  call void @_ZN4MARC15ThreadSafeQueueISt8functionIFvvEEED2Ev(%"class.MARC::ThreadSafeQueue.13"* %19) #3
  br label %91

; <label>:91:                                     ; preds = %90, %41
  call void @_ZNSt6vectorISt6threadSaIS0_EED2Ev(%"class.std::vector"* %18) #3
  call void @_ZN4MARC15ThreadSafeQueueISt10unique_ptrINS_11IThreadTaskESt14default_deleteIS2_EEED2Ev(%"class.MARC::ThreadSafeQueue.0"* %16) #3
  br label %92

; <label>:92:                                     ; preds = %91
  %93 = load i8*, i8** %6, align 8
  %94 = load i32, i32* %7, align 4
  %95 = insertvalue { i8*, i32 } undef, i8* %93, 0
  %96 = insertvalue { i8*, i32 } %95, i32 %94, 1
  resume { i8*, i32 } %96

; <label>:97:                                     ; preds = %70
  %98 = landingpad { i8*, i32 }
          catch i8* null
  %99 = extractvalue { i8*, i32 } %98, 0
  call void @__clang_call_terminate(i8* %99) #11
  unreachable

; <label>:100:                                    ; preds = %52
  unreachable
}

declare i32 @__gxx_personality_v0(...)

; Function Attrs: noinline nounwind uwtable
define linkonce_odr void @_ZNSt8functionIFvvEED2Ev(%"class.std::function"*) unnamed_addr #5 comdat align 2 {
  %2 = alloca %"class.std::function"*, align 8
  store %"class.std::function"* %0, %"class.std::function"** %2, align 8
  %3 = load %"class.std::function"*, %"class.std::function"** %2, align 8
  %4 = bitcast %"class.std::function"* %3 to %"class.std::_Function_base"*
  call void @_ZNSt14_Function_baseD2Ev(%"class.std::_Function_base"* %4) #3
  ret void
}

; Function Attrs: noinline uwtable
define linkonce_odr void @_ZN4MARC15ThreadSafeQueueIiEC2Ev(%"class.MARC::ThreadSafeQueue"*) unnamed_addr #0 comdat align 2 personality i8* bitcast (i32 (...)* @__gxx_personality_v0 to i8*) {
  %2 = alloca %"class.MARC::ThreadSafeQueue"*, align 8
  %3 = alloca %"class.std::deque", align 8
  %4 = alloca i8*
  %5 = alloca i32
  store %"class.MARC::ThreadSafeQueue"* %0, %"class.MARC::ThreadSafeQueue"** %2, align 8
  %6 = load %"class.MARC::ThreadSafeQueue"*, %"class.MARC::ThreadSafeQueue"** %2, align 8
  %7 = getelementptr inbounds %"class.MARC::ThreadSafeQueue", %"class.MARC::ThreadSafeQueue"* %6, i32 0, i32 0
  call void @_ZNSt6atomicIbEC2Eb(%"struct.std::atomic"* %7, i1 zeroext true) #3
  %8 = getelementptr inbounds %"class.MARC::ThreadSafeQueue", %"class.MARC::ThreadSafeQueue"* %6, i32 0, i32 1
  call void @_ZNSt5mutexC2Ev(%"class.std::mutex"* %8) #3
  %9 = getelementptr inbounds %"class.MARC::ThreadSafeQueue", %"class.MARC::ThreadSafeQueue"* %6, i32 0, i32 2
  call void @_ZNSt5dequeIiSaIiEEC2Ev(%"class.std::deque"* %3)
  invoke void @_ZNSt5queueIiSt5dequeIiSaIiEEEC2EOS2_(%"class.std::queue"* %9, %"class.std::deque"* dereferenceable(80) %3)
          to label %10 unwind label %13

; <label>:10:                                     ; preds = %1
  call void @_ZNSt5dequeIiSaIiEED2Ev(%"class.std::deque"* %3) #3
  %11 = getelementptr inbounds %"class.MARC::ThreadSafeQueue", %"class.MARC::ThreadSafeQueue"* %6, i32 0, i32 3
  call void @_ZNSt18condition_variableC1Ev(%"class.std::condition_variable"* %11) #3
  %12 = getelementptr inbounds %"class.MARC::ThreadSafeQueue", %"class.MARC::ThreadSafeQueue"* %6, i32 0, i32 4
  call void @_ZNSt18condition_variableC1Ev(%"class.std::condition_variable"* %12) #3
  ret void

; <label>:13:                                     ; preds = %1
  %14 = landingpad { i8*, i32 }
          cleanup
  %15 = extractvalue { i8*, i32 } %14, 0
  store i8* %15, i8** %4, align 8
  %16 = extractvalue { i8*, i32 } %14, 1
  store i32 %16, i32* %5, align 4
  call void @_ZNSt5dequeIiSaIiEED2Ev(%"class.std::deque"* %3) #3
  br label %17

; <label>:17:                                     ; preds = %13
  %18 = load i8*, i8** %4, align 8
  %19 = load i32, i32* %5, align 4
  %20 = insertvalue { i8*, i32 } undef, i8* %18, 0
  %21 = insertvalue { i8*, i32 } %20, i32 %19, 1
  resume { i8*, i32 } %21
}

; Function Attrs: noinline uwtable
define linkonce_odr void @_ZN4MARC10ThreadPool6submitIRFiPNS_15ThreadSafeQueueIiEEEJRS4_EEEDaOT_DpOT0_(%"class.MARC::TaskFuture"* noalias sret, %"class.MARC::ThreadPool"*, i32 (%"class.MARC::ThreadSafeQueue"*)*, %"class.MARC::ThreadSafeQueue"** dereferenceable(8)) #0 comdat align 2 personality i8* bitcast (i32 (...)* @__gxx_personality_v0 to i8*) {
  %5 = alloca %"class.MARC::ThreadPool"*, align 8
  %6 = alloca i32 (%"class.MARC::ThreadSafeQueue"*)*, align 8
  %7 = alloca %"class.MARC::ThreadSafeQueue"**, align 8
  %8 = alloca %"class.std::_Bind", align 8
  %9 = alloca %"class.std::packaged_task", align 8
  %10 = alloca %"class.MARC::TaskFuture", align 8
  %11 = alloca %"class.std::future", align 8
  %12 = alloca i8*
  %13 = alloca i32
  %14 = alloca %"class.std::unique_ptr", align 8
  %15 = alloca %"class.std::unique_ptr.65", align 8
  store %"class.MARC::ThreadPool"* %1, %"class.MARC::ThreadPool"** %5, align 8
  store i32 (%"class.MARC::ThreadSafeQueue"*)* %2, i32 (%"class.MARC::ThreadSafeQueue"*)** %6, align 8
  store %"class.MARC::ThreadSafeQueue"** %3, %"class.MARC::ThreadSafeQueue"*** %7, align 8
  %16 = load %"class.MARC::ThreadPool"*, %"class.MARC::ThreadPool"** %5, align 8
  %17 = load i32 (%"class.MARC::ThreadSafeQueue"*)*, i32 (%"class.MARC::ThreadSafeQueue"*)** %6, align 8
  %18 = call i32 (%"class.MARC::ThreadSafeQueue"*)* @_ZSt7forwardIRFiPN4MARC15ThreadSafeQueueIiEEEEOT_RNSt16remove_referenceIS6_E4typeE(i32 (%"class.MARC::ThreadSafeQueue"*)* %17) #3
  %19 = load %"class.MARC::ThreadSafeQueue"**, %"class.MARC::ThreadSafeQueue"*** %7, align 8
  %20 = call dereferenceable(8) %"class.MARC::ThreadSafeQueue"** @_ZSt7forwardIRPN4MARC15ThreadSafeQueueIiEEEOT_RNSt16remove_referenceIS5_E4typeE(%"class.MARC::ThreadSafeQueue"** dereferenceable(8) %19) #3
  call void @_ZSt4bindIRFiPN4MARC15ThreadSafeQueueIiEEEJRS3_EENSt12_Bind_helperIXsr15__is_socketlikeIT_EE5valueES8_JDpT0_EE4typeEOS8_DpOS9_(%"class.std::_Bind"* sret %8, i32 (%"class.MARC::ThreadSafeQueue"*)* %18, %"class.MARC::ThreadSafeQueue"** dereferenceable(8) %20)
  %21 = call dereferenceable(16) %"class.std::_Bind"* @_ZSt4moveIRSt5_BindIFPFiPN4MARC15ThreadSafeQueueIiEEES4_EEEONSt16remove_referenceIT_E4typeEOSB_(%"class.std::_Bind"* dereferenceable(16) %8) #3
  call void @_ZNSt13packaged_taskIFivEEC2ISt5_BindIFPFiPN4MARC15ThreadSafeQueueIiEEES7_EEvEEOT_(%"class.std::packaged_task"* %9, %"class.std::_Bind"* dereferenceable(16) %21)
  invoke void @_ZNSt13packaged_taskIFivEE10get_futureEv(%"class.std::future"* sret %11, %"class.std::packaged_task"* %9)
          to label %22 unwind label %28

; <label>:22:                                     ; preds = %4
  invoke void @_ZN4MARC10TaskFutureIiEC2EOSt6futureIiE(%"class.MARC::TaskFuture"* %10, %"class.std::future"* dereferenceable(16) %11)
          to label %23 unwind label %32

; <label>:23:                                     ; preds = %22
  call void @_ZNSt6futureIiED2Ev(%"class.std::future"* %11) #3
  %24 = getelementptr inbounds %"class.MARC::ThreadPool", %"class.MARC::ThreadPool"* %16, i32 0, i32 1
  %25 = call dereferenceable(16) %"class.std::packaged_task"* @_ZSt4moveIRSt13packaged_taskIFivEEEONSt16remove_referenceIT_E4typeEOS5_(%"class.std::packaged_task"* dereferenceable(16) %9) #3
  invoke void @_ZSt11make_uniqueIN4MARC10ThreadTaskISt13packaged_taskIFivEEEEJS4_EENSt9_MakeUniqIT_E15__single_objectEDpOT0_(%"class.std::unique_ptr.65"* sret %15, %"class.std::packaged_task"* dereferenceable(16) %25)
          to label %26 unwind label %36

; <label>:26:                                     ; preds = %23
  call void @_ZNSt10unique_ptrIN4MARC11IThreadTaskESt14default_deleteIS1_EEC2INS0_10ThreadTaskISt13packaged_taskIFivEEEES2_ISA_EvEEOS_IT_T0_E(%"class.std::unique_ptr"* %14, %"class.std::unique_ptr.65"* dereferenceable(8) %15) #3
  invoke void @_ZN4MARC15ThreadSafeQueueISt10unique_ptrINS_11IThreadTaskESt14default_deleteIS2_EEE4pushES5_(%"class.MARC::ThreadSafeQueue.0"* %24, %"class.std::unique_ptr"* %14)
          to label %27 unwind label %40

; <label>:27:                                     ; preds = %26
  call void @_ZNSt10unique_ptrIN4MARC11IThreadTaskESt14default_deleteIS1_EED2Ev(%"class.std::unique_ptr"* %14) #3
  call void @_ZNSt10unique_ptrIN4MARC10ThreadTaskISt13packaged_taskIFivEEEESt14default_deleteIS5_EED2Ev(%"class.std::unique_ptr.65"* %15) #3
  call void @_ZN4MARC10TaskFutureIiEC2EOS1_(%"class.MARC::TaskFuture"* %0, %"class.MARC::TaskFuture"* dereferenceable(16) %10) #3
  call void @_ZN4MARC10TaskFutureIiED2Ev(%"class.MARC::TaskFuture"* %10) #3
  call void @_ZNSt13packaged_taskIFivEED2Ev(%"class.std::packaged_task"* %9) #3
  ret void

; <label>:28:                                     ; preds = %4
  %29 = landingpad { i8*, i32 }
          cleanup
  %30 = extractvalue { i8*, i32 } %29, 0
  store i8* %30, i8** %12, align 8
  %31 = extractvalue { i8*, i32 } %29, 1
  store i32 %31, i32* %13, align 4
  br label %45

; <label>:32:                                     ; preds = %22
  %33 = landingpad { i8*, i32 }
          cleanup
  %34 = extractvalue { i8*, i32 } %33, 0
  store i8* %34, i8** %12, align 8
  %35 = extractvalue { i8*, i32 } %33, 1
  store i32 %35, i32* %13, align 4
  call void @_ZNSt6futureIiED2Ev(%"class.std::future"* %11) #3
  br label %45

; <label>:36:                                     ; preds = %23
  %37 = landingpad { i8*, i32 }
          cleanup
  %38 = extractvalue { i8*, i32 } %37, 0
  store i8* %38, i8** %12, align 8
  %39 = extractvalue { i8*, i32 } %37, 1
  store i32 %39, i32* %13, align 4
  br label %44

; <label>:40:                                     ; preds = %26
  %41 = landingpad { i8*, i32 }
          cleanup
  %42 = extractvalue { i8*, i32 } %41, 0
  store i8* %42, i8** %12, align 8
  %43 = extractvalue { i8*, i32 } %41, 1
  store i32 %43, i32* %13, align 4
  call void @_ZNSt10unique_ptrIN4MARC11IThreadTaskESt14default_deleteIS1_EED2Ev(%"class.std::unique_ptr"* %14) #3
  call void @_ZNSt10unique_ptrIN4MARC10ThreadTaskISt13packaged_taskIFivEEEESt14default_deleteIS5_EED2Ev(%"class.std::unique_ptr.65"* %15) #3
  br label %44

; <label>:44:                                     ; preds = %40, %36
  call void @_ZN4MARC10TaskFutureIiED2Ev(%"class.MARC::TaskFuture"* %10) #3
  br label %45

; <label>:45:                                     ; preds = %44, %32, %28
  call void @_ZNSt13packaged_taskIFivEED2Ev(%"class.std::packaged_task"* %9) #3
  br label %46

; <label>:46:                                     ; preds = %45
  %47 = load i8*, i8** %12, align 8
  %48 = load i32, i32* %13, align 4
  %49 = insertvalue { i8*, i32 } undef, i8* %47, 0
  %50 = insertvalue { i8*, i32 } %49, i32 %48, 1
  resume { i8*, i32 } %50
}

; Function Attrs: noinline uwtable
define linkonce_odr i32 @_ZN4MARC10TaskFutureIiE3getEv(%"class.MARC::TaskFuture"*) #0 comdat align 2 {
  %2 = alloca %"class.MARC::TaskFuture"*, align 8
  store %"class.MARC::TaskFuture"* %0, %"class.MARC::TaskFuture"** %2, align 8
  %3 = load %"class.MARC::TaskFuture"*, %"class.MARC::TaskFuture"** %2, align 8
  %4 = getelementptr inbounds %"class.MARC::TaskFuture", %"class.MARC::TaskFuture"* %3, i32 0, i32 0
  %5 = call i32 @_ZNSt6futureIiE3getEv(%"class.std::future"* %4)
  ret i32 %5
}

; Function Attrs: noinline nounwind uwtable
define linkonce_odr void @_ZN4MARC10TaskFutureIiED2Ev(%"class.MARC::TaskFuture"*) unnamed_addr #5 comdat align 2 personality i8* bitcast (i32 (...)* @__gxx_personality_v0 to i8*) {
  %2 = alloca %"class.MARC::TaskFuture"*, align 8
  %3 = alloca i32
  %4 = alloca i8*
  %5 = alloca i32
  store %"class.MARC::TaskFuture"* %0, %"class.MARC::TaskFuture"** %2, align 8
  %6 = load %"class.MARC::TaskFuture"*, %"class.MARC::TaskFuture"** %2, align 8
  %7 = getelementptr inbounds %"class.MARC::TaskFuture", %"class.MARC::TaskFuture"* %6, i32 0, i32 0
  %8 = bitcast %"class.std::future"* %7 to %"class.std::__basic_future"*
  %9 = call zeroext i1 @_ZNKSt14__basic_futureIiE5validEv(%"class.std::__basic_future"* %8) #3
  br i1 %9, label %11, label %10

; <label>:10:                                     ; preds = %1
  store i32 1, i32* %3, align 4
  br label %20

; <label>:11:                                     ; preds = %1
  %12 = getelementptr inbounds %"class.MARC::TaskFuture", %"class.MARC::TaskFuture"* %6, i32 0, i32 0
  %13 = invoke i32 @_ZNSt6futureIiE3getEv(%"class.std::future"* %12)
          to label %14 unwind label %15

; <label>:14:                                     ; preds = %11
  store i32 1, i32* %3, align 4
  br label %20

; <label>:15:                                     ; preds = %11
  %16 = landingpad { i8*, i32 }
          catch i8* null
  %17 = extractvalue { i8*, i32 } %16, 0
  store i8* %17, i8** %4, align 8
  %18 = extractvalue { i8*, i32 } %16, 1
  store i32 %18, i32* %5, align 4
  %19 = getelementptr inbounds %"class.MARC::TaskFuture", %"class.MARC::TaskFuture"* %6, i32 0, i32 0
  call void @_ZNSt6futureIiED2Ev(%"class.std::future"* %19) #3
  br label %22

; <label>:20:                                     ; preds = %14, %10
  %21 = getelementptr inbounds %"class.MARC::TaskFuture", %"class.MARC::TaskFuture"* %6, i32 0, i32 0
  call void @_ZNSt6futureIiED2Ev(%"class.std::future"* %21) #3
  ret void

; <label>:22:                                     ; preds = %15
  %23 = load i8*, i8** %4, align 8
  call void @__clang_call_terminate(i8* %23) #11
  unreachable
}

declare dereferenceable(272) %"class.std::basic_ostream"* @_ZStlsISt11char_traitsIcEERSt13basic_ostreamIcT_ES5_PKc(%"class.std::basic_ostream"* dereferenceable(272), i8*) #1

declare dereferenceable(272) %"class.std::basic_ostream"* @_ZNSolsEi(%"class.std::basic_ostream"*, i32) #1

; Function Attrs: noinline nounwind uwtable
define linkonce_odr void @_ZN4MARC15ThreadSafeQueueIiED2Ev(%"class.MARC::ThreadSafeQueue"*) unnamed_addr #5 comdat align 2 personality i8* bitcast (i32 (...)* @__gxx_personality_v0 to i8*) {
  %2 = alloca %"class.MARC::ThreadSafeQueue"*, align 8
  %3 = alloca i8*
  %4 = alloca i32
  store %"class.MARC::ThreadSafeQueue"* %0, %"class.MARC::ThreadSafeQueue"** %2, align 8
  %5 = load %"class.MARC::ThreadSafeQueue"*, %"class.MARC::ThreadSafeQueue"** %2, align 8
  invoke void @_ZN4MARC15ThreadSafeQueueIiE10invalidateEv(%"class.MARC::ThreadSafeQueue"* %5)
          to label %6 unwind label %10

; <label>:6:                                      ; preds = %1
  %7 = getelementptr inbounds %"class.MARC::ThreadSafeQueue", %"class.MARC::ThreadSafeQueue"* %5, i32 0, i32 4
  call void @_ZNSt18condition_variableD1Ev(%"class.std::condition_variable"* %7) #3
  %8 = getelementptr inbounds %"class.MARC::ThreadSafeQueue", %"class.MARC::ThreadSafeQueue"* %5, i32 0, i32 3
  call void @_ZNSt18condition_variableD1Ev(%"class.std::condition_variable"* %8) #3
  %9 = getelementptr inbounds %"class.MARC::ThreadSafeQueue", %"class.MARC::ThreadSafeQueue"* %5, i32 0, i32 2
  call void @_ZNSt5queueIiSt5dequeIiSaIiEEED2Ev(%"class.std::queue"* %9) #3
  ret void

; <label>:10:                                     ; preds = %1
  %11 = landingpad { i8*, i32 }
          catch i8* null
  %12 = extractvalue { i8*, i32 } %11, 0
  store i8* %12, i8** %3, align 8
  %13 = extractvalue { i8*, i32 } %11, 1
  store i32 %13, i32* %4, align 4
  %14 = getelementptr inbounds %"class.MARC::ThreadSafeQueue", %"class.MARC::ThreadSafeQueue"* %5, i32 0, i32 4
  call void @_ZNSt18condition_variableD1Ev(%"class.std::condition_variable"* %14) #3
  %15 = getelementptr inbounds %"class.MARC::ThreadSafeQueue", %"class.MARC::ThreadSafeQueue"* %5, i32 0, i32 3
  call void @_ZNSt18condition_variableD1Ev(%"class.std::condition_variable"* %15) #3
  %16 = getelementptr inbounds %"class.MARC::ThreadSafeQueue", %"class.MARC::ThreadSafeQueue"* %5, i32 0, i32 2
  call void @_ZNSt5queueIiSt5dequeIiSaIiEEED2Ev(%"class.std::queue"* %16) #3
  br label %17

; <label>:17:                                     ; preds = %10
  %18 = load i8*, i8** %3, align 8
  call void @__clang_call_terminate(i8* %18) #11
  unreachable
}

; Function Attrs: noinline nounwind uwtable
define linkonce_odr void @_ZN4MARC10ThreadPoolD2Ev(%"class.MARC::ThreadPool"*) unnamed_addr #5 comdat align 2 personality i8* bitcast (i32 (...)* @__gxx_personality_v0 to i8*) {
  %2 = alloca %"class.MARC::ThreadPool"*, align 8
  %3 = alloca i8*
  %4 = alloca i32
  store %"class.MARC::ThreadPool"* %0, %"class.MARC::ThreadPool"** %2, align 8
  %5 = load %"class.MARC::ThreadPool"*, %"class.MARC::ThreadPool"** %2, align 8
  invoke void @_ZN4MARC10ThreadPool7destroyEv(%"class.MARC::ThreadPool"* %5)
          to label %6 unwind label %10

; <label>:6:                                      ; preds = %1
  %7 = getelementptr inbounds %"class.MARC::ThreadPool", %"class.MARC::ThreadPool"* %5, i32 0, i32 4
  call void @_ZN4MARC15ThreadSafeQueueISt8functionIFvvEEED2Ev(%"class.MARC::ThreadSafeQueue.13"* %7) #3
  %8 = getelementptr inbounds %"class.MARC::ThreadPool", %"class.MARC::ThreadPool"* %5, i32 0, i32 2
  call void @_ZNSt6vectorISt6threadSaIS0_EED2Ev(%"class.std::vector"* %8) #3
  %9 = getelementptr inbounds %"class.MARC::ThreadPool", %"class.MARC::ThreadPool"* %5, i32 0, i32 1
  call void @_ZN4MARC15ThreadSafeQueueISt10unique_ptrINS_11IThreadTaskESt14default_deleteIS2_EEED2Ev(%"class.MARC::ThreadSafeQueue.0"* %9) #3
  ret void

; <label>:10:                                     ; preds = %1
  %11 = landingpad { i8*, i32 }
          catch i8* null
  %12 = extractvalue { i8*, i32 } %11, 0
  store i8* %12, i8** %3, align 8
  %13 = extractvalue { i8*, i32 } %11, 1
  store i32 %13, i32* %4, align 4
  %14 = getelementptr inbounds %"class.MARC::ThreadPool", %"class.MARC::ThreadPool"* %5, i32 0, i32 4
  call void @_ZN4MARC15ThreadSafeQueueISt8functionIFvvEEED2Ev(%"class.MARC::ThreadSafeQueue.13"* %14) #3
  %15 = getelementptr inbounds %"class.MARC::ThreadPool", %"class.MARC::ThreadPool"* %5, i32 0, i32 2
  call void @_ZNSt6vectorISt6threadSaIS0_EED2Ev(%"class.std::vector"* %15) #3
  %16 = getelementptr inbounds %"class.MARC::ThreadPool", %"class.MARC::ThreadPool"* %5, i32 0, i32 1
  call void @_ZN4MARC15ThreadSafeQueueISt10unique_ptrINS_11IThreadTaskESt14default_deleteIS2_EEED2Ev(%"class.MARC::ThreadSafeQueue.0"* %16) #3
  br label %17

; <label>:17:                                     ; preds = %10
  %18 = load i8*, i8** %3, align 8
  call void @__clang_call_terminate(i8* %18) #11
  unreachable
}

; Function Attrs: noinline nounwind uwtable
define linkonce_odr void @_ZNSt6atomicIbEC2Eb(%"struct.std::atomic"*, i1 zeroext) unnamed_addr #5 comdat align 2 {
  %3 = alloca %"struct.std::atomic"*, align 8
  %4 = alloca i8, align 1
  store %"struct.std::atomic"* %0, %"struct.std::atomic"** %3, align 8
  %5 = zext i1 %1 to i8
  store i8 %5, i8* %4, align 1
  %6 = load %"struct.std::atomic"*, %"struct.std::atomic"** %3, align 8
  %7 = getelementptr inbounds %"struct.std::atomic", %"struct.std::atomic"* %6, i32 0, i32 0
  %8 = load i8, i8* %4, align 1
  %9 = trunc i8 %8 to i1
  call void @_ZNSt13__atomic_baseIbEC2Eb(%"struct.std::__atomic_base"* %7, i1 zeroext %9) #3
  ret void
}

; Function Attrs: argmemonly nounwind
declare void @llvm.memset.p0i8.i64(i8* nocapture writeonly, i8, i64, i32, i1) #6

; Function Attrs: noinline uwtable
define linkonce_odr void @_ZN4MARC15ThreadSafeQueueISt10unique_ptrINS_11IThreadTaskESt14default_deleteIS2_EEEC2Ev(%"class.MARC::ThreadSafeQueue.0"*) unnamed_addr #0 comdat align 2 personality i8* bitcast (i32 (...)* @__gxx_personality_v0 to i8*) {
  %2 = alloca %"class.MARC::ThreadSafeQueue.0"*, align 8
  %3 = alloca %"class.std::deque.2", align 8
  %4 = alloca i8*
  %5 = alloca i32
  store %"class.MARC::ThreadSafeQueue.0"* %0, %"class.MARC::ThreadSafeQueue.0"** %2, align 8
  %6 = load %"class.MARC::ThreadSafeQueue.0"*, %"class.MARC::ThreadSafeQueue.0"** %2, align 8
  %7 = getelementptr inbounds %"class.MARC::ThreadSafeQueue.0", %"class.MARC::ThreadSafeQueue.0"* %6, i32 0, i32 0
  call void @_ZNSt6atomicIbEC2Eb(%"struct.std::atomic"* %7, i1 zeroext true) #3
  %8 = getelementptr inbounds %"class.MARC::ThreadSafeQueue.0", %"class.MARC::ThreadSafeQueue.0"* %6, i32 0, i32 1
  call void @_ZNSt5mutexC2Ev(%"class.std::mutex"* %8) #3
  %9 = getelementptr inbounds %"class.MARC::ThreadSafeQueue.0", %"class.MARC::ThreadSafeQueue.0"* %6, i32 0, i32 2
  call void @_ZNSt5dequeISt10unique_ptrIN4MARC11IThreadTaskESt14default_deleteIS2_EESaIS5_EEC2Ev(%"class.std::deque.2"* %3)
  invoke void @_ZNSt5queueISt10unique_ptrIN4MARC11IThreadTaskESt14default_deleteIS2_EESt5dequeIS5_SaIS5_EEEC2EOS8_(%"class.std::queue.1"* %9, %"class.std::deque.2"* dereferenceable(80) %3)
          to label %10 unwind label %13

; <label>:10:                                     ; preds = %1
  call void @_ZNSt5dequeISt10unique_ptrIN4MARC11IThreadTaskESt14default_deleteIS2_EESaIS5_EED2Ev(%"class.std::deque.2"* %3) #3
  %11 = getelementptr inbounds %"class.MARC::ThreadSafeQueue.0", %"class.MARC::ThreadSafeQueue.0"* %6, i32 0, i32 3
  call void @_ZNSt18condition_variableC1Ev(%"class.std::condition_variable"* %11) #3
  %12 = getelementptr inbounds %"class.MARC::ThreadSafeQueue.0", %"class.MARC::ThreadSafeQueue.0"* %6, i32 0, i32 4
  call void @_ZNSt18condition_variableC1Ev(%"class.std::condition_variable"* %12) #3
  ret void

; <label>:13:                                     ; preds = %1
  %14 = landingpad { i8*, i32 }
          cleanup
  %15 = extractvalue { i8*, i32 } %14, 0
  store i8* %15, i8** %4, align 8
  %16 = extractvalue { i8*, i32 } %14, 1
  store i32 %16, i32* %5, align 4
  call void @_ZNSt5dequeISt10unique_ptrIN4MARC11IThreadTaskESt14default_deleteIS2_EESaIS5_EED2Ev(%"class.std::deque.2"* %3) #3
  br label %17

; <label>:17:                                     ; preds = %13
  %18 = load i8*, i8** %4, align 8
  %19 = load i32, i32* %5, align 4
  %20 = insertvalue { i8*, i32 } undef, i8* %18, 0
  %21 = insertvalue { i8*, i32 } %20, i32 %19, 1
  resume { i8*, i32 } %21
}

; Function Attrs: noinline nounwind uwtable
define linkonce_odr void @_ZNSt6vectorISt6threadSaIS0_EEC2Ev(%"class.std::vector"*) unnamed_addr #5 comdat align 2 personality i8* bitcast (i32 (...)* @__gxx_personality_v0 to i8*) {
  %2 = alloca %"class.std::vector"*, align 8
  store %"class.std::vector"* %0, %"class.std::vector"** %2, align 8
  %3 = load %"class.std::vector"*, %"class.std::vector"** %2, align 8
  %4 = bitcast %"class.std::vector"* %3 to %"struct.std::_Vector_base"*
  invoke void @_ZNSt12_Vector_baseISt6threadSaIS0_EEC2Ev(%"struct.std::_Vector_base"* %4)
          to label %5 unwind label %6

; <label>:5:                                      ; preds = %1
  ret void

; <label>:6:                                      ; preds = %1
  %7 = landingpad { i8*, i32 }
          catch i8* null
  %8 = extractvalue { i8*, i32 } %7, 0
  call void @__clang_call_terminate(i8* %8) #11
  unreachable
}

; Function Attrs: noinline uwtable
define linkonce_odr void @_ZN4MARC15ThreadSafeQueueISt8functionIFvvEEEC2Ev(%"class.MARC::ThreadSafeQueue.13"*) unnamed_addr #0 comdat align 2 personality i8* bitcast (i32 (...)* @__gxx_personality_v0 to i8*) {
  %2 = alloca %"class.MARC::ThreadSafeQueue.13"*, align 8
  %3 = alloca %"class.std::deque.15", align 8
  %4 = alloca i8*
  %5 = alloca i32
  store %"class.MARC::ThreadSafeQueue.13"* %0, %"class.MARC::ThreadSafeQueue.13"** %2, align 8
  %6 = load %"class.MARC::ThreadSafeQueue.13"*, %"class.MARC::ThreadSafeQueue.13"** %2, align 8
  %7 = getelementptr inbounds %"class.MARC::ThreadSafeQueue.13", %"class.MARC::ThreadSafeQueue.13"* %6, i32 0, i32 0
  call void @_ZNSt6atomicIbEC2Eb(%"struct.std::atomic"* %7, i1 zeroext true) #3
  %8 = getelementptr inbounds %"class.MARC::ThreadSafeQueue.13", %"class.MARC::ThreadSafeQueue.13"* %6, i32 0, i32 1
  call void @_ZNSt5mutexC2Ev(%"class.std::mutex"* %8) #3
  %9 = getelementptr inbounds %"class.MARC::ThreadSafeQueue.13", %"class.MARC::ThreadSafeQueue.13"* %6, i32 0, i32 2
  call void @_ZNSt5dequeISt8functionIFvvEESaIS2_EEC2Ev(%"class.std::deque.15"* %3)
  invoke void @_ZNSt5queueISt8functionIFvvEESt5dequeIS2_SaIS2_EEEC2EOS5_(%"class.std::queue.14"* %9, %"class.std::deque.15"* dereferenceable(80) %3)
          to label %10 unwind label %13

; <label>:10:                                     ; preds = %1
  call void @_ZNSt5dequeISt8functionIFvvEESaIS2_EED2Ev(%"class.std::deque.15"* %3) #3
  %11 = getelementptr inbounds %"class.MARC::ThreadSafeQueue.13", %"class.MARC::ThreadSafeQueue.13"* %6, i32 0, i32 3
  call void @_ZNSt18condition_variableC1Ev(%"class.std::condition_variable"* %11) #3
  %12 = getelementptr inbounds %"class.MARC::ThreadSafeQueue.13", %"class.MARC::ThreadSafeQueue.13"* %6, i32 0, i32 4
  call void @_ZNSt18condition_variableC1Ev(%"class.std::condition_variable"* %12) #3
  ret void

; <label>:13:                                     ; preds = %1
  %14 = landingpad { i8*, i32 }
          cleanup
  %15 = extractvalue { i8*, i32 } %14, 0
  store i8* %15, i8** %4, align 8
  %16 = extractvalue { i8*, i32 } %14, 1
  store i32 %16, i32* %5, align 4
  call void @_ZNSt5dequeISt8functionIFvvEESaIS2_EED2Ev(%"class.std::deque.15"* %3) #3
  br label %17

; <label>:17:                                     ; preds = %13
  %18 = load i8*, i8** %4, align 8
  %19 = load i32, i32* %5, align 4
  %20 = insertvalue { i8*, i32 } undef, i8* %18, 0
  %21 = insertvalue { i8*, i32 } %20, i32 %19, 1
  resume { i8*, i32 } %21
}

; Function Attrs: nobuiltin
declare noalias i8* @_Znam(i64) #7

; Function Attrs: noinline nounwind uwtable
define linkonce_odr zeroext i1 @_ZNSt6atomicIbEaSEb(%"struct.std::atomic"*, i1 zeroext) #5 comdat align 2 {
  %3 = alloca %"struct.std::atomic"*, align 8
  %4 = alloca i8, align 1
  store %"struct.std::atomic"* %0, %"struct.std::atomic"** %3, align 8
  %5 = zext i1 %1 to i8
  store i8 %5, i8* %4, align 1
  %6 = load %"struct.std::atomic"*, %"struct.std::atomic"** %3, align 8
  %7 = getelementptr inbounds %"struct.std::atomic", %"struct.std::atomic"* %6, i32 0, i32 0
  %8 = load i8, i8* %4, align 1
  %9 = trunc i8 %8 to i1
  %10 = call zeroext i1 @_ZNSt13__atomic_baseIbEaSEb(%"struct.std::__atomic_base"* %7, i1 zeroext %9) #3
  ret i1 %10
}

; Function Attrs: noinline uwtable
define linkonce_odr void @_ZNSt6vectorISt6threadSaIS0_EE12emplace_backIJMN4MARC10ThreadPoolEFvPSt6atomicIbEEPS5_S8_EEEvDpOT_(%"class.std::vector"*, { i64, i64 }* dereferenceable(16), %"class.MARC::ThreadPool"** dereferenceable(8), %"struct.std::atomic"** dereferenceable(8)) #0 comdat align 2 {
  %5 = alloca %"class.std::vector"*, align 8
  %6 = alloca { i64, i64 }*, align 8
  %7 = alloca %"class.MARC::ThreadPool"**, align 8
  %8 = alloca %"struct.std::atomic"**, align 8
  store %"class.std::vector"* %0, %"class.std::vector"** %5, align 8
  store { i64, i64 }* %1, { i64, i64 }** %6, align 8
  store %"class.MARC::ThreadPool"** %2, %"class.MARC::ThreadPool"*** %7, align 8
  store %"struct.std::atomic"** %3, %"struct.std::atomic"*** %8, align 8
  %9 = load %"class.std::vector"*, %"class.std::vector"** %5, align 8
  %10 = bitcast %"class.std::vector"* %9 to %"struct.std::_Vector_base"*
  %11 = getelementptr inbounds %"struct.std::_Vector_base", %"struct.std::_Vector_base"* %10, i32 0, i32 0
  %12 = getelementptr inbounds %"struct.std::_Vector_base<std::thread, std::allocator<std::thread> >::_Vector_impl", %"struct.std::_Vector_base<std::thread, std::allocator<std::thread> >::_Vector_impl"* %11, i32 0, i32 1
  %13 = load %"class.std::thread"*, %"class.std::thread"** %12, align 8
  %14 = bitcast %"class.std::vector"* %9 to %"struct.std::_Vector_base"*
  %15 = getelementptr inbounds %"struct.std::_Vector_base", %"struct.std::_Vector_base"* %14, i32 0, i32 0
  %16 = getelementptr inbounds %"struct.std::_Vector_base<std::thread, std::allocator<std::thread> >::_Vector_impl", %"struct.std::_Vector_base<std::thread, std::allocator<std::thread> >::_Vector_impl"* %15, i32 0, i32 2
  %17 = load %"class.std::thread"*, %"class.std::thread"** %16, align 8
  %18 = icmp ne %"class.std::thread"* %13, %17
  br i1 %18, label %19, label %38

; <label>:19:                                     ; preds = %4
  %20 = bitcast %"class.std::vector"* %9 to %"struct.std::_Vector_base"*
  %21 = getelementptr inbounds %"struct.std::_Vector_base", %"struct.std::_Vector_base"* %20, i32 0, i32 0
  %22 = bitcast %"struct.std::_Vector_base<std::thread, std::allocator<std::thread> >::_Vector_impl"* %21 to %"class.std::allocator.10"*
  %23 = bitcast %"class.std::vector"* %9 to %"struct.std::_Vector_base"*
  %24 = getelementptr inbounds %"struct.std::_Vector_base", %"struct.std::_Vector_base"* %23, i32 0, i32 0
  %25 = getelementptr inbounds %"struct.std::_Vector_base<std::thread, std::allocator<std::thread> >::_Vector_impl", %"struct.std::_Vector_base<std::thread, std::allocator<std::thread> >::_Vector_impl"* %24, i32 0, i32 1
  %26 = load %"class.std::thread"*, %"class.std::thread"** %25, align 8
  %27 = load { i64, i64 }*, { i64, i64 }** %6, align 8
  %28 = call dereferenceable(16) { i64, i64 }* @_ZSt7forwardIMN4MARC10ThreadPoolEFvPSt6atomicIbEEEOT_RNSt16remove_referenceIS7_E4typeE({ i64, i64 }* dereferenceable(16) %27) #3
  %29 = load %"class.MARC::ThreadPool"**, %"class.MARC::ThreadPool"*** %7, align 8
  %30 = call dereferenceable(8) %"class.MARC::ThreadPool"** @_ZSt7forwardIPN4MARC10ThreadPoolEEOT_RNSt16remove_referenceIS3_E4typeE(%"class.MARC::ThreadPool"** dereferenceable(8) %29) #3
  %31 = load %"struct.std::atomic"**, %"struct.std::atomic"*** %8, align 8
  %32 = call dereferenceable(8) %"struct.std::atomic"** @_ZSt7forwardIPSt6atomicIbEEOT_RNSt16remove_referenceIS3_E4typeE(%"struct.std::atomic"** dereferenceable(8) %31) #3
  call void @_ZNSt16allocator_traitsISaISt6threadEE9constructIS0_JMN4MARC10ThreadPoolEFvPSt6atomicIbEEPS5_S8_EEEvRS1_PT_DpOT0_(%"class.std::allocator.10"* dereferenceable(1) %22, %"class.std::thread"* %26, { i64, i64 }* dereferenceable(16) %28, %"class.MARC::ThreadPool"** dereferenceable(8) %30, %"struct.std::atomic"** dereferenceable(8) %32)
  %33 = bitcast %"class.std::vector"* %9 to %"struct.std::_Vector_base"*
  %34 = getelementptr inbounds %"struct.std::_Vector_base", %"struct.std::_Vector_base"* %33, i32 0, i32 0
  %35 = getelementptr inbounds %"struct.std::_Vector_base<std::thread, std::allocator<std::thread> >::_Vector_impl", %"struct.std::_Vector_base<std::thread, std::allocator<std::thread> >::_Vector_impl"* %34, i32 0, i32 1
  %36 = load %"class.std::thread"*, %"class.std::thread"** %35, align 8
  %37 = getelementptr inbounds %"class.std::thread", %"class.std::thread"* %36, i32 1
  store %"class.std::thread"* %37, %"class.std::thread"** %35, align 8
  br label %45

; <label>:38:                                     ; preds = %4
  %39 = load { i64, i64 }*, { i64, i64 }** %6, align 8
  %40 = call dereferenceable(16) { i64, i64 }* @_ZSt7forwardIMN4MARC10ThreadPoolEFvPSt6atomicIbEEEOT_RNSt16remove_referenceIS7_E4typeE({ i64, i64 }* dereferenceable(16) %39) #3
  %41 = load %"class.MARC::ThreadPool"**, %"class.MARC::ThreadPool"*** %7, align 8
  %42 = call dereferenceable(8) %"class.MARC::ThreadPool"** @_ZSt7forwardIPN4MARC10ThreadPoolEEOT_RNSt16remove_referenceIS3_E4typeE(%"class.MARC::ThreadPool"** dereferenceable(8) %41) #3
  %43 = load %"struct.std::atomic"**, %"struct.std::atomic"*** %8, align 8
  %44 = call dereferenceable(8) %"struct.std::atomic"** @_ZSt7forwardIPSt6atomicIbEEOT_RNSt16remove_referenceIS3_E4typeE(%"struct.std::atomic"** dereferenceable(8) %43) #3
  call void @_ZNSt6vectorISt6threadSaIS0_EE19_M_emplace_back_auxIJMN4MARC10ThreadPoolEFvPSt6atomicIbEEPS5_S8_EEEvDpOT_(%"class.std::vector"* %9, { i64, i64 }* dereferenceable(16) %40, %"class.MARC::ThreadPool"** dereferenceable(8) %42, %"struct.std::atomic"** dereferenceable(8) %44)
  br label %45

; <label>:45:                                     ; preds = %38, %19
  ret void
}

; Function Attrs: noinline uwtable
define linkonce_odr void @_ZN4MARC10ThreadPool6workerEPSt6atomicIbE(%"class.MARC::ThreadPool"*, %"struct.std::atomic"*) #0 comdat align 2 personality i8* bitcast (i32 (...)* @__gxx_personality_v0 to i8*) {
  %3 = alloca %"class.MARC::ThreadPool"*, align 8
  %4 = alloca %"struct.std::atomic"*, align 8
  %5 = alloca %"class.std::unique_ptr", align 8
  %6 = alloca i8*
  %7 = alloca i32
  store %"class.MARC::ThreadPool"* %0, %"class.MARC::ThreadPool"** %3, align 8
  store %"struct.std::atomic"* %1, %"struct.std::atomic"** %4, align 8
  %8 = load %"class.MARC::ThreadPool"*, %"class.MARC::ThreadPool"** %3, align 8
  br label %9

; <label>:9:                                      ; preds = %32, %2
  %10 = getelementptr inbounds %"class.MARC::ThreadPool", %"class.MARC::ThreadPool"* %8, i32 0, i32 0
  %11 = call zeroext i1 @_ZNKSt6atomicIbEcvbEv(%"struct.std::atomic"* %10) #3
  %12 = xor i1 %11, true
  br i1 %12, label %13, label %33

; <label>:13:                                     ; preds = %9
  %14 = load %"struct.std::atomic"*, %"struct.std::atomic"** %4, align 8
  %15 = call zeroext i1 @_ZNSt6atomicIbEaSEb(%"struct.std::atomic"* %14, i1 zeroext true) #3
  call void @_ZNSt10unique_ptrIN4MARC11IThreadTaskESt14default_deleteIS1_EEC2EDn(%"class.std::unique_ptr"* %5, i8* null) #3
  %16 = getelementptr inbounds %"class.MARC::ThreadPool", %"class.MARC::ThreadPool"* %8, i32 0, i32 1
  %17 = invoke zeroext i1 @_ZN4MARC15ThreadSafeQueueISt10unique_ptrINS_11IThreadTaskESt14default_deleteIS2_EEE7waitPopERS5_(%"class.MARC::ThreadSafeQueue.0"* %16, %"class.std::unique_ptr"* dereferenceable(8) %5)
          to label %18 unwind label %28

; <label>:18:                                     ; preds = %13
  br i1 %17, label %19, label %32

; <label>:19:                                     ; preds = %18
  %20 = load %"struct.std::atomic"*, %"struct.std::atomic"** %4, align 8
  %21 = call zeroext i1 @_ZNSt6atomicIbEaSEb(%"struct.std::atomic"* %20, i1 zeroext false) #3
  %22 = call %"class.MARC::IThreadTask"* @_ZNKSt10unique_ptrIN4MARC11IThreadTaskESt14default_deleteIS1_EEptEv(%"class.std::unique_ptr"* %5) #3
  %23 = bitcast %"class.MARC::IThreadTask"* %22 to void (%"class.MARC::IThreadTask"*)***
  %24 = load void (%"class.MARC::IThreadTask"*)**, void (%"class.MARC::IThreadTask"*)*** %23, align 8
  %25 = getelementptr inbounds void (%"class.MARC::IThreadTask"*)*, void (%"class.MARC::IThreadTask"*)** %24, i64 0
  %26 = load void (%"class.MARC::IThreadTask"*)*, void (%"class.MARC::IThreadTask"*)** %25, align 8
  invoke void %26(%"class.MARC::IThreadTask"* %22)
          to label %27 unwind label %28

; <label>:27:                                     ; preds = %19
  br label %32

; <label>:28:                                     ; preds = %19, %13
  %29 = landingpad { i8*, i32 }
          cleanup
  %30 = extractvalue { i8*, i32 } %29, 0
  store i8* %30, i8** %6, align 8
  %31 = extractvalue { i8*, i32 } %29, 1
  store i32 %31, i32* %7, align 4
  call void @_ZNSt10unique_ptrIN4MARC11IThreadTaskESt14default_deleteIS1_EED2Ev(%"class.std::unique_ptr"* %5) #3
  br label %34

; <label>:32:                                     ; preds = %27, %18
  call void @_ZNSt10unique_ptrIN4MARC11IThreadTaskESt14default_deleteIS1_EED2Ev(%"class.std::unique_ptr"* %5) #3
  br label %9

; <label>:33:                                     ; preds = %9
  ret void

; <label>:34:                                     ; preds = %28
  %35 = load i8*, i8** %6, align 8
  %36 = load i32, i32* %7, align 4
  %37 = insertvalue { i8*, i32 } undef, i8* %35, 0
  %38 = insertvalue { i8*, i32 } %37, i32 %36, 1
  resume { i8*, i32 } %38
}

declare i8* @__cxa_begin_catch(i8*)

; Function Attrs: noinline uwtable
define linkonce_odr void @_ZN4MARC10ThreadPool7destroyEv(%"class.MARC::ThreadPool"*) #0 comdat align 2 personality i8* bitcast (i32 (...)* @__gxx_personality_v0 to i8*) {
  %2 = alloca %"class.MARC::ThreadPool"*, align 8
  %3 = alloca %"class.std::function", align 8
  %4 = alloca i8*
  %5 = alloca i32
  %6 = alloca %"class.std::vector"*, align 8
  %7 = alloca %"class.__gnu_cxx::__normal_iterator", align 8
  %8 = alloca %"class.__gnu_cxx::__normal_iterator", align 8
  %9 = alloca %"class.std::thread"*, align 8
  store %"class.MARC::ThreadPool"* %0, %"class.MARC::ThreadPool"** %2, align 8
  %10 = load %"class.MARC::ThreadPool"*, %"class.MARC::ThreadPool"** %2, align 8
  br label %11

; <label>:11:                                     ; preds = %19, %1
  %12 = getelementptr inbounds %"class.MARC::ThreadPool", %"class.MARC::ThreadPool"* %10, i32 0, i32 4
  %13 = call i64 @_ZNK4MARC15ThreadSafeQueueISt8functionIFvvEEE4sizeEv(%"class.MARC::ThreadSafeQueue.13"* %12)
  %14 = icmp sgt i64 %13, 0
  br i1 %14, label %15, label %24

; <label>:15:                                     ; preds = %11
  call void @_ZNSt8functionIFvvEEC2Ev(%"class.std::function"* %3) #3
  %16 = getelementptr inbounds %"class.MARC::ThreadPool", %"class.MARC::ThreadPool"* %10, i32 0, i32 4
  %17 = invoke zeroext i1 @_ZN4MARC15ThreadSafeQueueISt8functionIFvvEEE7waitPopERS3_(%"class.MARC::ThreadSafeQueue.13"* %16, %"class.std::function"* dereferenceable(32) %3)
          to label %18 unwind label %20

; <label>:18:                                     ; preds = %15
  invoke void @_ZNKSt8functionIFvvEEclEv(%"class.std::function"* %3)
          to label %19 unwind label %20

; <label>:19:                                     ; preds = %18
  call void @_ZNSt8functionIFvvEED2Ev(%"class.std::function"* %3) #3
  br label %11

; <label>:20:                                     ; preds = %18, %15
  %21 = landingpad { i8*, i32 }
          cleanup
  %22 = extractvalue { i8*, i32 } %21, 0
  store i8* %22, i8** %4, align 8
  %23 = extractvalue { i8*, i32 } %21, 1
  store i32 %23, i32* %5, align 4
  call void @_ZNSt8functionIFvvEED2Ev(%"class.std::function"* %3) #3
  br label %53

; <label>:24:                                     ; preds = %11
  %25 = getelementptr inbounds %"class.MARC::ThreadPool", %"class.MARC::ThreadPool"* %10, i32 0, i32 0
  %26 = call zeroext i1 @_ZNSt6atomicIbEaSEb(%"struct.std::atomic"* %25, i1 zeroext true) #3
  %27 = getelementptr inbounds %"class.MARC::ThreadPool", %"class.MARC::ThreadPool"* %10, i32 0, i32 1
  call void @_ZN4MARC15ThreadSafeQueueISt10unique_ptrINS_11IThreadTaskESt14default_deleteIS2_EEE10invalidateEv(%"class.MARC::ThreadSafeQueue.0"* %27)
  %28 = getelementptr inbounds %"class.MARC::ThreadPool", %"class.MARC::ThreadPool"* %10, i32 0, i32 2
  store %"class.std::vector"* %28, %"class.std::vector"** %6, align 8
  %29 = load %"class.std::vector"*, %"class.std::vector"** %6, align 8
  %30 = call %"class.std::thread"* @_ZNSt6vectorISt6threadSaIS0_EE5beginEv(%"class.std::vector"* %29) #3
  %31 = getelementptr inbounds %"class.__gnu_cxx::__normal_iterator", %"class.__gnu_cxx::__normal_iterator"* %7, i32 0, i32 0
  store %"class.std::thread"* %30, %"class.std::thread"** %31, align 8
  %32 = load %"class.std::vector"*, %"class.std::vector"** %6, align 8
  %33 = call %"class.std::thread"* @_ZNSt6vectorISt6threadSaIS0_EE3endEv(%"class.std::vector"* %32) #3
  %34 = getelementptr inbounds %"class.__gnu_cxx::__normal_iterator", %"class.__gnu_cxx::__normal_iterator"* %8, i32 0, i32 0
  store %"class.std::thread"* %33, %"class.std::thread"** %34, align 8
  br label %35

; <label>:35:                                     ; preds = %44, %24
  %36 = call zeroext i1 @_ZN9__gnu_cxxneIPSt6threadSt6vectorIS1_SaIS1_EEEEbRKNS_17__normal_iteratorIT_T0_EESB_(%"class.__gnu_cxx::__normal_iterator"* dereferenceable(8) %7, %"class.__gnu_cxx::__normal_iterator"* dereferenceable(8) %8) #3
  br i1 %36, label %37, label %46

; <label>:37:                                     ; preds = %35
  %38 = call dereferenceable(8) %"class.std::thread"* @_ZNK9__gnu_cxx17__normal_iteratorIPSt6threadSt6vectorIS1_SaIS1_EEEdeEv(%"class.__gnu_cxx::__normal_iterator"* %7) #3
  store %"class.std::thread"* %38, %"class.std::thread"** %9, align 8
  %39 = load %"class.std::thread"*, %"class.std::thread"** %9, align 8
  %40 = call zeroext i1 @_ZNKSt6thread8joinableEv(%"class.std::thread"* %39) #3
  br i1 %40, label %42, label %41

; <label>:41:                                     ; preds = %37
  br label %44

; <label>:42:                                     ; preds = %37
  %43 = load %"class.std::thread"*, %"class.std::thread"** %9, align 8
  call void @_ZNSt6thread4joinEv(%"class.std::thread"* %43)
  br label %44

; <label>:44:                                     ; preds = %42, %41
  %45 = call dereferenceable(8) %"class.__gnu_cxx::__normal_iterator"* @_ZN9__gnu_cxx17__normal_iteratorIPSt6threadSt6vectorIS1_SaIS1_EEEppEv(%"class.__gnu_cxx::__normal_iterator"* %7) #3
  br label %35

; <label>:46:                                     ; preds = %35
  %47 = getelementptr inbounds %"class.MARC::ThreadPool", %"class.MARC::ThreadPool"* %10, i32 0, i32 3
  %48 = load %"struct.std::atomic"*, %"struct.std::atomic"** %47, align 8
  %49 = icmp eq %"struct.std::atomic"* %48, null
  br i1 %49, label %52, label %50

; <label>:50:                                     ; preds = %46
  %51 = bitcast %"struct.std::atomic"* %48 to i8*
  call void @_ZdaPv(i8* %51) #16
  br label %52

; <label>:52:                                     ; preds = %50, %46
  ret void

; <label>:53:                                     ; preds = %20
  %54 = load i8*, i8** %4, align 8
  %55 = load i32, i32* %5, align 4
  %56 = insertvalue { i8*, i32 } undef, i8* %54, 0
  %57 = insertvalue { i8*, i32 } %56, i32 %55, 1
  resume { i8*, i32 } %57
}

declare void @__cxa_rethrow()

declare void @__cxa_end_catch()

; Function Attrs: noinline noreturn nounwind
define linkonce_odr hidden void @__clang_call_terminate(i8*) #8 comdat {
  %2 = call i8* @__cxa_begin_catch(i8* %0) #3
  call void @_ZSt9terminatev() #11
  unreachable
}

declare void @_ZSt9terminatev()

; Function Attrs: noinline nounwind uwtable
define linkonce_odr zeroext i1 @_ZStneIvJEEbRKSt8functionIFT_DpT0_EEDn(%"class.std::function"* dereferenceable(32), i8*) #5 comdat {
  %3 = alloca %"class.std::function"*, align 8
  %4 = alloca i8*, align 8
  store %"class.std::function"* %0, %"class.std::function"** %3, align 8
  store i8* %1, i8** %4, align 8
  %5 = load %"class.std::function"*, %"class.std::function"** %3, align 8
  %6 = call zeroext i1 @_ZNKSt8functionIFvvEEcvbEv(%"class.std::function"* %5) #3
  ret i1 %6
}

; Function Attrs: noinline uwtable
define linkonce_odr void @_ZN4MARC15ThreadSafeQueueISt8functionIFvvEEE4pushES3_(%"class.MARC::ThreadSafeQueue.13"*, %"class.std::function"*) #0 comdat align 2 personality i8* bitcast (i32 (...)* @__gxx_personality_v0 to i8*) {
  %3 = alloca %"class.MARC::ThreadSafeQueue.13"*, align 8
  %4 = alloca %"class.std::lock_guard", align 8
  %5 = alloca i8*
  %6 = alloca i32
  store %"class.MARC::ThreadSafeQueue.13"* %0, %"class.MARC::ThreadSafeQueue.13"** %3, align 8
  %7 = load %"class.MARC::ThreadSafeQueue.13"*, %"class.MARC::ThreadSafeQueue.13"** %3, align 8
  %8 = getelementptr inbounds %"class.MARC::ThreadSafeQueue.13", %"class.MARC::ThreadSafeQueue.13"* %7, i32 0, i32 1
  call void @_ZNSt10lock_guardISt5mutexEC2ERS0_(%"class.std::lock_guard"* %4, %"class.std::mutex"* dereferenceable(40) %8)
  invoke void @_ZN4MARC15ThreadSafeQueueISt8functionIFvvEEE13internal_pushERS3_(%"class.MARC::ThreadSafeQueue.13"* %7, %"class.std::function"* dereferenceable(32) %1)
          to label %9 unwind label %10

; <label>:9:                                      ; preds = %2
  call void @_ZNSt10lock_guardISt5mutexED2Ev(%"class.std::lock_guard"* %4) #3
  ret void

; <label>:10:                                     ; preds = %2
  %11 = landingpad { i8*, i32 }
          cleanup
  %12 = extractvalue { i8*, i32 } %11, 0
  store i8* %12, i8** %5, align 8
  %13 = extractvalue { i8*, i32 } %11, 1
  store i32 %13, i32* %6, align 4
  call void @_ZNSt10lock_guardISt5mutexED2Ev(%"class.std::lock_guard"* %4) #3
  br label %14

; <label>:14:                                     ; preds = %10
  %15 = load i8*, i8** %5, align 8
  %16 = load i32, i32* %6, align 4
  %17 = insertvalue { i8*, i32 } undef, i8* %15, 0
  %18 = insertvalue { i8*, i32 } %17, i32 %16, 1
  resume { i8*, i32 } %18
}

; Function Attrs: noinline uwtable
define linkonce_odr void @_ZNSt8functionIFvvEEC2ERKS1_(%"class.std::function"*, %"class.std::function"* dereferenceable(32)) unnamed_addr #0 comdat align 2 personality i8* bitcast (i32 (...)* @__gxx_personality_v0 to i8*) {
  %3 = alloca %"class.std::function"*, align 8
  %4 = alloca %"class.std::function"*, align 8
  %5 = alloca i8*
  %6 = alloca i32
  store %"class.std::function"* %0, %"class.std::function"** %3, align 8
  store %"class.std::function"* %1, %"class.std::function"** %4, align 8
  %7 = load %"class.std::function"*, %"class.std::function"** %3, align 8
  %8 = bitcast %"class.std::function"* %7 to %"struct.std::_Maybe_unary_or_binary_function"*
  %9 = bitcast %"class.std::function"* %7 to %"class.std::_Function_base"*
  call void @_ZNSt14_Function_baseC2Ev(%"class.std::_Function_base"* %9)
  %10 = load %"class.std::function"*, %"class.std::function"** %4, align 8
  %11 = call zeroext i1 @_ZNKSt8functionIFvvEEcvbEv(%"class.std::function"* %10) #3
  br i1 %11, label %12, label %39

; <label>:12:                                     ; preds = %2
  %13 = load %"class.std::function"*, %"class.std::function"** %4, align 8
  %14 = bitcast %"class.std::function"* %13 to %"class.std::_Function_base"*
  %15 = getelementptr inbounds %"class.std::_Function_base", %"class.std::_Function_base"* %14, i32 0, i32 1
  %16 = load i1 (%"union.std::_Any_data"*, %"union.std::_Any_data"*, i32)*, i1 (%"union.std::_Any_data"*, %"union.std::_Any_data"*, i32)** %15, align 8
  %17 = bitcast %"class.std::function"* %7 to %"class.std::_Function_base"*
  %18 = getelementptr inbounds %"class.std::_Function_base", %"class.std::_Function_base"* %17, i32 0, i32 0
  %19 = load %"class.std::function"*, %"class.std::function"** %4, align 8
  %20 = bitcast %"class.std::function"* %19 to %"class.std::_Function_base"*
  %21 = getelementptr inbounds %"class.std::_Function_base", %"class.std::_Function_base"* %20, i32 0, i32 0
  %22 = invoke zeroext i1 %16(%"union.std::_Any_data"* dereferenceable(16) %18, %"union.std::_Any_data"* dereferenceable(16) %21, i32 2)
          to label %23 unwind label %34

; <label>:23:                                     ; preds = %12
  %24 = load %"class.std::function"*, %"class.std::function"** %4, align 8
  %25 = getelementptr inbounds %"class.std::function", %"class.std::function"* %24, i32 0, i32 1
  %26 = load void (%"union.std::_Any_data"*)*, void (%"union.std::_Any_data"*)** %25, align 8
  %27 = getelementptr inbounds %"class.std::function", %"class.std::function"* %7, i32 0, i32 1
  store void (%"union.std::_Any_data"*)* %26, void (%"union.std::_Any_data"*)** %27, align 8
  %28 = load %"class.std::function"*, %"class.std::function"** %4, align 8
  %29 = bitcast %"class.std::function"* %28 to %"class.std::_Function_base"*
  %30 = getelementptr inbounds %"class.std::_Function_base", %"class.std::_Function_base"* %29, i32 0, i32 1
  %31 = load i1 (%"union.std::_Any_data"*, %"union.std::_Any_data"*, i32)*, i1 (%"union.std::_Any_data"*, %"union.std::_Any_data"*, i32)** %30, align 8
  %32 = bitcast %"class.std::function"* %7 to %"class.std::_Function_base"*
  %33 = getelementptr inbounds %"class.std::_Function_base", %"class.std::_Function_base"* %32, i32 0, i32 1
  store i1 (%"union.std::_Any_data"*, %"union.std::_Any_data"*, i32)* %31, i1 (%"union.std::_Any_data"*, %"union.std::_Any_data"*, i32)** %33, align 8
  br label %39

; <label>:34:                                     ; preds = %12
  %35 = landingpad { i8*, i32 }
          cleanup
  %36 = extractvalue { i8*, i32 } %35, 0
  store i8* %36, i8** %5, align 8
  %37 = extractvalue { i8*, i32 } %35, 1
  store i32 %37, i32* %6, align 4
  %38 = bitcast %"class.std::function"* %7 to %"class.std::_Function_base"*
  call void @_ZNSt14_Function_baseD2Ev(%"class.std::_Function_base"* %38) #3
  br label %40

; <label>:39:                                     ; preds = %23, %2
  ret void

; <label>:40:                                     ; preds = %34
  %41 = load i8*, i8** %5, align 8
  %42 = load i32, i32* %6, align 4
  %43 = insertvalue { i8*, i32 } undef, i8* %41, 0
  %44 = insertvalue { i8*, i32 } %43, i32 %42, 1
  resume { i8*, i32 } %44
}

; Function Attrs: noinline nounwind uwtable
define linkonce_odr void @_ZN4MARC15ThreadSafeQueueISt8functionIFvvEEED2Ev(%"class.MARC::ThreadSafeQueue.13"*) unnamed_addr #5 comdat align 2 personality i8* bitcast (i32 (...)* @__gxx_personality_v0 to i8*) {
  %2 = alloca %"class.MARC::ThreadSafeQueue.13"*, align 8
  %3 = alloca i8*
  %4 = alloca i32
  store %"class.MARC::ThreadSafeQueue.13"* %0, %"class.MARC::ThreadSafeQueue.13"** %2, align 8
  %5 = load %"class.MARC::ThreadSafeQueue.13"*, %"class.MARC::ThreadSafeQueue.13"** %2, align 8
  invoke void @_ZN4MARC15ThreadSafeQueueISt8functionIFvvEEE10invalidateEv(%"class.MARC::ThreadSafeQueue.13"* %5)
          to label %6 unwind label %10

; <label>:6:                                      ; preds = %1
  %7 = getelementptr inbounds %"class.MARC::ThreadSafeQueue.13", %"class.MARC::ThreadSafeQueue.13"* %5, i32 0, i32 4
  call void @_ZNSt18condition_variableD1Ev(%"class.std::condition_variable"* %7) #3
  %8 = getelementptr inbounds %"class.MARC::ThreadSafeQueue.13", %"class.MARC::ThreadSafeQueue.13"* %5, i32 0, i32 3
  call void @_ZNSt18condition_variableD1Ev(%"class.std::condition_variable"* %8) #3
  %9 = getelementptr inbounds %"class.MARC::ThreadSafeQueue.13", %"class.MARC::ThreadSafeQueue.13"* %5, i32 0, i32 2
  call void @_ZNSt5queueISt8functionIFvvEESt5dequeIS2_SaIS2_EEED2Ev(%"class.std::queue.14"* %9) #3
  ret void

; <label>:10:                                     ; preds = %1
  %11 = landingpad { i8*, i32 }
          catch i8* null
  %12 = extractvalue { i8*, i32 } %11, 0
  store i8* %12, i8** %3, align 8
  %13 = extractvalue { i8*, i32 } %11, 1
  store i32 %13, i32* %4, align 4
  %14 = getelementptr inbounds %"class.MARC::ThreadSafeQueue.13", %"class.MARC::ThreadSafeQueue.13"* %5, i32 0, i32 4
  call void @_ZNSt18condition_variableD1Ev(%"class.std::condition_variable"* %14) #3
  %15 = getelementptr inbounds %"class.MARC::ThreadSafeQueue.13", %"class.MARC::ThreadSafeQueue.13"* %5, i32 0, i32 3
  call void @_ZNSt18condition_variableD1Ev(%"class.std::condition_variable"* %15) #3
  %16 = getelementptr inbounds %"class.MARC::ThreadSafeQueue.13", %"class.MARC::ThreadSafeQueue.13"* %5, i32 0, i32 2
  call void @_ZNSt5queueISt8functionIFvvEESt5dequeIS2_SaIS2_EEED2Ev(%"class.std::queue.14"* %16) #3
  br label %17

; <label>:17:                                     ; preds = %10
  %18 = load i8*, i8** %3, align 8
  call void @__clang_call_terminate(i8* %18) #11
  unreachable
}

; Function Attrs: noinline nounwind uwtable
define linkonce_odr void @_ZNSt6vectorISt6threadSaIS0_EED2Ev(%"class.std::vector"*) unnamed_addr #5 comdat align 2 personality i8* bitcast (i32 (...)* @__gxx_personality_v0 to i8*) {
  %2 = alloca %"class.std::vector"*, align 8
  %3 = alloca i8*
  %4 = alloca i32
  store %"class.std::vector"* %0, %"class.std::vector"** %2, align 8
  %5 = load %"class.std::vector"*, %"class.std::vector"** %2, align 8
  %6 = bitcast %"class.std::vector"* %5 to %"struct.std::_Vector_base"*
  %7 = getelementptr inbounds %"struct.std::_Vector_base", %"struct.std::_Vector_base"* %6, i32 0, i32 0
  %8 = getelementptr inbounds %"struct.std::_Vector_base<std::thread, std::allocator<std::thread> >::_Vector_impl", %"struct.std::_Vector_base<std::thread, std::allocator<std::thread> >::_Vector_impl"* %7, i32 0, i32 0
  %9 = load %"class.std::thread"*, %"class.std::thread"** %8, align 8
  %10 = bitcast %"class.std::vector"* %5 to %"struct.std::_Vector_base"*
  %11 = getelementptr inbounds %"struct.std::_Vector_base", %"struct.std::_Vector_base"* %10, i32 0, i32 0
  %12 = getelementptr inbounds %"struct.std::_Vector_base<std::thread, std::allocator<std::thread> >::_Vector_impl", %"struct.std::_Vector_base<std::thread, std::allocator<std::thread> >::_Vector_impl"* %11, i32 0, i32 1
  %13 = load %"class.std::thread"*, %"class.std::thread"** %12, align 8
  %14 = bitcast %"class.std::vector"* %5 to %"struct.std::_Vector_base"*
  %15 = call dereferenceable(1) %"class.std::allocator.10"* @_ZNSt12_Vector_baseISt6threadSaIS0_EE19_M_get_Tp_allocatorEv(%"struct.std::_Vector_base"* %14) #3
  invoke void @_ZSt8_DestroyIPSt6threadS0_EvT_S2_RSaIT0_E(%"class.std::thread"* %9, %"class.std::thread"* %13, %"class.std::allocator.10"* dereferenceable(1) %15)
          to label %16 unwind label %18

; <label>:16:                                     ; preds = %1
  %17 = bitcast %"class.std::vector"* %5 to %"struct.std::_Vector_base"*
  call void @_ZNSt12_Vector_baseISt6threadSaIS0_EED2Ev(%"struct.std::_Vector_base"* %17) #3
  ret void

; <label>:18:                                     ; preds = %1
  %19 = landingpad { i8*, i32 }
          catch i8* null
  %20 = extractvalue { i8*, i32 } %19, 0
  store i8* %20, i8** %3, align 8
  %21 = extractvalue { i8*, i32 } %19, 1
  store i32 %21, i32* %4, align 4
  %22 = bitcast %"class.std::vector"* %5 to %"struct.std::_Vector_base"*
  call void @_ZNSt12_Vector_baseISt6threadSaIS0_EED2Ev(%"struct.std::_Vector_base"* %22) #3
  br label %23

; <label>:23:                                     ; preds = %18
  %24 = load i8*, i8** %3, align 8
  call void @__clang_call_terminate(i8* %24) #11
  unreachable
}

; Function Attrs: noinline nounwind uwtable
define linkonce_odr void @_ZN4MARC15ThreadSafeQueueISt10unique_ptrINS_11IThreadTaskESt14default_deleteIS2_EEED2Ev(%"class.MARC::ThreadSafeQueue.0"*) unnamed_addr #5 comdat align 2 personality i8* bitcast (i32 (...)* @__gxx_personality_v0 to i8*) {
  %2 = alloca %"class.MARC::ThreadSafeQueue.0"*, align 8
  %3 = alloca i8*
  %4 = alloca i32
  store %"class.MARC::ThreadSafeQueue.0"* %0, %"class.MARC::ThreadSafeQueue.0"** %2, align 8
  %5 = load %"class.MARC::ThreadSafeQueue.0"*, %"class.MARC::ThreadSafeQueue.0"** %2, align 8
  invoke void @_ZN4MARC15ThreadSafeQueueISt10unique_ptrINS_11IThreadTaskESt14default_deleteIS2_EEE10invalidateEv(%"class.MARC::ThreadSafeQueue.0"* %5)
          to label %6 unwind label %10

; <label>:6:                                      ; preds = %1
  %7 = getelementptr inbounds %"class.MARC::ThreadSafeQueue.0", %"class.MARC::ThreadSafeQueue.0"* %5, i32 0, i32 4
  call void @_ZNSt18condition_variableD1Ev(%"class.std::condition_variable"* %7) #3
  %8 = getelementptr inbounds %"class.MARC::ThreadSafeQueue.0", %"class.MARC::ThreadSafeQueue.0"* %5, i32 0, i32 3
  call void @_ZNSt18condition_variableD1Ev(%"class.std::condition_variable"* %8) #3
  %9 = getelementptr inbounds %"class.MARC::ThreadSafeQueue.0", %"class.MARC::ThreadSafeQueue.0"* %5, i32 0, i32 2
  call void @_ZNSt5queueISt10unique_ptrIN4MARC11IThreadTaskESt14default_deleteIS2_EESt5dequeIS5_SaIS5_EEED2Ev(%"class.std::queue.1"* %9) #3
  ret void

; <label>:10:                                     ; preds = %1
  %11 = landingpad { i8*, i32 }
          catch i8* null
  %12 = extractvalue { i8*, i32 } %11, 0
  store i8* %12, i8** %3, align 8
  %13 = extractvalue { i8*, i32 } %11, 1
  store i32 %13, i32* %4, align 4
  %14 = getelementptr inbounds %"class.MARC::ThreadSafeQueue.0", %"class.MARC::ThreadSafeQueue.0"* %5, i32 0, i32 4
  call void @_ZNSt18condition_variableD1Ev(%"class.std::condition_variable"* %14) #3
  %15 = getelementptr inbounds %"class.MARC::ThreadSafeQueue.0", %"class.MARC::ThreadSafeQueue.0"* %5, i32 0, i32 3
  call void @_ZNSt18condition_variableD1Ev(%"class.std::condition_variable"* %15) #3
  %16 = getelementptr inbounds %"class.MARC::ThreadSafeQueue.0", %"class.MARC::ThreadSafeQueue.0"* %5, i32 0, i32 2
  call void @_ZNSt5queueISt10unique_ptrIN4MARC11IThreadTaskESt14default_deleteIS2_EESt5dequeIS5_SaIS5_EEED2Ev(%"class.std::queue.1"* %16) #3
  br label %17

; <label>:17:                                     ; preds = %10
  %18 = load i8*, i8** %3, align 8
  call void @__clang_call_terminate(i8* %18) #11
  unreachable
}

; Function Attrs: noinline nounwind uwtable
define linkonce_odr void @_ZNSt13__atomic_baseIbEC2Eb(%"struct.std::__atomic_base"*, i1 zeroext) unnamed_addr #5 comdat align 2 {
  %3 = alloca %"struct.std::__atomic_base"*, align 8
  %4 = alloca i8, align 1
  store %"struct.std::__atomic_base"* %0, %"struct.std::__atomic_base"** %3, align 8
  %5 = zext i1 %1 to i8
  store i8 %5, i8* %4, align 1
  %6 = load %"struct.std::__atomic_base"*, %"struct.std::__atomic_base"** %3, align 8
  %7 = getelementptr inbounds %"struct.std::__atomic_base", %"struct.std::__atomic_base"* %6, i32 0, i32 0
  %8 = load i8, i8* %4, align 1
  %9 = trunc i8 %8 to i1
  %10 = zext i1 %9 to i8
  store i8 %10, i8* %7, align 1
  ret void
}

; Function Attrs: noinline nounwind uwtable
define linkonce_odr void @_ZNSt5mutexC2Ev(%"class.std::mutex"*) unnamed_addr #5 comdat align 2 {
  %2 = alloca %"class.std::mutex"*, align 8
  store %"class.std::mutex"* %0, %"class.std::mutex"** %2, align 8
  %3 = load %"class.std::mutex"*, %"class.std::mutex"** %2, align 8
  %4 = bitcast %"class.std::mutex"* %3 to %"class.std::__mutex_base"*
  call void @_ZNSt12__mutex_baseC2Ev(%"class.std::__mutex_base"* %4) #3
  ret void
}

; Function Attrs: noinline uwtable
define linkonce_odr void @_ZNSt5dequeISt10unique_ptrIN4MARC11IThreadTaskESt14default_deleteIS2_EESaIS5_EEC2Ev(%"class.std::deque.2"*) unnamed_addr #0 comdat align 2 {
  %2 = alloca %"class.std::deque.2"*, align 8
  store %"class.std::deque.2"* %0, %"class.std::deque.2"** %2, align 8
  %3 = load %"class.std::deque.2"*, %"class.std::deque.2"** %2, align 8
  %4 = bitcast %"class.std::deque.2"* %3 to %"class.std::_Deque_base.3"*
  call void @_ZNSt11_Deque_baseISt10unique_ptrIN4MARC11IThreadTaskESt14default_deleteIS2_EESaIS5_EEC2Ev(%"class.std::_Deque_base.3"* %4)
  ret void
}

; Function Attrs: noinline uwtable
define linkonce_odr void @_ZNSt5queueISt10unique_ptrIN4MARC11IThreadTaskESt14default_deleteIS2_EESt5dequeIS5_SaIS5_EEEC2EOS8_(%"class.std::queue.1"*, %"class.std::deque.2"* dereferenceable(80)) unnamed_addr #0 comdat align 2 {
  %3 = alloca %"class.std::queue.1"*, align 8
  %4 = alloca %"class.std::deque.2"*, align 8
  store %"class.std::queue.1"* %0, %"class.std::queue.1"** %3, align 8
  store %"class.std::deque.2"* %1, %"class.std::deque.2"** %4, align 8
  %5 = load %"class.std::queue.1"*, %"class.std::queue.1"** %3, align 8
  %6 = getelementptr inbounds %"class.std::queue.1", %"class.std::queue.1"* %5, i32 0, i32 0
  %7 = load %"class.std::deque.2"*, %"class.std::deque.2"** %4, align 8
  %8 = call dereferenceable(80) %"class.std::deque.2"* @_ZSt4moveIRSt5dequeISt10unique_ptrIN4MARC11IThreadTaskESt14default_deleteIS3_EESaIS6_EEEONSt16remove_referenceIT_E4typeEOSB_(%"class.std::deque.2"* dereferenceable(80) %7) #3
  call void @_ZNSt5dequeISt10unique_ptrIN4MARC11IThreadTaskESt14default_deleteIS2_EESaIS5_EEC2EOS7_(%"class.std::deque.2"* %6, %"class.std::deque.2"* dereferenceable(80) %8)
  ret void
}

; Function Attrs: noinline nounwind uwtable
define linkonce_odr void @_ZNSt5dequeISt10unique_ptrIN4MARC11IThreadTaskESt14default_deleteIS2_EESaIS5_EED2Ev(%"class.std::deque.2"*) unnamed_addr #5 comdat align 2 personality i8* bitcast (i32 (...)* @__gxx_personality_v0 to i8*) {
  %2 = alloca %"class.std::deque.2"*, align 8
  %3 = alloca %"struct.std::_Deque_iterator.9", align 8
  %4 = alloca %"struct.std::_Deque_iterator.9", align 8
  %5 = alloca i8*
  %6 = alloca i32
  store %"class.std::deque.2"* %0, %"class.std::deque.2"** %2, align 8
  %7 = load %"class.std::deque.2"*, %"class.std::deque.2"** %2, align 8
  call void @_ZNSt5dequeISt10unique_ptrIN4MARC11IThreadTaskESt14default_deleteIS2_EESaIS5_EE5beginEv(%"struct.std::_Deque_iterator.9"* sret %3, %"class.std::deque.2"* %7) #3
  call void @_ZNSt5dequeISt10unique_ptrIN4MARC11IThreadTaskESt14default_deleteIS2_EESaIS5_EE3endEv(%"struct.std::_Deque_iterator.9"* sret %4, %"class.std::deque.2"* %7) #3
  %8 = bitcast %"class.std::deque.2"* %7 to %"class.std::_Deque_base.3"*
  %9 = call dereferenceable(1) %"class.std::allocator.4"* @_ZNSt11_Deque_baseISt10unique_ptrIN4MARC11IThreadTaskESt14default_deleteIS2_EESaIS5_EE19_M_get_Tp_allocatorEv(%"class.std::_Deque_base.3"* %8) #3
  invoke void @_ZNSt5dequeISt10unique_ptrIN4MARC11IThreadTaskESt14default_deleteIS2_EESaIS5_EE15_M_destroy_dataESt15_Deque_iteratorIS5_RS5_PS5_ESB_RKS6_(%"class.std::deque.2"* %7, %"struct.std::_Deque_iterator.9"* %3, %"struct.std::_Deque_iterator.9"* %4, %"class.std::allocator.4"* dereferenceable(1) %9)
          to label %10 unwind label %12

; <label>:10:                                     ; preds = %1
  %11 = bitcast %"class.std::deque.2"* %7 to %"class.std::_Deque_base.3"*
  call void @_ZNSt11_Deque_baseISt10unique_ptrIN4MARC11IThreadTaskESt14default_deleteIS2_EESaIS5_EED2Ev(%"class.std::_Deque_base.3"* %11) #3
  ret void

; <label>:12:                                     ; preds = %1
  %13 = landingpad { i8*, i32 }
          catch i8* null
  %14 = extractvalue { i8*, i32 } %13, 0
  store i8* %14, i8** %5, align 8
  %15 = extractvalue { i8*, i32 } %13, 1
  store i32 %15, i32* %6, align 4
  %16 = bitcast %"class.std::deque.2"* %7 to %"class.std::_Deque_base.3"*
  call void @_ZNSt11_Deque_baseISt10unique_ptrIN4MARC11IThreadTaskESt14default_deleteIS2_EESaIS5_EED2Ev(%"class.std::_Deque_base.3"* %16) #3
  br label %17

; <label>:17:                                     ; preds = %12
  %18 = load i8*, i8** %5, align 8
  call void @__clang_call_terminate(i8* %18) #11
  unreachable
}

; Function Attrs: nounwind
declare void @_ZNSt18condition_variableC1Ev(%"class.std::condition_variable"*) unnamed_addr #2

; Function Attrs: noinline nounwind uwtable
define linkonce_odr void @_ZNSt12__mutex_baseC2Ev(%"class.std::__mutex_base"*) unnamed_addr #5 comdat align 2 {
  %2 = alloca %"class.std::__mutex_base"*, align 8
  store %"class.std::__mutex_base"* %0, %"class.std::__mutex_base"** %2, align 8
  %3 = load %"class.std::__mutex_base"*, %"class.std::__mutex_base"** %2, align 8
  %4 = getelementptr inbounds %"class.std::__mutex_base", %"class.std::__mutex_base"* %3, i32 0, i32 0
  %5 = bitcast %union.pthread_mutex_t* %4 to %"struct.(anonymous union)::__pthread_mutex_s"*
  %6 = getelementptr inbounds %"struct.(anonymous union)::__pthread_mutex_s", %"struct.(anonymous union)::__pthread_mutex_s"* %5, i32 0, i32 0
  store i32 0, i32* %6, align 8
  %7 = getelementptr inbounds %"struct.(anonymous union)::__pthread_mutex_s", %"struct.(anonymous union)::__pthread_mutex_s"* %5, i32 0, i32 1
  store i32 0, i32* %7, align 4
  %8 = getelementptr inbounds %"struct.(anonymous union)::__pthread_mutex_s", %"struct.(anonymous union)::__pthread_mutex_s"* %5, i32 0, i32 2
  store i32 0, i32* %8, align 8
  %9 = getelementptr inbounds %"struct.(anonymous union)::__pthread_mutex_s", %"struct.(anonymous union)::__pthread_mutex_s"* %5, i32 0, i32 3
  store i32 0, i32* %9, align 4
  %10 = getelementptr inbounds %"struct.(anonymous union)::__pthread_mutex_s", %"struct.(anonymous union)::__pthread_mutex_s"* %5, i32 0, i32 4
  store i32 0, i32* %10, align 8
  %11 = getelementptr inbounds %"struct.(anonymous union)::__pthread_mutex_s", %"struct.(anonymous union)::__pthread_mutex_s"* %5, i32 0, i32 5
  store i16 0, i16* %11, align 4
  %12 = getelementptr inbounds %"struct.(anonymous union)::__pthread_mutex_s", %"struct.(anonymous union)::__pthread_mutex_s"* %5, i32 0, i32 6
  store i16 0, i16* %12, align 2
  %13 = getelementptr inbounds %"struct.(anonymous union)::__pthread_mutex_s", %"struct.(anonymous union)::__pthread_mutex_s"* %5, i32 0, i32 7
  %14 = getelementptr inbounds %struct.__pthread_internal_list, %struct.__pthread_internal_list* %13, i32 0, i32 0
  store %struct.__pthread_internal_list* null, %struct.__pthread_internal_list** %14, align 8
  %15 = getelementptr inbounds %struct.__pthread_internal_list, %struct.__pthread_internal_list* %13, i32 0, i32 1
  store %struct.__pthread_internal_list* null, %struct.__pthread_internal_list** %15, align 8
  ret void
}

; Function Attrs: noinline uwtable
define linkonce_odr void @_ZNSt11_Deque_baseISt10unique_ptrIN4MARC11IThreadTaskESt14default_deleteIS2_EESaIS5_EEC2Ev(%"class.std::_Deque_base.3"*) unnamed_addr #0 comdat align 2 personality i8* bitcast (i32 (...)* @__gxx_personality_v0 to i8*) {
  %2 = alloca %"class.std::_Deque_base.3"*, align 8
  %3 = alloca i8*
  %4 = alloca i32
  store %"class.std::_Deque_base.3"* %0, %"class.std::_Deque_base.3"** %2, align 8
  %5 = load %"class.std::_Deque_base.3"*, %"class.std::_Deque_base.3"** %2, align 8
  %6 = getelementptr inbounds %"class.std::_Deque_base.3", %"class.std::_Deque_base.3"* %5, i32 0, i32 0
  call void @_ZNSt11_Deque_baseISt10unique_ptrIN4MARC11IThreadTaskESt14default_deleteIS2_EESaIS5_EE11_Deque_implC2Ev(%"struct.std::_Deque_base<std::unique_ptr<MARC::IThreadTask, std::default_delete<MARC::IThreadTask> >, std::allocator<std::unique_ptr<MARC::IThreadTask, std::default_delete<MARC::IThreadTask> > > >::_Deque_impl"* %6)
  invoke void @_ZNSt11_Deque_baseISt10unique_ptrIN4MARC11IThreadTaskESt14default_deleteIS2_EESaIS5_EE17_M_initialize_mapEm(%"class.std::_Deque_base.3"* %5, i64 0)
          to label %7 unwind label %8

; <label>:7:                                      ; preds = %1
  ret void

; <label>:8:                                      ; preds = %1
  %9 = landingpad { i8*, i32 }
          cleanup
  %10 = extractvalue { i8*, i32 } %9, 0
  store i8* %10, i8** %3, align 8
  %11 = extractvalue { i8*, i32 } %9, 1
  store i32 %11, i32* %4, align 4
  call void @_ZNSt11_Deque_baseISt10unique_ptrIN4MARC11IThreadTaskESt14default_deleteIS2_EESaIS5_EE11_Deque_implD2Ev(%"struct.std::_Deque_base<std::unique_ptr<MARC::IThreadTask, std::default_delete<MARC::IThreadTask> >, std::allocator<std::unique_ptr<MARC::IThreadTask, std::default_delete<MARC::IThreadTask> > > >::_Deque_impl"* %6) #3
  br label %12

; <label>:12:                                     ; preds = %8
  %13 = load i8*, i8** %3, align 8
  %14 = load i32, i32* %4, align 4
  %15 = insertvalue { i8*, i32 } undef, i8* %13, 0
  %16 = insertvalue { i8*, i32 } %15, i32 %14, 1
  resume { i8*, i32 } %16
}

; Function Attrs: noinline nounwind uwtable
define linkonce_odr void @_ZNSt11_Deque_baseISt10unique_ptrIN4MARC11IThreadTaskESt14default_deleteIS2_EESaIS5_EE11_Deque_implC2Ev(%"struct.std::_Deque_base<std::unique_ptr<MARC::IThreadTask, std::default_delete<MARC::IThreadTask> >, std::allocator<std::unique_ptr<MARC::IThreadTask, std::default_delete<MARC::IThreadTask> > > >::_Deque_impl"*) unnamed_addr #5 comdat align 2 {
  %2 = alloca %"struct.std::_Deque_base<std::unique_ptr<MARC::IThreadTask, std::default_delete<MARC::IThreadTask> >, std::allocator<std::unique_ptr<MARC::IThreadTask, std::default_delete<MARC::IThreadTask> > > >::_Deque_impl"*, align 8
  store %"struct.std::_Deque_base<std::unique_ptr<MARC::IThreadTask, std::default_delete<MARC::IThreadTask> >, std::allocator<std::unique_ptr<MARC::IThreadTask, std::default_delete<MARC::IThreadTask> > > >::_Deque_impl"* %0, %"struct.std::_Deque_base<std::unique_ptr<MARC::IThreadTask, std::default_delete<MARC::IThreadTask> >, std::allocator<std::unique_ptr<MARC::IThreadTask, std::default_delete<MARC::IThreadTask> > > >::_Deque_impl"** %2, align 8
  %3 = load %"struct.std::_Deque_base<std::unique_ptr<MARC::IThreadTask, std::default_delete<MARC::IThreadTask> >, std::allocator<std::unique_ptr<MARC::IThreadTask, std::default_delete<MARC::IThreadTask> > > >::_Deque_impl"*, %"struct.std::_Deque_base<std::unique_ptr<MARC::IThreadTask, std::default_delete<MARC::IThreadTask> >, std::allocator<std::unique_ptr<MARC::IThreadTask, std::default_delete<MARC::IThreadTask> > > >::_Deque_impl"** %2, align 8
  %4 = bitcast %"struct.std::_Deque_base<std::unique_ptr<MARC::IThreadTask, std::default_delete<MARC::IThreadTask> >, std::allocator<std::unique_ptr<MARC::IThreadTask, std::default_delete<MARC::IThreadTask> > > >::_Deque_impl"* %3 to %"class.std::allocator.4"*
  call void @_ZNSaISt10unique_ptrIN4MARC11IThreadTaskESt14default_deleteIS1_EEEC2Ev(%"class.std::allocator.4"* %4) #3
  %5 = getelementptr inbounds %"struct.std::_Deque_base<std::unique_ptr<MARC::IThreadTask, std::default_delete<MARC::IThreadTask> >, std::allocator<std::unique_ptr<MARC::IThreadTask, std::default_delete<MARC::IThreadTask> > > >::_Deque_impl", %"struct.std::_Deque_base<std::unique_ptr<MARC::IThreadTask, std::default_delete<MARC::IThreadTask> >, std::allocator<std::unique_ptr<MARC::IThreadTask, std::default_delete<MARC::IThreadTask> > > >::_Deque_impl"* %3, i32 0, i32 0
  store %"class.std::unique_ptr"** null, %"class.std::unique_ptr"*** %5, align 8
  %6 = getelementptr inbounds %"struct.std::_Deque_base<std::unique_ptr<MARC::IThreadTask, std::default_delete<MARC::IThreadTask> >, std::allocator<std::unique_ptr<MARC::IThreadTask, std::default_delete<MARC::IThreadTask> > > >::_Deque_impl", %"struct.std::_Deque_base<std::unique_ptr<MARC::IThreadTask, std::default_delete<MARC::IThreadTask> >, std::allocator<std::unique_ptr<MARC::IThreadTask, std::default_delete<MARC::IThreadTask> > > >::_Deque_impl"* %3, i32 0, i32 1
  store i64 0, i64* %6, align 8
  %7 = getelementptr inbounds %"struct.std::_Deque_base<std::unique_ptr<MARC::IThreadTask, std::default_delete<MARC::IThreadTask> >, std::allocator<std::unique_ptr<MARC::IThreadTask, std::default_delete<MARC::IThreadTask> > > >::_Deque_impl", %"struct.std::_Deque_base<std::unique_ptr<MARC::IThreadTask, std::default_delete<MARC::IThreadTask> >, std::allocator<std::unique_ptr<MARC::IThreadTask, std::default_delete<MARC::IThreadTask> > > >::_Deque_impl"* %3, i32 0, i32 2
  call void @_ZNSt15_Deque_iteratorISt10unique_ptrIN4MARC11IThreadTaskESt14default_deleteIS2_EERS5_PS5_EC2Ev(%"struct.std::_Deque_iterator.9"* %7) #3
  %8 = getelementptr inbounds %"struct.std::_Deque_base<std::unique_ptr<MARC::IThreadTask, std::default_delete<MARC::IThreadTask> >, std::allocator<std::unique_ptr<MARC::IThreadTask, std::default_delete<MARC::IThreadTask> > > >::_Deque_impl", %"struct.std::_Deque_base<std::unique_ptr<MARC::IThreadTask, std::default_delete<MARC::IThreadTask> >, std::allocator<std::unique_ptr<MARC::IThreadTask, std::default_delete<MARC::IThreadTask> > > >::_Deque_impl"* %3, i32 0, i32 3
  call void @_ZNSt15_Deque_iteratorISt10unique_ptrIN4MARC11IThreadTaskESt14default_deleteIS2_EERS5_PS5_EC2Ev(%"struct.std::_Deque_iterator.9"* %8) #3
  ret void
}

; Function Attrs: noinline uwtable
define linkonce_odr void @_ZNSt11_Deque_baseISt10unique_ptrIN4MARC11IThreadTaskESt14default_deleteIS2_EESaIS5_EE17_M_initialize_mapEm(%"class.std::_Deque_base.3"*, i64) #0 comdat align 2 personality i8* bitcast (i32 (...)* @__gxx_personality_v0 to i8*) {
  %3 = alloca %"class.std::_Deque_base.3"*, align 8
  %4 = alloca i64, align 8
  %5 = alloca i64, align 8
  %6 = alloca i64, align 8
  %7 = alloca i64, align 8
  %8 = alloca %"class.std::unique_ptr"**, align 8
  %9 = alloca %"class.std::unique_ptr"**, align 8
  %10 = alloca i8*
  %11 = alloca i32
  store %"class.std::_Deque_base.3"* %0, %"class.std::_Deque_base.3"** %3, align 8
  store i64 %1, i64* %4, align 8
  %12 = load %"class.std::_Deque_base.3"*, %"class.std::_Deque_base.3"** %3, align 8
  %13 = load i64, i64* %4, align 8
  %14 = call i64 @_ZSt16__deque_buf_sizem(i64 8)
  %15 = udiv i64 %13, %14
  %16 = add i64 %15, 1
  store i64 %16, i64* %5, align 8
  store i64 8, i64* %6, align 8
  %17 = load i64, i64* %5, align 8
  %18 = add i64 %17, 2
  store i64 %18, i64* %7, align 8
  %19 = call dereferenceable(8) i64* @_ZSt3maxImERKT_S2_S2_(i64* dereferenceable(8) %6, i64* dereferenceable(8) %7)
  %20 = load i64, i64* %19, align 8
  %21 = getelementptr inbounds %"class.std::_Deque_base.3", %"class.std::_Deque_base.3"* %12, i32 0, i32 0
  %22 = getelementptr inbounds %"struct.std::_Deque_base<std::unique_ptr<MARC::IThreadTask, std::default_delete<MARC::IThreadTask> >, std::allocator<std::unique_ptr<MARC::IThreadTask, std::default_delete<MARC::IThreadTask> > > >::_Deque_impl", %"struct.std::_Deque_base<std::unique_ptr<MARC::IThreadTask, std::default_delete<MARC::IThreadTask> >, std::allocator<std::unique_ptr<MARC::IThreadTask, std::default_delete<MARC::IThreadTask> > > >::_Deque_impl"* %21, i32 0, i32 1
  store i64 %20, i64* %22, align 8
  %23 = getelementptr inbounds %"class.std::_Deque_base.3", %"class.std::_Deque_base.3"* %12, i32 0, i32 0
  %24 = getelementptr inbounds %"struct.std::_Deque_base<std::unique_ptr<MARC::IThreadTask, std::default_delete<MARC::IThreadTask> >, std::allocator<std::unique_ptr<MARC::IThreadTask, std::default_delete<MARC::IThreadTask> > > >::_Deque_impl", %"struct.std::_Deque_base<std::unique_ptr<MARC::IThreadTask, std::default_delete<MARC::IThreadTask> >, std::allocator<std::unique_ptr<MARC::IThreadTask, std::default_delete<MARC::IThreadTask> > > >::_Deque_impl"* %23, i32 0, i32 1
  %25 = load i64, i64* %24, align 8
  %26 = call %"class.std::unique_ptr"** @_ZNSt11_Deque_baseISt10unique_ptrIN4MARC11IThreadTaskESt14default_deleteIS2_EESaIS5_EE15_M_allocate_mapEm(%"class.std::_Deque_base.3"* %12, i64 %25)
  %27 = getelementptr inbounds %"class.std::_Deque_base.3", %"class.std::_Deque_base.3"* %12, i32 0, i32 0
  %28 = getelementptr inbounds %"struct.std::_Deque_base<std::unique_ptr<MARC::IThreadTask, std::default_delete<MARC::IThreadTask> >, std::allocator<std::unique_ptr<MARC::IThreadTask, std::default_delete<MARC::IThreadTask> > > >::_Deque_impl", %"struct.std::_Deque_base<std::unique_ptr<MARC::IThreadTask, std::default_delete<MARC::IThreadTask> >, std::allocator<std::unique_ptr<MARC::IThreadTask, std::default_delete<MARC::IThreadTask> > > >::_Deque_impl"* %27, i32 0, i32 0
  store %"class.std::unique_ptr"** %26, %"class.std::unique_ptr"*** %28, align 8
  %29 = getelementptr inbounds %"class.std::_Deque_base.3", %"class.std::_Deque_base.3"* %12, i32 0, i32 0
  %30 = getelementptr inbounds %"struct.std::_Deque_base<std::unique_ptr<MARC::IThreadTask, std::default_delete<MARC::IThreadTask> >, std::allocator<std::unique_ptr<MARC::IThreadTask, std::default_delete<MARC::IThreadTask> > > >::_Deque_impl", %"struct.std::_Deque_base<std::unique_ptr<MARC::IThreadTask, std::default_delete<MARC::IThreadTask> >, std::allocator<std::unique_ptr<MARC::IThreadTask, std::default_delete<MARC::IThreadTask> > > >::_Deque_impl"* %29, i32 0, i32 0
  %31 = load %"class.std::unique_ptr"**, %"class.std::unique_ptr"*** %30, align 8
  %32 = getelementptr inbounds %"class.std::_Deque_base.3", %"class.std::_Deque_base.3"* %12, i32 0, i32 0
  %33 = getelementptr inbounds %"struct.std::_Deque_base<std::unique_ptr<MARC::IThreadTask, std::default_delete<MARC::IThreadTask> >, std::allocator<std::unique_ptr<MARC::IThreadTask, std::default_delete<MARC::IThreadTask> > > >::_Deque_impl", %"struct.std::_Deque_base<std::unique_ptr<MARC::IThreadTask, std::default_delete<MARC::IThreadTask> >, std::allocator<std::unique_ptr<MARC::IThreadTask, std::default_delete<MARC::IThreadTask> > > >::_Deque_impl"* %32, i32 0, i32 1
  %34 = load i64, i64* %33, align 8
  %35 = load i64, i64* %5, align 8
  %36 = sub i64 %34, %35
  %37 = udiv i64 %36, 2
  %38 = getelementptr inbounds %"class.std::unique_ptr"*, %"class.std::unique_ptr"** %31, i64 %37
  store %"class.std::unique_ptr"** %38, %"class.std::unique_ptr"*** %8, align 8
  %39 = load %"class.std::unique_ptr"**, %"class.std::unique_ptr"*** %8, align 8
  %40 = load i64, i64* %5, align 8
  %41 = getelementptr inbounds %"class.std::unique_ptr"*, %"class.std::unique_ptr"** %39, i64 %40
  store %"class.std::unique_ptr"** %41, %"class.std::unique_ptr"*** %9, align 8
  %42 = load %"class.std::unique_ptr"**, %"class.std::unique_ptr"*** %8, align 8
  %43 = load %"class.std::unique_ptr"**, %"class.std::unique_ptr"*** %9, align 8
  invoke void @_ZNSt11_Deque_baseISt10unique_ptrIN4MARC11IThreadTaskESt14default_deleteIS2_EESaIS5_EE15_M_create_nodesEPPS5_S9_(%"class.std::_Deque_base.3"* %12, %"class.std::unique_ptr"** %42, %"class.std::unique_ptr"** %43)
          to label %44 unwind label %45

; <label>:44:                                     ; preds = %2
  br label %67

; <label>:45:                                     ; preds = %2
  %46 = landingpad { i8*, i32 }
          catch i8* null
  %47 = extractvalue { i8*, i32 } %46, 0
  store i8* %47, i8** %10, align 8
  %48 = extractvalue { i8*, i32 } %46, 1
  store i32 %48, i32* %11, align 4
  br label %49

; <label>:49:                                     ; preds = %45
  %50 = load i8*, i8** %10, align 8
  %51 = call i8* @__cxa_begin_catch(i8* %50) #3
  %52 = getelementptr inbounds %"class.std::_Deque_base.3", %"class.std::_Deque_base.3"* %12, i32 0, i32 0
  %53 = getelementptr inbounds %"struct.std::_Deque_base<std::unique_ptr<MARC::IThreadTask, std::default_delete<MARC::IThreadTask> >, std::allocator<std::unique_ptr<MARC::IThreadTask, std::default_delete<MARC::IThreadTask> > > >::_Deque_impl", %"struct.std::_Deque_base<std::unique_ptr<MARC::IThreadTask, std::default_delete<MARC::IThreadTask> >, std::allocator<std::unique_ptr<MARC::IThreadTask, std::default_delete<MARC::IThreadTask> > > >::_Deque_impl"* %52, i32 0, i32 0
  %54 = load %"class.std::unique_ptr"**, %"class.std::unique_ptr"*** %53, align 8
  %55 = getelementptr inbounds %"class.std::_Deque_base.3", %"class.std::_Deque_base.3"* %12, i32 0, i32 0
  %56 = getelementptr inbounds %"struct.std::_Deque_base<std::unique_ptr<MARC::IThreadTask, std::default_delete<MARC::IThreadTask> >, std::allocator<std::unique_ptr<MARC::IThreadTask, std::default_delete<MARC::IThreadTask> > > >::_Deque_impl", %"struct.std::_Deque_base<std::unique_ptr<MARC::IThreadTask, std::default_delete<MARC::IThreadTask> >, std::allocator<std::unique_ptr<MARC::IThreadTask, std::default_delete<MARC::IThreadTask> > > >::_Deque_impl"* %55, i32 0, i32 1
  %57 = load i64, i64* %56, align 8
  call void @_ZNSt11_Deque_baseISt10unique_ptrIN4MARC11IThreadTaskESt14default_deleteIS2_EESaIS5_EE17_M_deallocate_mapEPPS5_m(%"class.std::_Deque_base.3"* %12, %"class.std::unique_ptr"** %54, i64 %57) #3
  %58 = getelementptr inbounds %"class.std::_Deque_base.3", %"class.std::_Deque_base.3"* %12, i32 0, i32 0
  %59 = getelementptr inbounds %"struct.std::_Deque_base<std::unique_ptr<MARC::IThreadTask, std::default_delete<MARC::IThreadTask> >, std::allocator<std::unique_ptr<MARC::IThreadTask, std::default_delete<MARC::IThreadTask> > > >::_Deque_impl", %"struct.std::_Deque_base<std::unique_ptr<MARC::IThreadTask, std::default_delete<MARC::IThreadTask> >, std::allocator<std::unique_ptr<MARC::IThreadTask, std::default_delete<MARC::IThreadTask> > > >::_Deque_impl"* %58, i32 0, i32 0
  store %"class.std::unique_ptr"** null, %"class.std::unique_ptr"*** %59, align 8
  %60 = getelementptr inbounds %"class.std::_Deque_base.3", %"class.std::_Deque_base.3"* %12, i32 0, i32 0
  %61 = getelementptr inbounds %"struct.std::_Deque_base<std::unique_ptr<MARC::IThreadTask, std::default_delete<MARC::IThreadTask> >, std::allocator<std::unique_ptr<MARC::IThreadTask, std::default_delete<MARC::IThreadTask> > > >::_Deque_impl", %"struct.std::_Deque_base<std::unique_ptr<MARC::IThreadTask, std::default_delete<MARC::IThreadTask> >, std::allocator<std::unique_ptr<MARC::IThreadTask, std::default_delete<MARC::IThreadTask> > > >::_Deque_impl"* %60, i32 0, i32 1
  store i64 0, i64* %61, align 8
  invoke void @__cxa_rethrow() #15
          to label %101 unwind label %62

; <label>:62:                                     ; preds = %49
  %63 = landingpad { i8*, i32 }
          cleanup
  %64 = extractvalue { i8*, i32 } %63, 0
  store i8* %64, i8** %10, align 8
  %65 = extractvalue { i8*, i32 } %63, 1
  store i32 %65, i32* %11, align 4
  invoke void @__cxa_end_catch()
          to label %66 unwind label %98

; <label>:66:                                     ; preds = %62
  br label %93

; <label>:67:                                     ; preds = %44
  %68 = getelementptr inbounds %"class.std::_Deque_base.3", %"class.std::_Deque_base.3"* %12, i32 0, i32 0
  %69 = getelementptr inbounds %"struct.std::_Deque_base<std::unique_ptr<MARC::IThreadTask, std::default_delete<MARC::IThreadTask> >, std::allocator<std::unique_ptr<MARC::IThreadTask, std::default_delete<MARC::IThreadTask> > > >::_Deque_impl", %"struct.std::_Deque_base<std::unique_ptr<MARC::IThreadTask, std::default_delete<MARC::IThreadTask> >, std::allocator<std::unique_ptr<MARC::IThreadTask, std::default_delete<MARC::IThreadTask> > > >::_Deque_impl"* %68, i32 0, i32 2
  %70 = load %"class.std::unique_ptr"**, %"class.std::unique_ptr"*** %8, align 8
  call void @_ZNSt15_Deque_iteratorISt10unique_ptrIN4MARC11IThreadTaskESt14default_deleteIS2_EERS5_PS5_E11_M_set_nodeEPS7_(%"struct.std::_Deque_iterator.9"* %69, %"class.std::unique_ptr"** %70) #3
  %71 = getelementptr inbounds %"class.std::_Deque_base.3", %"class.std::_Deque_base.3"* %12, i32 0, i32 0
  %72 = getelementptr inbounds %"struct.std::_Deque_base<std::unique_ptr<MARC::IThreadTask, std::default_delete<MARC::IThreadTask> >, std::allocator<std::unique_ptr<MARC::IThreadTask, std::default_delete<MARC::IThreadTask> > > >::_Deque_impl", %"struct.std::_Deque_base<std::unique_ptr<MARC::IThreadTask, std::default_delete<MARC::IThreadTask> >, std::allocator<std::unique_ptr<MARC::IThreadTask, std::default_delete<MARC::IThreadTask> > > >::_Deque_impl"* %71, i32 0, i32 3
  %73 = load %"class.std::unique_ptr"**, %"class.std::unique_ptr"*** %9, align 8
  %74 = getelementptr inbounds %"class.std::unique_ptr"*, %"class.std::unique_ptr"** %73, i64 -1
  call void @_ZNSt15_Deque_iteratorISt10unique_ptrIN4MARC11IThreadTaskESt14default_deleteIS2_EERS5_PS5_E11_M_set_nodeEPS7_(%"struct.std::_Deque_iterator.9"* %72, %"class.std::unique_ptr"** %74) #3
  %75 = getelementptr inbounds %"class.std::_Deque_base.3", %"class.std::_Deque_base.3"* %12, i32 0, i32 0
  %76 = getelementptr inbounds %"struct.std::_Deque_base<std::unique_ptr<MARC::IThreadTask, std::default_delete<MARC::IThreadTask> >, std::allocator<std::unique_ptr<MARC::IThreadTask, std::default_delete<MARC::IThreadTask> > > >::_Deque_impl", %"struct.std::_Deque_base<std::unique_ptr<MARC::IThreadTask, std::default_delete<MARC::IThreadTask> >, std::allocator<std::unique_ptr<MARC::IThreadTask, std::default_delete<MARC::IThreadTask> > > >::_Deque_impl"* %75, i32 0, i32 2
  %77 = getelementptr inbounds %"struct.std::_Deque_iterator.9", %"struct.std::_Deque_iterator.9"* %76, i32 0, i32 1
  %78 = load %"class.std::unique_ptr"*, %"class.std::unique_ptr"** %77, align 8
  %79 = getelementptr inbounds %"class.std::_Deque_base.3", %"class.std::_Deque_base.3"* %12, i32 0, i32 0
  %80 = getelementptr inbounds %"struct.std::_Deque_base<std::unique_ptr<MARC::IThreadTask, std::default_delete<MARC::IThreadTask> >, std::allocator<std::unique_ptr<MARC::IThreadTask, std::default_delete<MARC::IThreadTask> > > >::_Deque_impl", %"struct.std::_Deque_base<std::unique_ptr<MARC::IThreadTask, std::default_delete<MARC::IThreadTask> >, std::allocator<std::unique_ptr<MARC::IThreadTask, std::default_delete<MARC::IThreadTask> > > >::_Deque_impl"* %79, i32 0, i32 2
  %81 = getelementptr inbounds %"struct.std::_Deque_iterator.9", %"struct.std::_Deque_iterator.9"* %80, i32 0, i32 0
  store %"class.std::unique_ptr"* %78, %"class.std::unique_ptr"** %81, align 8
  %82 = getelementptr inbounds %"class.std::_Deque_base.3", %"class.std::_Deque_base.3"* %12, i32 0, i32 0
  %83 = getelementptr inbounds %"struct.std::_Deque_base<std::unique_ptr<MARC::IThreadTask, std::default_delete<MARC::IThreadTask> >, std::allocator<std::unique_ptr<MARC::IThreadTask, std::default_delete<MARC::IThreadTask> > > >::_Deque_impl", %"struct.std::_Deque_base<std::unique_ptr<MARC::IThreadTask, std::default_delete<MARC::IThreadTask> >, std::allocator<std::unique_ptr<MARC::IThreadTask, std::default_delete<MARC::IThreadTask> > > >::_Deque_impl"* %82, i32 0, i32 3
  %84 = getelementptr inbounds %"struct.std::_Deque_iterator.9", %"struct.std::_Deque_iterator.9"* %83, i32 0, i32 1
  %85 = load %"class.std::unique_ptr"*, %"class.std::unique_ptr"** %84, align 8
  %86 = load i64, i64* %4, align 8
  %87 = call i64 @_ZSt16__deque_buf_sizem(i64 8)
  %88 = urem i64 %86, %87
  %89 = getelementptr inbounds %"class.std::unique_ptr", %"class.std::unique_ptr"* %85, i64 %88
  %90 = getelementptr inbounds %"class.std::_Deque_base.3", %"class.std::_Deque_base.3"* %12, i32 0, i32 0
  %91 = getelementptr inbounds %"struct.std::_Deque_base<std::unique_ptr<MARC::IThreadTask, std::default_delete<MARC::IThreadTask> >, std::allocator<std::unique_ptr<MARC::IThreadTask, std::default_delete<MARC::IThreadTask> > > >::_Deque_impl", %"struct.std::_Deque_base<std::unique_ptr<MARC::IThreadTask, std::default_delete<MARC::IThreadTask> >, std::allocator<std::unique_ptr<MARC::IThreadTask, std::default_delete<MARC::IThreadTask> > > >::_Deque_impl"* %90, i32 0, i32 3
  %92 = getelementptr inbounds %"struct.std::_Deque_iterator.9", %"struct.std::_Deque_iterator.9"* %91, i32 0, i32 0
  store %"class.std::unique_ptr"* %89, %"class.std::unique_ptr"** %92, align 8
  ret void

; <label>:93:                                     ; preds = %66
  %94 = load i8*, i8** %10, align 8
  %95 = load i32, i32* %11, align 4
  %96 = insertvalue { i8*, i32 } undef, i8* %94, 0
  %97 = insertvalue { i8*, i32 } %96, i32 %95, 1
  resume { i8*, i32 } %97

; <label>:98:                                     ; preds = %62
  %99 = landingpad { i8*, i32 }
          catch i8* null
  %100 = extractvalue { i8*, i32 } %99, 0
  call void @__clang_call_terminate(i8* %100) #11
  unreachable

; <label>:101:                                    ; preds = %49
  unreachable
}

; Function Attrs: noinline nounwind uwtable
define linkonce_odr void @_ZNSt11_Deque_baseISt10unique_ptrIN4MARC11IThreadTaskESt14default_deleteIS2_EESaIS5_EE11_Deque_implD2Ev(%"struct.std::_Deque_base<std::unique_ptr<MARC::IThreadTask, std::default_delete<MARC::IThreadTask> >, std::allocator<std::unique_ptr<MARC::IThreadTask, std::default_delete<MARC::IThreadTask> > > >::_Deque_impl"*) unnamed_addr #5 comdat align 2 {
  %2 = alloca %"struct.std::_Deque_base<std::unique_ptr<MARC::IThreadTask, std::default_delete<MARC::IThreadTask> >, std::allocator<std::unique_ptr<MARC::IThreadTask, std::default_delete<MARC::IThreadTask> > > >::_Deque_impl"*, align 8
  store %"struct.std::_Deque_base<std::unique_ptr<MARC::IThreadTask, std::default_delete<MARC::IThreadTask> >, std::allocator<std::unique_ptr<MARC::IThreadTask, std::default_delete<MARC::IThreadTask> > > >::_Deque_impl"* %0, %"struct.std::_Deque_base<std::unique_ptr<MARC::IThreadTask, std::default_delete<MARC::IThreadTask> >, std::allocator<std::unique_ptr<MARC::IThreadTask, std::default_delete<MARC::IThreadTask> > > >::_Deque_impl"** %2, align 8
  %3 = load %"struct.std::_Deque_base<std::unique_ptr<MARC::IThreadTask, std::default_delete<MARC::IThreadTask> >, std::allocator<std::unique_ptr<MARC::IThreadTask, std::default_delete<MARC::IThreadTask> > > >::_Deque_impl"*, %"struct.std::_Deque_base<std::unique_ptr<MARC::IThreadTask, std::default_delete<MARC::IThreadTask> >, std::allocator<std::unique_ptr<MARC::IThreadTask, std::default_delete<MARC::IThreadTask> > > >::_Deque_impl"** %2, align 8
  %4 = bitcast %"struct.std::_Deque_base<std::unique_ptr<MARC::IThreadTask, std::default_delete<MARC::IThreadTask> >, std::allocator<std::unique_ptr<MARC::IThreadTask, std::default_delete<MARC::IThreadTask> > > >::_Deque_impl"* %3 to %"class.std::allocator.4"*
  call void @_ZNSaISt10unique_ptrIN4MARC11IThreadTaskESt14default_deleteIS1_EEED2Ev(%"class.std::allocator.4"* %4) #3
  ret void
}

; Function Attrs: noinline nounwind uwtable
define linkonce_odr void @_ZNSaISt10unique_ptrIN4MARC11IThreadTaskESt14default_deleteIS1_EEEC2Ev(%"class.std::allocator.4"*) unnamed_addr #5 comdat align 2 {
  %2 = alloca %"class.std::allocator.4"*, align 8
  store %"class.std::allocator.4"* %0, %"class.std::allocator.4"** %2, align 8
  %3 = load %"class.std::allocator.4"*, %"class.std::allocator.4"** %2, align 8
  %4 = bitcast %"class.std::allocator.4"* %3 to %"class.__gnu_cxx::new_allocator.5"*
  call void @_ZN9__gnu_cxx13new_allocatorISt10unique_ptrIN4MARC11IThreadTaskESt14default_deleteIS3_EEEC2Ev(%"class.__gnu_cxx::new_allocator.5"* %4) #3
  ret void
}

; Function Attrs: noinline nounwind uwtable
define linkonce_odr void @_ZNSt15_Deque_iteratorISt10unique_ptrIN4MARC11IThreadTaskESt14default_deleteIS2_EERS5_PS5_EC2Ev(%"struct.std::_Deque_iterator.9"*) unnamed_addr #5 comdat align 2 {
  %2 = alloca %"struct.std::_Deque_iterator.9"*, align 8
  store %"struct.std::_Deque_iterator.9"* %0, %"struct.std::_Deque_iterator.9"** %2, align 8
  %3 = load %"struct.std::_Deque_iterator.9"*, %"struct.std::_Deque_iterator.9"** %2, align 8
  %4 = getelementptr inbounds %"struct.std::_Deque_iterator.9", %"struct.std::_Deque_iterator.9"* %3, i32 0, i32 0
  store %"class.std::unique_ptr"* null, %"class.std::unique_ptr"** %4, align 8
  %5 = getelementptr inbounds %"struct.std::_Deque_iterator.9", %"struct.std::_Deque_iterator.9"* %3, i32 0, i32 1
  store %"class.std::unique_ptr"* null, %"class.std::unique_ptr"** %5, align 8
  %6 = getelementptr inbounds %"struct.std::_Deque_iterator.9", %"struct.std::_Deque_iterator.9"* %3, i32 0, i32 2
  store %"class.std::unique_ptr"* null, %"class.std::unique_ptr"** %6, align 8
  %7 = getelementptr inbounds %"struct.std::_Deque_iterator.9", %"struct.std::_Deque_iterator.9"* %3, i32 0, i32 3
  store %"class.std::unique_ptr"** null, %"class.std::unique_ptr"*** %7, align 8
  ret void
}

; Function Attrs: noinline nounwind uwtable
define linkonce_odr void @_ZN9__gnu_cxx13new_allocatorISt10unique_ptrIN4MARC11IThreadTaskESt14default_deleteIS3_EEEC2Ev(%"class.__gnu_cxx::new_allocator.5"*) unnamed_addr #5 comdat align 2 {
  %2 = alloca %"class.__gnu_cxx::new_allocator.5"*, align 8
  store %"class.__gnu_cxx::new_allocator.5"* %0, %"class.__gnu_cxx::new_allocator.5"** %2, align 8
  %3 = load %"class.__gnu_cxx::new_allocator.5"*, %"class.__gnu_cxx::new_allocator.5"** %2, align 8
  ret void
}

; Function Attrs: noinline nounwind uwtable
define linkonce_odr i64 @_ZSt16__deque_buf_sizem(i64) #5 comdat {
  %2 = alloca i64, align 8
  store i64 %0, i64* %2, align 8
  %3 = load i64, i64* %2, align 8
  %4 = icmp ult i64 %3, 512
  br i1 %4, label %5, label %8

; <label>:5:                                      ; preds = %1
  %6 = load i64, i64* %2, align 8
  %7 = udiv i64 512, %6
  br label %9

; <label>:8:                                      ; preds = %1
  br label %9

; <label>:9:                                      ; preds = %8, %5
  %10 = phi i64 [ %7, %5 ], [ 1, %8 ]
  ret i64 %10
}

; Function Attrs: noinline nounwind uwtable
define linkonce_odr dereferenceable(8) i64* @_ZSt3maxImERKT_S2_S2_(i64* dereferenceable(8), i64* dereferenceable(8)) #5 comdat {
  %3 = alloca i64*, align 8
  %4 = alloca i64*, align 8
  %5 = alloca i64*, align 8
  store i64* %0, i64** %4, align 8
  store i64* %1, i64** %5, align 8
  %6 = load i64*, i64** %4, align 8
  %7 = load i64, i64* %6, align 8
  %8 = load i64*, i64** %5, align 8
  %9 = load i64, i64* %8, align 8
  %10 = icmp ult i64 %7, %9
  br i1 %10, label %11, label %13

; <label>:11:                                     ; preds = %2
  %12 = load i64*, i64** %5, align 8
  store i64* %12, i64** %3, align 8
  br label %15

; <label>:13:                                     ; preds = %2
  %14 = load i64*, i64** %4, align 8
  store i64* %14, i64** %3, align 8
  br label %15

; <label>:15:                                     ; preds = %13, %11
  %16 = load i64*, i64** %3, align 8
  ret i64* %16
}

; Function Attrs: noinline uwtable
define linkonce_odr %"class.std::unique_ptr"** @_ZNSt11_Deque_baseISt10unique_ptrIN4MARC11IThreadTaskESt14default_deleteIS2_EESaIS5_EE15_M_allocate_mapEm(%"class.std::_Deque_base.3"*, i64) #0 comdat align 2 personality i8* bitcast (i32 (...)* @__gxx_personality_v0 to i8*) {
  %3 = alloca %"class.std::_Deque_base.3"*, align 8
  %4 = alloca i64, align 8
  %5 = alloca %"class.std::allocator.29", align 1
  %6 = alloca i8*
  %7 = alloca i32
  store %"class.std::_Deque_base.3"* %0, %"class.std::_Deque_base.3"** %3, align 8
  store i64 %1, i64* %4, align 8
  %8 = load %"class.std::_Deque_base.3"*, %"class.std::_Deque_base.3"** %3, align 8
  call void @_ZNKSt11_Deque_baseISt10unique_ptrIN4MARC11IThreadTaskESt14default_deleteIS2_EESaIS5_EE20_M_get_map_allocatorEv(%"class.std::allocator.29"* sret %5, %"class.std::_Deque_base.3"* %8) #3
  %9 = load i64, i64* %4, align 8
  %10 = invoke %"class.std::unique_ptr"** @_ZNSt16allocator_traitsISaIPSt10unique_ptrIN4MARC11IThreadTaskESt14default_deleteIS2_EEEE8allocateERS7_m(%"class.std::allocator.29"* dereferenceable(1) %5, i64 %9)
          to label %11 unwind label %12

; <label>:11:                                     ; preds = %2
  call void @_ZNSaIPSt10unique_ptrIN4MARC11IThreadTaskESt14default_deleteIS1_EEED2Ev(%"class.std::allocator.29"* %5) #3
  ret %"class.std::unique_ptr"** %10

; <label>:12:                                     ; preds = %2
  %13 = landingpad { i8*, i32 }
          cleanup
  %14 = extractvalue { i8*, i32 } %13, 0
  store i8* %14, i8** %6, align 8
  %15 = extractvalue { i8*, i32 } %13, 1
  store i32 %15, i32* %7, align 4
  call void @_ZNSaIPSt10unique_ptrIN4MARC11IThreadTaskESt14default_deleteIS1_EEED2Ev(%"class.std::allocator.29"* %5) #3
  br label %16

; <label>:16:                                     ; preds = %12
  %17 = load i8*, i8** %6, align 8
  %18 = load i32, i32* %7, align 4
  %19 = insertvalue { i8*, i32 } undef, i8* %17, 0
  %20 = insertvalue { i8*, i32 } %19, i32 %18, 1
  resume { i8*, i32 } %20
}

; Function Attrs: noinline uwtable
define linkonce_odr void @_ZNSt11_Deque_baseISt10unique_ptrIN4MARC11IThreadTaskESt14default_deleteIS2_EESaIS5_EE15_M_create_nodesEPPS5_S9_(%"class.std::_Deque_base.3"*, %"class.std::unique_ptr"**, %"class.std::unique_ptr"**) #0 comdat align 2 personality i8* bitcast (i32 (...)* @__gxx_personality_v0 to i8*) {
  %4 = alloca %"class.std::_Deque_base.3"*, align 8
  %5 = alloca %"class.std::unique_ptr"**, align 8
  %6 = alloca %"class.std::unique_ptr"**, align 8
  %7 = alloca %"class.std::unique_ptr"**, align 8
  %8 = alloca i8*
  %9 = alloca i32
  store %"class.std::_Deque_base.3"* %0, %"class.std::_Deque_base.3"** %4, align 8
  store %"class.std::unique_ptr"** %1, %"class.std::unique_ptr"*** %5, align 8
  store %"class.std::unique_ptr"** %2, %"class.std::unique_ptr"*** %6, align 8
  %10 = load %"class.std::_Deque_base.3"*, %"class.std::_Deque_base.3"** %4, align 8
  %11 = load %"class.std::unique_ptr"**, %"class.std::unique_ptr"*** %5, align 8
  store %"class.std::unique_ptr"** %11, %"class.std::unique_ptr"*** %7, align 8
  br label %12

; <label>:12:                                     ; preds = %20, %3
  %13 = load %"class.std::unique_ptr"**, %"class.std::unique_ptr"*** %7, align 8
  %14 = load %"class.std::unique_ptr"**, %"class.std::unique_ptr"*** %6, align 8
  %15 = icmp ult %"class.std::unique_ptr"** %13, %14
  br i1 %15, label %16, label %32

; <label>:16:                                     ; preds = %12
  %17 = invoke %"class.std::unique_ptr"* @_ZNSt11_Deque_baseISt10unique_ptrIN4MARC11IThreadTaskESt14default_deleteIS2_EESaIS5_EE16_M_allocate_nodeEv(%"class.std::_Deque_base.3"* %10)
          to label %18 unwind label %23

; <label>:18:                                     ; preds = %16
  %19 = load %"class.std::unique_ptr"**, %"class.std::unique_ptr"*** %7, align 8
  store %"class.std::unique_ptr"* %17, %"class.std::unique_ptr"** %19, align 8
  br label %20

; <label>:20:                                     ; preds = %18
  %21 = load %"class.std::unique_ptr"**, %"class.std::unique_ptr"*** %7, align 8
  %22 = getelementptr inbounds %"class.std::unique_ptr"*, %"class.std::unique_ptr"** %21, i32 1
  store %"class.std::unique_ptr"** %22, %"class.std::unique_ptr"*** %7, align 8
  br label %12

; <label>:23:                                     ; preds = %16
  %24 = landingpad { i8*, i32 }
          catch i8* null
  %25 = extractvalue { i8*, i32 } %24, 0
  store i8* %25, i8** %8, align 8
  %26 = extractvalue { i8*, i32 } %24, 1
  store i32 %26, i32* %9, align 4
  br label %27

; <label>:27:                                     ; preds = %23
  %28 = load i8*, i8** %8, align 8
  %29 = call i8* @__cxa_begin_catch(i8* %28) #3
  %30 = load %"class.std::unique_ptr"**, %"class.std::unique_ptr"*** %5, align 8
  %31 = load %"class.std::unique_ptr"**, %"class.std::unique_ptr"*** %7, align 8
  call void @_ZNSt11_Deque_baseISt10unique_ptrIN4MARC11IThreadTaskESt14default_deleteIS2_EESaIS5_EE16_M_destroy_nodesEPPS5_S9_(%"class.std::_Deque_base.3"* %10, %"class.std::unique_ptr"** %30, %"class.std::unique_ptr"** %31) #3
  invoke void @__cxa_rethrow() #15
          to label %47 unwind label %33

; <label>:32:                                     ; preds = %12
  br label %38

; <label>:33:                                     ; preds = %27
  %34 = landingpad { i8*, i32 }
          cleanup
  %35 = extractvalue { i8*, i32 } %34, 0
  store i8* %35, i8** %8, align 8
  %36 = extractvalue { i8*, i32 } %34, 1
  store i32 %36, i32* %9, align 4
  invoke void @__cxa_end_catch()
          to label %37 unwind label %44

; <label>:37:                                     ; preds = %33
  br label %39

; <label>:38:                                     ; preds = %32
  ret void

; <label>:39:                                     ; preds = %37
  %40 = load i8*, i8** %8, align 8
  %41 = load i32, i32* %9, align 4
  %42 = insertvalue { i8*, i32 } undef, i8* %40, 0
  %43 = insertvalue { i8*, i32 } %42, i32 %41, 1
  resume { i8*, i32 } %43

; <label>:44:                                     ; preds = %33
  %45 = landingpad { i8*, i32 }
          catch i8* null
  %46 = extractvalue { i8*, i32 } %45, 0
  call void @__clang_call_terminate(i8* %46) #11
  unreachable

; <label>:47:                                     ; preds = %27
  unreachable
}

; Function Attrs: noinline nounwind uwtable
define linkonce_odr void @_ZNSt11_Deque_baseISt10unique_ptrIN4MARC11IThreadTaskESt14default_deleteIS2_EESaIS5_EE17_M_deallocate_mapEPPS5_m(%"class.std::_Deque_base.3"*, %"class.std::unique_ptr"**, i64) #5 comdat align 2 personality i8* bitcast (i32 (...)* @__gxx_personality_v0 to i8*) {
  %4 = alloca %"class.std::_Deque_base.3"*, align 8
  %5 = alloca %"class.std::unique_ptr"**, align 8
  %6 = alloca i64, align 8
  %7 = alloca %"class.std::allocator.29", align 1
  %8 = alloca i8*
  %9 = alloca i32
  store %"class.std::_Deque_base.3"* %0, %"class.std::_Deque_base.3"** %4, align 8
  store %"class.std::unique_ptr"** %1, %"class.std::unique_ptr"*** %5, align 8
  store i64 %2, i64* %6, align 8
  %10 = load %"class.std::_Deque_base.3"*, %"class.std::_Deque_base.3"** %4, align 8
  call void @_ZNKSt11_Deque_baseISt10unique_ptrIN4MARC11IThreadTaskESt14default_deleteIS2_EESaIS5_EE20_M_get_map_allocatorEv(%"class.std::allocator.29"* sret %7, %"class.std::_Deque_base.3"* %10) #3
  %11 = load %"class.std::unique_ptr"**, %"class.std::unique_ptr"*** %5, align 8
  %12 = load i64, i64* %6, align 8
  invoke void @_ZNSt16allocator_traitsISaIPSt10unique_ptrIN4MARC11IThreadTaskESt14default_deleteIS2_EEEE10deallocateERS7_PS6_m(%"class.std::allocator.29"* dereferenceable(1) %7, %"class.std::unique_ptr"** %11, i64 %12)
          to label %13 unwind label %14

; <label>:13:                                     ; preds = %3
  call void @_ZNSaIPSt10unique_ptrIN4MARC11IThreadTaskESt14default_deleteIS1_EEED2Ev(%"class.std::allocator.29"* %7) #3
  ret void

; <label>:14:                                     ; preds = %3
  %15 = landingpad { i8*, i32 }
          catch i8* null
  %16 = extractvalue { i8*, i32 } %15, 0
  store i8* %16, i8** %8, align 8
  %17 = extractvalue { i8*, i32 } %15, 1
  store i32 %17, i32* %9, align 4
  call void @_ZNSaIPSt10unique_ptrIN4MARC11IThreadTaskESt14default_deleteIS1_EEED2Ev(%"class.std::allocator.29"* %7) #3
  br label %18

; <label>:18:                                     ; preds = %14
  %19 = load i8*, i8** %8, align 8
  call void @__clang_call_terminate(i8* %19) #11
  unreachable
}

; Function Attrs: noinline nounwind uwtable
define linkonce_odr void @_ZNSt15_Deque_iteratorISt10unique_ptrIN4MARC11IThreadTaskESt14default_deleteIS2_EERS5_PS5_E11_M_set_nodeEPS7_(%"struct.std::_Deque_iterator.9"*, %"class.std::unique_ptr"**) #5 comdat align 2 {
  %3 = alloca %"struct.std::_Deque_iterator.9"*, align 8
  %4 = alloca %"class.std::unique_ptr"**, align 8
  store %"struct.std::_Deque_iterator.9"* %0, %"struct.std::_Deque_iterator.9"** %3, align 8
  store %"class.std::unique_ptr"** %1, %"class.std::unique_ptr"*** %4, align 8
  %5 = load %"struct.std::_Deque_iterator.9"*, %"struct.std::_Deque_iterator.9"** %3, align 8
  %6 = load %"class.std::unique_ptr"**, %"class.std::unique_ptr"*** %4, align 8
  %7 = getelementptr inbounds %"struct.std::_Deque_iterator.9", %"struct.std::_Deque_iterator.9"* %5, i32 0, i32 3
  store %"class.std::unique_ptr"** %6, %"class.std::unique_ptr"*** %7, align 8
  %8 = load %"class.std::unique_ptr"**, %"class.std::unique_ptr"*** %4, align 8
  %9 = load %"class.std::unique_ptr"*, %"class.std::unique_ptr"** %8, align 8
  %10 = getelementptr inbounds %"struct.std::_Deque_iterator.9", %"struct.std::_Deque_iterator.9"* %5, i32 0, i32 1
  store %"class.std::unique_ptr"* %9, %"class.std::unique_ptr"** %10, align 8
  %11 = getelementptr inbounds %"struct.std::_Deque_iterator.9", %"struct.std::_Deque_iterator.9"* %5, i32 0, i32 1
  %12 = load %"class.std::unique_ptr"*, %"class.std::unique_ptr"** %11, align 8
  %13 = call i64 @_ZNSt15_Deque_iteratorISt10unique_ptrIN4MARC11IThreadTaskESt14default_deleteIS2_EERS5_PS5_E14_S_buffer_sizeEv() #3
  %14 = getelementptr inbounds %"class.std::unique_ptr", %"class.std::unique_ptr"* %12, i64 %13
  %15 = getelementptr inbounds %"struct.std::_Deque_iterator.9", %"struct.std::_Deque_iterator.9"* %5, i32 0, i32 2
  store %"class.std::unique_ptr"* %14, %"class.std::unique_ptr"** %15, align 8
  ret void
}

; Function Attrs: noinline nounwind uwtable
define linkonce_odr void @_ZNKSt11_Deque_baseISt10unique_ptrIN4MARC11IThreadTaskESt14default_deleteIS2_EESaIS5_EE20_M_get_map_allocatorEv(%"class.std::allocator.29"* noalias sret, %"class.std::_Deque_base.3"*) #5 comdat align 2 {
  %3 = alloca %"class.std::_Deque_base.3"*, align 8
  store %"class.std::_Deque_base.3"* %1, %"class.std::_Deque_base.3"** %3, align 8
  %4 = load %"class.std::_Deque_base.3"*, %"class.std::_Deque_base.3"** %3, align 8
  %5 = call dereferenceable(1) %"class.std::allocator.4"* @_ZNKSt11_Deque_baseISt10unique_ptrIN4MARC11IThreadTaskESt14default_deleteIS2_EESaIS5_EE19_M_get_Tp_allocatorEv(%"class.std::_Deque_base.3"* %4) #3
  call void @_ZNSaIPSt10unique_ptrIN4MARC11IThreadTaskESt14default_deleteIS1_EEEC2IS4_EERKSaIT_E(%"class.std::allocator.29"* %0, %"class.std::allocator.4"* dereferenceable(1) %5) #3
  ret void
}

; Function Attrs: noinline uwtable
define linkonce_odr %"class.std::unique_ptr"** @_ZNSt16allocator_traitsISaIPSt10unique_ptrIN4MARC11IThreadTaskESt14default_deleteIS2_EEEE8allocateERS7_m(%"class.std::allocator.29"* dereferenceable(1), i64) #0 comdat align 2 {
  %3 = alloca %"class.std::allocator.29"*, align 8
  %4 = alloca i64, align 8
  store %"class.std::allocator.29"* %0, %"class.std::allocator.29"** %3, align 8
  store i64 %1, i64* %4, align 8
  %5 = load %"class.std::allocator.29"*, %"class.std::allocator.29"** %3, align 8
  %6 = bitcast %"class.std::allocator.29"* %5 to %"class.__gnu_cxx::new_allocator.30"*
  %7 = load i64, i64* %4, align 8
  %8 = call %"class.std::unique_ptr"** @_ZN9__gnu_cxx13new_allocatorIPSt10unique_ptrIN4MARC11IThreadTaskESt14default_deleteIS3_EEE8allocateEmPKv(%"class.__gnu_cxx::new_allocator.30"* %6, i64 %7, i8* null)
  ret %"class.std::unique_ptr"** %8
}

; Function Attrs: noinline nounwind uwtable
define linkonce_odr void @_ZNSaIPSt10unique_ptrIN4MARC11IThreadTaskESt14default_deleteIS1_EEED2Ev(%"class.std::allocator.29"*) unnamed_addr #5 comdat align 2 {
  %2 = alloca %"class.std::allocator.29"*, align 8
  store %"class.std::allocator.29"* %0, %"class.std::allocator.29"** %2, align 8
  %3 = load %"class.std::allocator.29"*, %"class.std::allocator.29"** %2, align 8
  %4 = bitcast %"class.std::allocator.29"* %3 to %"class.__gnu_cxx::new_allocator.30"*
  call void @_ZN9__gnu_cxx13new_allocatorIPSt10unique_ptrIN4MARC11IThreadTaskESt14default_deleteIS3_EEED2Ev(%"class.__gnu_cxx::new_allocator.30"* %4) #3
  ret void
}

; Function Attrs: noinline nounwind uwtable
define linkonce_odr dereferenceable(1) %"class.std::allocator.4"* @_ZNKSt11_Deque_baseISt10unique_ptrIN4MARC11IThreadTaskESt14default_deleteIS2_EESaIS5_EE19_M_get_Tp_allocatorEv(%"class.std::_Deque_base.3"*) #5 comdat align 2 {
  %2 = alloca %"class.std::_Deque_base.3"*, align 8
  store %"class.std::_Deque_base.3"* %0, %"class.std::_Deque_base.3"** %2, align 8
  %3 = load %"class.std::_Deque_base.3"*, %"class.std::_Deque_base.3"** %2, align 8
  %4 = getelementptr inbounds %"class.std::_Deque_base.3", %"class.std::_Deque_base.3"* %3, i32 0, i32 0
  %5 = bitcast %"struct.std::_Deque_base<std::unique_ptr<MARC::IThreadTask, std::default_delete<MARC::IThreadTask> >, std::allocator<std::unique_ptr<MARC::IThreadTask, std::default_delete<MARC::IThreadTask> > > >::_Deque_impl"* %4 to %"class.std::allocator.4"*
  ret %"class.std::allocator.4"* %5
}

; Function Attrs: noinline nounwind uwtable
define linkonce_odr void @_ZNSaIPSt10unique_ptrIN4MARC11IThreadTaskESt14default_deleteIS1_EEEC2IS4_EERKSaIT_E(%"class.std::allocator.29"*, %"class.std::allocator.4"* dereferenceable(1)) unnamed_addr #5 comdat align 2 {
  %3 = alloca %"class.std::allocator.29"*, align 8
  %4 = alloca %"class.std::allocator.4"*, align 8
  store %"class.std::allocator.29"* %0, %"class.std::allocator.29"** %3, align 8
  store %"class.std::allocator.4"* %1, %"class.std::allocator.4"** %4, align 8
  %5 = load %"class.std::allocator.29"*, %"class.std::allocator.29"** %3, align 8
  %6 = bitcast %"class.std::allocator.29"* %5 to %"class.__gnu_cxx::new_allocator.30"*
  call void @_ZN9__gnu_cxx13new_allocatorIPSt10unique_ptrIN4MARC11IThreadTaskESt14default_deleteIS3_EEEC2Ev(%"class.__gnu_cxx::new_allocator.30"* %6) #3
  ret void
}

; Function Attrs: noinline nounwind uwtable
define linkonce_odr void @_ZN9__gnu_cxx13new_allocatorIPSt10unique_ptrIN4MARC11IThreadTaskESt14default_deleteIS3_EEEC2Ev(%"class.__gnu_cxx::new_allocator.30"*) unnamed_addr #5 comdat align 2 {
  %2 = alloca %"class.__gnu_cxx::new_allocator.30"*, align 8
  store %"class.__gnu_cxx::new_allocator.30"* %0, %"class.__gnu_cxx::new_allocator.30"** %2, align 8
  %3 = load %"class.__gnu_cxx::new_allocator.30"*, %"class.__gnu_cxx::new_allocator.30"** %2, align 8
  ret void
}

; Function Attrs: noinline uwtable
define linkonce_odr %"class.std::unique_ptr"** @_ZN9__gnu_cxx13new_allocatorIPSt10unique_ptrIN4MARC11IThreadTaskESt14default_deleteIS3_EEE8allocateEmPKv(%"class.__gnu_cxx::new_allocator.30"*, i64, i8*) #0 comdat align 2 {
  %4 = alloca %"class.__gnu_cxx::new_allocator.30"*, align 8
  %5 = alloca i64, align 8
  %6 = alloca i8*, align 8
  store %"class.__gnu_cxx::new_allocator.30"* %0, %"class.__gnu_cxx::new_allocator.30"** %4, align 8
  store i64 %1, i64* %5, align 8
  store i8* %2, i8** %6, align 8
  %7 = load %"class.__gnu_cxx::new_allocator.30"*, %"class.__gnu_cxx::new_allocator.30"** %4, align 8
  %8 = load i64, i64* %5, align 8
  %9 = call i64 @_ZNK9__gnu_cxx13new_allocatorIPSt10unique_ptrIN4MARC11IThreadTaskESt14default_deleteIS3_EEE8max_sizeEv(%"class.__gnu_cxx::new_allocator.30"* %7) #3
  %10 = icmp ugt i64 %8, %9
  br i1 %10, label %11, label %12

; <label>:11:                                     ; preds = %3
  call void @_ZSt17__throw_bad_allocv() #15
  unreachable

; <label>:12:                                     ; preds = %3
  %13 = load i64, i64* %5, align 8
  %14 = mul i64 %13, 8
  %15 = call i8* @_Znwm(i64 %14)
  %16 = bitcast i8* %15 to %"class.std::unique_ptr"**
  ret %"class.std::unique_ptr"** %16
}

; Function Attrs: noinline nounwind uwtable
define linkonce_odr i64 @_ZNK9__gnu_cxx13new_allocatorIPSt10unique_ptrIN4MARC11IThreadTaskESt14default_deleteIS3_EEE8max_sizeEv(%"class.__gnu_cxx::new_allocator.30"*) #5 comdat align 2 {
  %2 = alloca %"class.__gnu_cxx::new_allocator.30"*, align 8
  store %"class.__gnu_cxx::new_allocator.30"* %0, %"class.__gnu_cxx::new_allocator.30"** %2, align 8
  %3 = load %"class.__gnu_cxx::new_allocator.30"*, %"class.__gnu_cxx::new_allocator.30"** %2, align 8
  ret i64 2305843009213693951
}

; Function Attrs: noreturn
declare void @_ZSt17__throw_bad_allocv() #9

; Function Attrs: nobuiltin
declare noalias i8* @_Znwm(i64) #7

; Function Attrs: noinline nounwind uwtable
define linkonce_odr void @_ZN9__gnu_cxx13new_allocatorIPSt10unique_ptrIN4MARC11IThreadTaskESt14default_deleteIS3_EEED2Ev(%"class.__gnu_cxx::new_allocator.30"*) unnamed_addr #5 comdat align 2 {
  %2 = alloca %"class.__gnu_cxx::new_allocator.30"*, align 8
  store %"class.__gnu_cxx::new_allocator.30"* %0, %"class.__gnu_cxx::new_allocator.30"** %2, align 8
  %3 = load %"class.__gnu_cxx::new_allocator.30"*, %"class.__gnu_cxx::new_allocator.30"** %2, align 8
  ret void
}

; Function Attrs: noinline uwtable
define linkonce_odr %"class.std::unique_ptr"* @_ZNSt11_Deque_baseISt10unique_ptrIN4MARC11IThreadTaskESt14default_deleteIS2_EESaIS5_EE16_M_allocate_nodeEv(%"class.std::_Deque_base.3"*) #0 comdat align 2 {
  %2 = alloca %"class.std::_Deque_base.3"*, align 8
  store %"class.std::_Deque_base.3"* %0, %"class.std::_Deque_base.3"** %2, align 8
  %3 = load %"class.std::_Deque_base.3"*, %"class.std::_Deque_base.3"** %2, align 8
  %4 = getelementptr inbounds %"class.std::_Deque_base.3", %"class.std::_Deque_base.3"* %3, i32 0, i32 0
  %5 = bitcast %"struct.std::_Deque_base<std::unique_ptr<MARC::IThreadTask, std::default_delete<MARC::IThreadTask> >, std::allocator<std::unique_ptr<MARC::IThreadTask, std::default_delete<MARC::IThreadTask> > > >::_Deque_impl"* %4 to %"class.std::allocator.4"*
  %6 = call i64 @_ZSt16__deque_buf_sizem(i64 8)
  %7 = call %"class.std::unique_ptr"* @_ZNSt16allocator_traitsISaISt10unique_ptrIN4MARC11IThreadTaskESt14default_deleteIS2_EEEE8allocateERS6_m(%"class.std::allocator.4"* dereferenceable(1) %5, i64 %6)
  ret %"class.std::unique_ptr"* %7
}

; Function Attrs: noinline nounwind uwtable
define linkonce_odr void @_ZNSt11_Deque_baseISt10unique_ptrIN4MARC11IThreadTaskESt14default_deleteIS2_EESaIS5_EE16_M_destroy_nodesEPPS5_S9_(%"class.std::_Deque_base.3"*, %"class.std::unique_ptr"**, %"class.std::unique_ptr"**) #5 comdat align 2 {
  %4 = alloca %"class.std::_Deque_base.3"*, align 8
  %5 = alloca %"class.std::unique_ptr"**, align 8
  %6 = alloca %"class.std::unique_ptr"**, align 8
  %7 = alloca %"class.std::unique_ptr"**, align 8
  store %"class.std::_Deque_base.3"* %0, %"class.std::_Deque_base.3"** %4, align 8
  store %"class.std::unique_ptr"** %1, %"class.std::unique_ptr"*** %5, align 8
  store %"class.std::unique_ptr"** %2, %"class.std::unique_ptr"*** %6, align 8
  %8 = load %"class.std::_Deque_base.3"*, %"class.std::_Deque_base.3"** %4, align 8
  %9 = load %"class.std::unique_ptr"**, %"class.std::unique_ptr"*** %5, align 8
  store %"class.std::unique_ptr"** %9, %"class.std::unique_ptr"*** %7, align 8
  br label %10

; <label>:10:                                     ; preds = %17, %3
  %11 = load %"class.std::unique_ptr"**, %"class.std::unique_ptr"*** %7, align 8
  %12 = load %"class.std::unique_ptr"**, %"class.std::unique_ptr"*** %6, align 8
  %13 = icmp ult %"class.std::unique_ptr"** %11, %12
  br i1 %13, label %14, label %20

; <label>:14:                                     ; preds = %10
  %15 = load %"class.std::unique_ptr"**, %"class.std::unique_ptr"*** %7, align 8
  %16 = load %"class.std::unique_ptr"*, %"class.std::unique_ptr"** %15, align 8
  call void @_ZNSt11_Deque_baseISt10unique_ptrIN4MARC11IThreadTaskESt14default_deleteIS2_EESaIS5_EE18_M_deallocate_nodeEPS5_(%"class.std::_Deque_base.3"* %8, %"class.std::unique_ptr"* %16) #3
  br label %17

; <label>:17:                                     ; preds = %14
  %18 = load %"class.std::unique_ptr"**, %"class.std::unique_ptr"*** %7, align 8
  %19 = getelementptr inbounds %"class.std::unique_ptr"*, %"class.std::unique_ptr"** %18, i32 1
  store %"class.std::unique_ptr"** %19, %"class.std::unique_ptr"*** %7, align 8
  br label %10

; <label>:20:                                     ; preds = %10
  ret void
}

; Function Attrs: noinline uwtable
define linkonce_odr %"class.std::unique_ptr"* @_ZNSt16allocator_traitsISaISt10unique_ptrIN4MARC11IThreadTaskESt14default_deleteIS2_EEEE8allocateERS6_m(%"class.std::allocator.4"* dereferenceable(1), i64) #0 comdat align 2 {
  %3 = alloca %"class.std::allocator.4"*, align 8
  %4 = alloca i64, align 8
  store %"class.std::allocator.4"* %0, %"class.std::allocator.4"** %3, align 8
  store i64 %1, i64* %4, align 8
  %5 = load %"class.std::allocator.4"*, %"class.std::allocator.4"** %3, align 8
  %6 = bitcast %"class.std::allocator.4"* %5 to %"class.__gnu_cxx::new_allocator.5"*
  %7 = load i64, i64* %4, align 8
  %8 = call %"class.std::unique_ptr"* @_ZN9__gnu_cxx13new_allocatorISt10unique_ptrIN4MARC11IThreadTaskESt14default_deleteIS3_EEE8allocateEmPKv(%"class.__gnu_cxx::new_allocator.5"* %6, i64 %7, i8* null)
  ret %"class.std::unique_ptr"* %8
}

; Function Attrs: noinline uwtable
define linkonce_odr %"class.std::unique_ptr"* @_ZN9__gnu_cxx13new_allocatorISt10unique_ptrIN4MARC11IThreadTaskESt14default_deleteIS3_EEE8allocateEmPKv(%"class.__gnu_cxx::new_allocator.5"*, i64, i8*) #0 comdat align 2 {
  %4 = alloca %"class.__gnu_cxx::new_allocator.5"*, align 8
  %5 = alloca i64, align 8
  %6 = alloca i8*, align 8
  store %"class.__gnu_cxx::new_allocator.5"* %0, %"class.__gnu_cxx::new_allocator.5"** %4, align 8
  store i64 %1, i64* %5, align 8
  store i8* %2, i8** %6, align 8
  %7 = load %"class.__gnu_cxx::new_allocator.5"*, %"class.__gnu_cxx::new_allocator.5"** %4, align 8
  %8 = load i64, i64* %5, align 8
  %9 = call i64 @_ZNK9__gnu_cxx13new_allocatorISt10unique_ptrIN4MARC11IThreadTaskESt14default_deleteIS3_EEE8max_sizeEv(%"class.__gnu_cxx::new_allocator.5"* %7) #3
  %10 = icmp ugt i64 %8, %9
  br i1 %10, label %11, label %12

; <label>:11:                                     ; preds = %3
  call void @_ZSt17__throw_bad_allocv() #15
  unreachable

; <label>:12:                                     ; preds = %3
  %13 = load i64, i64* %5, align 8
  %14 = mul i64 %13, 8
  %15 = call i8* @_Znwm(i64 %14)
  %16 = bitcast i8* %15 to %"class.std::unique_ptr"*
  ret %"class.std::unique_ptr"* %16
}

; Function Attrs: noinline nounwind uwtable
define linkonce_odr i64 @_ZNK9__gnu_cxx13new_allocatorISt10unique_ptrIN4MARC11IThreadTaskESt14default_deleteIS3_EEE8max_sizeEv(%"class.__gnu_cxx::new_allocator.5"*) #5 comdat align 2 {
  %2 = alloca %"class.__gnu_cxx::new_allocator.5"*, align 8
  store %"class.__gnu_cxx::new_allocator.5"* %0, %"class.__gnu_cxx::new_allocator.5"** %2, align 8
  %3 = load %"class.__gnu_cxx::new_allocator.5"*, %"class.__gnu_cxx::new_allocator.5"** %2, align 8
  ret i64 2305843009213693951
}

; Function Attrs: noinline nounwind uwtable
define linkonce_odr void @_ZNSt11_Deque_baseISt10unique_ptrIN4MARC11IThreadTaskESt14default_deleteIS2_EESaIS5_EE18_M_deallocate_nodeEPS5_(%"class.std::_Deque_base.3"*, %"class.std::unique_ptr"*) #5 comdat align 2 personality i8* bitcast (i32 (...)* @__gxx_personality_v0 to i8*) {
  %3 = alloca %"class.std::_Deque_base.3"*, align 8
  %4 = alloca %"class.std::unique_ptr"*, align 8
  store %"class.std::_Deque_base.3"* %0, %"class.std::_Deque_base.3"** %3, align 8
  store %"class.std::unique_ptr"* %1, %"class.std::unique_ptr"** %4, align 8
  %5 = load %"class.std::_Deque_base.3"*, %"class.std::_Deque_base.3"** %3, align 8
  %6 = getelementptr inbounds %"class.std::_Deque_base.3", %"class.std::_Deque_base.3"* %5, i32 0, i32 0
  %7 = bitcast %"struct.std::_Deque_base<std::unique_ptr<MARC::IThreadTask, std::default_delete<MARC::IThreadTask> >, std::allocator<std::unique_ptr<MARC::IThreadTask, std::default_delete<MARC::IThreadTask> > > >::_Deque_impl"* %6 to %"class.std::allocator.4"*
  %8 = load %"class.std::unique_ptr"*, %"class.std::unique_ptr"** %4, align 8
  %9 = invoke i64 @_ZSt16__deque_buf_sizem(i64 8)
          to label %10 unwind label %12

; <label>:10:                                     ; preds = %2
  invoke void @_ZNSt16allocator_traitsISaISt10unique_ptrIN4MARC11IThreadTaskESt14default_deleteIS2_EEEE10deallocateERS6_PS5_m(%"class.std::allocator.4"* dereferenceable(1) %7, %"class.std::unique_ptr"* %8, i64 %9)
          to label %11 unwind label %12

; <label>:11:                                     ; preds = %10
  ret void

; <label>:12:                                     ; preds = %10, %2
  %13 = landingpad { i8*, i32 }
          catch i8* null
  %14 = extractvalue { i8*, i32 } %13, 0
  call void @__clang_call_terminate(i8* %14) #11
  unreachable
}

; Function Attrs: noinline uwtable
define linkonce_odr void @_ZNSt16allocator_traitsISaISt10unique_ptrIN4MARC11IThreadTaskESt14default_deleteIS2_EEEE10deallocateERS6_PS5_m(%"class.std::allocator.4"* dereferenceable(1), %"class.std::unique_ptr"*, i64) #0 comdat align 2 {
  %4 = alloca %"class.std::allocator.4"*, align 8
  %5 = alloca %"class.std::unique_ptr"*, align 8
  %6 = alloca i64, align 8
  store %"class.std::allocator.4"* %0, %"class.std::allocator.4"** %4, align 8
  store %"class.std::unique_ptr"* %1, %"class.std::unique_ptr"** %5, align 8
  store i64 %2, i64* %6, align 8
  %7 = load %"class.std::allocator.4"*, %"class.std::allocator.4"** %4, align 8
  %8 = bitcast %"class.std::allocator.4"* %7 to %"class.__gnu_cxx::new_allocator.5"*
  %9 = load %"class.std::unique_ptr"*, %"class.std::unique_ptr"** %5, align 8
  %10 = load i64, i64* %6, align 8
  call void @_ZN9__gnu_cxx13new_allocatorISt10unique_ptrIN4MARC11IThreadTaskESt14default_deleteIS3_EEE10deallocateEPS6_m(%"class.__gnu_cxx::new_allocator.5"* %8, %"class.std::unique_ptr"* %9, i64 %10)
  ret void
}

; Function Attrs: noinline nounwind uwtable
define linkonce_odr void @_ZN9__gnu_cxx13new_allocatorISt10unique_ptrIN4MARC11IThreadTaskESt14default_deleteIS3_EEE10deallocateEPS6_m(%"class.__gnu_cxx::new_allocator.5"*, %"class.std::unique_ptr"*, i64) #5 comdat align 2 {
  %4 = alloca %"class.__gnu_cxx::new_allocator.5"*, align 8
  %5 = alloca %"class.std::unique_ptr"*, align 8
  %6 = alloca i64, align 8
  store %"class.__gnu_cxx::new_allocator.5"* %0, %"class.__gnu_cxx::new_allocator.5"** %4, align 8
  store %"class.std::unique_ptr"* %1, %"class.std::unique_ptr"** %5, align 8
  store i64 %2, i64* %6, align 8
  %7 = load %"class.__gnu_cxx::new_allocator.5"*, %"class.__gnu_cxx::new_allocator.5"** %4, align 8
  %8 = load %"class.std::unique_ptr"*, %"class.std::unique_ptr"** %5, align 8
  %9 = bitcast %"class.std::unique_ptr"* %8 to i8*
  call void @_ZdlPv(i8* %9) #3
  ret void
}

; Function Attrs: nobuiltin nounwind
declare void @_ZdlPv(i8*) #10

; Function Attrs: noinline uwtable
define linkonce_odr void @_ZNSt16allocator_traitsISaIPSt10unique_ptrIN4MARC11IThreadTaskESt14default_deleteIS2_EEEE10deallocateERS7_PS6_m(%"class.std::allocator.29"* dereferenceable(1), %"class.std::unique_ptr"**, i64) #0 comdat align 2 {
  %4 = alloca %"class.std::allocator.29"*, align 8
  %5 = alloca %"class.std::unique_ptr"**, align 8
  %6 = alloca i64, align 8
  store %"class.std::allocator.29"* %0, %"class.std::allocator.29"** %4, align 8
  store %"class.std::unique_ptr"** %1, %"class.std::unique_ptr"*** %5, align 8
  store i64 %2, i64* %6, align 8
  %7 = load %"class.std::allocator.29"*, %"class.std::allocator.29"** %4, align 8
  %8 = bitcast %"class.std::allocator.29"* %7 to %"class.__gnu_cxx::new_allocator.30"*
  %9 = load %"class.std::unique_ptr"**, %"class.std::unique_ptr"*** %5, align 8
  %10 = load i64, i64* %6, align 8
  call void @_ZN9__gnu_cxx13new_allocatorIPSt10unique_ptrIN4MARC11IThreadTaskESt14default_deleteIS3_EEE10deallocateEPS7_m(%"class.__gnu_cxx::new_allocator.30"* %8, %"class.std::unique_ptr"** %9, i64 %10)
  ret void
}

; Function Attrs: noinline nounwind uwtable
define linkonce_odr void @_ZN9__gnu_cxx13new_allocatorIPSt10unique_ptrIN4MARC11IThreadTaskESt14default_deleteIS3_EEE10deallocateEPS7_m(%"class.__gnu_cxx::new_allocator.30"*, %"class.std::unique_ptr"**, i64) #5 comdat align 2 {
  %4 = alloca %"class.__gnu_cxx::new_allocator.30"*, align 8
  %5 = alloca %"class.std::unique_ptr"**, align 8
  %6 = alloca i64, align 8
  store %"class.__gnu_cxx::new_allocator.30"* %0, %"class.__gnu_cxx::new_allocator.30"** %4, align 8
  store %"class.std::unique_ptr"** %1, %"class.std::unique_ptr"*** %5, align 8
  store i64 %2, i64* %6, align 8
  %7 = load %"class.__gnu_cxx::new_allocator.30"*, %"class.__gnu_cxx::new_allocator.30"** %4, align 8
  %8 = load %"class.std::unique_ptr"**, %"class.std::unique_ptr"*** %5, align 8
  %9 = bitcast %"class.std::unique_ptr"** %8 to i8*
  call void @_ZdlPv(i8* %9) #3
  ret void
}

; Function Attrs: noinline nounwind uwtable
define linkonce_odr i64 @_ZNSt15_Deque_iteratorISt10unique_ptrIN4MARC11IThreadTaskESt14default_deleteIS2_EERS5_PS5_E14_S_buffer_sizeEv() #5 comdat align 2 personality i8* bitcast (i32 (...)* @__gxx_personality_v0 to i8*) {
  %1 = invoke i64 @_ZSt16__deque_buf_sizem(i64 8)
          to label %2 unwind label %3

; <label>:2:                                      ; preds = %0
  ret i64 %1

; <label>:3:                                      ; preds = %0
  %4 = landingpad { i8*, i32 }
          catch i8* null
  %5 = extractvalue { i8*, i32 } %4, 0
  call void @__clang_call_terminate(i8* %5) #11
  unreachable
}

; Function Attrs: noinline nounwind uwtable
define linkonce_odr void @_ZNSaISt10unique_ptrIN4MARC11IThreadTaskESt14default_deleteIS1_EEED2Ev(%"class.std::allocator.4"*) unnamed_addr #5 comdat align 2 {
  %2 = alloca %"class.std::allocator.4"*, align 8
  store %"class.std::allocator.4"* %0, %"class.std::allocator.4"** %2, align 8
  %3 = load %"class.std::allocator.4"*, %"class.std::allocator.4"** %2, align 8
  %4 = bitcast %"class.std::allocator.4"* %3 to %"class.__gnu_cxx::new_allocator.5"*
  call void @_ZN9__gnu_cxx13new_allocatorISt10unique_ptrIN4MARC11IThreadTaskESt14default_deleteIS3_EEED2Ev(%"class.__gnu_cxx::new_allocator.5"* %4) #3
  ret void
}

; Function Attrs: noinline nounwind uwtable
define linkonce_odr void @_ZN9__gnu_cxx13new_allocatorISt10unique_ptrIN4MARC11IThreadTaskESt14default_deleteIS3_EEED2Ev(%"class.__gnu_cxx::new_allocator.5"*) unnamed_addr #5 comdat align 2 {
  %2 = alloca %"class.__gnu_cxx::new_allocator.5"*, align 8
  store %"class.__gnu_cxx::new_allocator.5"* %0, %"class.__gnu_cxx::new_allocator.5"** %2, align 8
  %3 = load %"class.__gnu_cxx::new_allocator.5"*, %"class.__gnu_cxx::new_allocator.5"** %2, align 8
  ret void
}

; Function Attrs: noinline nounwind uwtable
define linkonce_odr dereferenceable(80) %"class.std::deque.2"* @_ZSt4moveIRSt5dequeISt10unique_ptrIN4MARC11IThreadTaskESt14default_deleteIS3_EESaIS6_EEEONSt16remove_referenceIT_E4typeEOSB_(%"class.std::deque.2"* dereferenceable(80)) #5 comdat {
  %2 = alloca %"class.std::deque.2"*, align 8
  store %"class.std::deque.2"* %0, %"class.std::deque.2"** %2, align 8
  %3 = load %"class.std::deque.2"*, %"class.std::deque.2"** %2, align 8
  ret %"class.std::deque.2"* %3
}

; Function Attrs: noinline uwtable
define linkonce_odr void @_ZNSt5dequeISt10unique_ptrIN4MARC11IThreadTaskESt14default_deleteIS2_EESaIS5_EEC2EOS7_(%"class.std::deque.2"*, %"class.std::deque.2"* dereferenceable(80)) unnamed_addr #0 comdat align 2 {
  %3 = alloca %"class.std::deque.2"*, align 8
  %4 = alloca %"class.std::deque.2"*, align 8
  store %"class.std::deque.2"* %0, %"class.std::deque.2"** %3, align 8
  store %"class.std::deque.2"* %1, %"class.std::deque.2"** %4, align 8
  %5 = load %"class.std::deque.2"*, %"class.std::deque.2"** %3, align 8
  %6 = bitcast %"class.std::deque.2"* %5 to %"class.std::_Deque_base.3"*
  %7 = load %"class.std::deque.2"*, %"class.std::deque.2"** %4, align 8
  %8 = call dereferenceable(80) %"class.std::deque.2"* @_ZSt4moveIRSt5dequeISt10unique_ptrIN4MARC11IThreadTaskESt14default_deleteIS3_EESaIS6_EEEONSt16remove_referenceIT_E4typeEOSB_(%"class.std::deque.2"* dereferenceable(80) %7) #3
  %9 = bitcast %"class.std::deque.2"* %8 to %"class.std::_Deque_base.3"*
  call void @_ZNSt11_Deque_baseISt10unique_ptrIN4MARC11IThreadTaskESt14default_deleteIS2_EESaIS5_EEC2EOS7_(%"class.std::_Deque_base.3"* %6, %"class.std::_Deque_base.3"* dereferenceable(80) %9)
  ret void
}

; Function Attrs: noinline uwtable
define linkonce_odr void @_ZNSt11_Deque_baseISt10unique_ptrIN4MARC11IThreadTaskESt14default_deleteIS2_EESaIS5_EEC2EOS7_(%"class.std::_Deque_base.3"*, %"class.std::_Deque_base.3"* dereferenceable(80)) unnamed_addr #0 comdat align 2 {
  %3 = alloca %"class.std::_Deque_base.3"*, align 8
  %4 = alloca %"class.std::_Deque_base.3"*, align 8
  %5 = alloca %"struct.std::integral_constant", align 1
  store %"class.std::_Deque_base.3"* %0, %"class.std::_Deque_base.3"** %3, align 8
  store %"class.std::_Deque_base.3"* %1, %"class.std::_Deque_base.3"** %4, align 8
  %6 = load %"class.std::_Deque_base.3"*, %"class.std::_Deque_base.3"** %3, align 8
  %7 = load %"class.std::_Deque_base.3"*, %"class.std::_Deque_base.3"** %4, align 8
  %8 = call dereferenceable(80) %"class.std::_Deque_base.3"* @_ZSt4moveIRSt11_Deque_baseISt10unique_ptrIN4MARC11IThreadTaskESt14default_deleteIS3_EESaIS6_EEEONSt16remove_referenceIT_E4typeEOSB_(%"class.std::_Deque_base.3"* dereferenceable(80) %7) #3
  call void @_ZNSt11_Deque_baseISt10unique_ptrIN4MARC11IThreadTaskESt14default_deleteIS2_EESaIS5_EEC2EOS7_St17integral_constantIbLb1EE(%"class.std::_Deque_base.3"* %6, %"class.std::_Deque_base.3"* dereferenceable(80) %8)
  ret void
}

; Function Attrs: noinline nounwind uwtable
define linkonce_odr dereferenceable(80) %"class.std::_Deque_base.3"* @_ZSt4moveIRSt11_Deque_baseISt10unique_ptrIN4MARC11IThreadTaskESt14default_deleteIS3_EESaIS6_EEEONSt16remove_referenceIT_E4typeEOSB_(%"class.std::_Deque_base.3"* dereferenceable(80)) #5 comdat {
  %2 = alloca %"class.std::_Deque_base.3"*, align 8
  store %"class.std::_Deque_base.3"* %0, %"class.std::_Deque_base.3"** %2, align 8
  %3 = load %"class.std::_Deque_base.3"*, %"class.std::_Deque_base.3"** %2, align 8
  ret %"class.std::_Deque_base.3"* %3
}

; Function Attrs: noinline uwtable
define linkonce_odr void @_ZNSt11_Deque_baseISt10unique_ptrIN4MARC11IThreadTaskESt14default_deleteIS2_EESaIS5_EEC2EOS7_St17integral_constantIbLb1EE(%"class.std::_Deque_base.3"*, %"class.std::_Deque_base.3"* dereferenceable(80)) unnamed_addr #0 comdat align 2 personality i8* bitcast (i32 (...)* @__gxx_personality_v0 to i8*) {
  %3 = alloca %"struct.std::integral_constant", align 1
  %4 = alloca %"class.std::_Deque_base.3"*, align 8
  %5 = alloca %"class.std::_Deque_base.3"*, align 8
  %6 = alloca i8*
  %7 = alloca i32
  store %"class.std::_Deque_base.3"* %0, %"class.std::_Deque_base.3"** %4, align 8
  store %"class.std::_Deque_base.3"* %1, %"class.std::_Deque_base.3"** %5, align 8
  %8 = load %"class.std::_Deque_base.3"*, %"class.std::_Deque_base.3"** %4, align 8
  %9 = getelementptr inbounds %"class.std::_Deque_base.3", %"class.std::_Deque_base.3"* %8, i32 0, i32 0
  %10 = load %"class.std::_Deque_base.3"*, %"class.std::_Deque_base.3"** %5, align 8
  %11 = call dereferenceable(1) %"class.std::allocator.4"* @_ZNSt11_Deque_baseISt10unique_ptrIN4MARC11IThreadTaskESt14default_deleteIS2_EESaIS5_EE19_M_get_Tp_allocatorEv(%"class.std::_Deque_base.3"* %10) #3
  %12 = call dereferenceable(1) %"class.std::allocator.4"* @_ZSt4moveIRSaISt10unique_ptrIN4MARC11IThreadTaskESt14default_deleteIS2_EEEEONSt16remove_referenceIT_E4typeEOS9_(%"class.std::allocator.4"* dereferenceable(1) %11) #3
  call void @_ZNSt11_Deque_baseISt10unique_ptrIN4MARC11IThreadTaskESt14default_deleteIS2_EESaIS5_EE11_Deque_implC2EOS6_(%"struct.std::_Deque_base<std::unique_ptr<MARC::IThreadTask, std::default_delete<MARC::IThreadTask> >, std::allocator<std::unique_ptr<MARC::IThreadTask, std::default_delete<MARC::IThreadTask> > > >::_Deque_impl"* %9, %"class.std::allocator.4"* dereferenceable(1) %12) #3
  invoke void @_ZNSt11_Deque_baseISt10unique_ptrIN4MARC11IThreadTaskESt14default_deleteIS2_EESaIS5_EE17_M_initialize_mapEm(%"class.std::_Deque_base.3"* %8, i64 0)
          to label %13 unwind label %23

; <label>:13:                                     ; preds = %2
  %14 = load %"class.std::_Deque_base.3"*, %"class.std::_Deque_base.3"** %5, align 8
  %15 = getelementptr inbounds %"class.std::_Deque_base.3", %"class.std::_Deque_base.3"* %14, i32 0, i32 0
  %16 = getelementptr inbounds %"struct.std::_Deque_base<std::unique_ptr<MARC::IThreadTask, std::default_delete<MARC::IThreadTask> >, std::allocator<std::unique_ptr<MARC::IThreadTask, std::default_delete<MARC::IThreadTask> > > >::_Deque_impl", %"struct.std::_Deque_base<std::unique_ptr<MARC::IThreadTask, std::default_delete<MARC::IThreadTask> >, std::allocator<std::unique_ptr<MARC::IThreadTask, std::default_delete<MARC::IThreadTask> > > >::_Deque_impl"* %15, i32 0, i32 0
  %17 = load %"class.std::unique_ptr"**, %"class.std::unique_ptr"*** %16, align 8
  %18 = icmp ne %"class.std::unique_ptr"** %17, null
  br i1 %18, label %19, label %27

; <label>:19:                                     ; preds = %13
  %20 = getelementptr inbounds %"class.std::_Deque_base.3", %"class.std::_Deque_base.3"* %8, i32 0, i32 0
  %21 = load %"class.std::_Deque_base.3"*, %"class.std::_Deque_base.3"** %5, align 8
  %22 = getelementptr inbounds %"class.std::_Deque_base.3", %"class.std::_Deque_base.3"* %21, i32 0, i32 0
  call void @_ZNSt11_Deque_baseISt10unique_ptrIN4MARC11IThreadTaskESt14default_deleteIS2_EESaIS5_EE11_Deque_impl12_M_swap_dataERS8_(%"struct.std::_Deque_base<std::unique_ptr<MARC::IThreadTask, std::default_delete<MARC::IThreadTask> >, std::allocator<std::unique_ptr<MARC::IThreadTask, std::default_delete<MARC::IThreadTask> > > >::_Deque_impl"* %20, %"struct.std::_Deque_base<std::unique_ptr<MARC::IThreadTask, std::default_delete<MARC::IThreadTask> >, std::allocator<std::unique_ptr<MARC::IThreadTask, std::default_delete<MARC::IThreadTask> > > >::_Deque_impl"* dereferenceable(80) %22) #3
  br label %27

; <label>:23:                                     ; preds = %2
  %24 = landingpad { i8*, i32 }
          cleanup
  %25 = extractvalue { i8*, i32 } %24, 0
  store i8* %25, i8** %6, align 8
  %26 = extractvalue { i8*, i32 } %24, 1
  store i32 %26, i32* %7, align 4
  call void @_ZNSt11_Deque_baseISt10unique_ptrIN4MARC11IThreadTaskESt14default_deleteIS2_EESaIS5_EE11_Deque_implD2Ev(%"struct.std::_Deque_base<std::unique_ptr<MARC::IThreadTask, std::default_delete<MARC::IThreadTask> >, std::allocator<std::unique_ptr<MARC::IThreadTask, std::default_delete<MARC::IThreadTask> > > >::_Deque_impl"* %9) #3
  br label %28

; <label>:27:                                     ; preds = %19, %13
  ret void

; <label>:28:                                     ; preds = %23
  %29 = load i8*, i8** %6, align 8
  %30 = load i32, i32* %7, align 4
  %31 = insertvalue { i8*, i32 } undef, i8* %29, 0
  %32 = insertvalue { i8*, i32 } %31, i32 %30, 1
  resume { i8*, i32 } %32
}

; Function Attrs: noinline nounwind uwtable
define linkonce_odr dereferenceable(1) %"class.std::allocator.4"* @_ZSt4moveIRSaISt10unique_ptrIN4MARC11IThreadTaskESt14default_deleteIS2_EEEEONSt16remove_referenceIT_E4typeEOS9_(%"class.std::allocator.4"* dereferenceable(1)) #5 comdat {
  %2 = alloca %"class.std::allocator.4"*, align 8
  store %"class.std::allocator.4"* %0, %"class.std::allocator.4"** %2, align 8
  %3 = load %"class.std::allocator.4"*, %"class.std::allocator.4"** %2, align 8
  ret %"class.std::allocator.4"* %3
}

; Function Attrs: noinline nounwind uwtable
define linkonce_odr dereferenceable(1) %"class.std::allocator.4"* @_ZNSt11_Deque_baseISt10unique_ptrIN4MARC11IThreadTaskESt14default_deleteIS2_EESaIS5_EE19_M_get_Tp_allocatorEv(%"class.std::_Deque_base.3"*) #5 comdat align 2 {
  %2 = alloca %"class.std::_Deque_base.3"*, align 8
  store %"class.std::_Deque_base.3"* %0, %"class.std::_Deque_base.3"** %2, align 8
  %3 = load %"class.std::_Deque_base.3"*, %"class.std::_Deque_base.3"** %2, align 8
  %4 = getelementptr inbounds %"class.std::_Deque_base.3", %"class.std::_Deque_base.3"* %3, i32 0, i32 0
  %5 = bitcast %"struct.std::_Deque_base<std::unique_ptr<MARC::IThreadTask, std::default_delete<MARC::IThreadTask> >, std::allocator<std::unique_ptr<MARC::IThreadTask, std::default_delete<MARC::IThreadTask> > > >::_Deque_impl"* %4 to %"class.std::allocator.4"*
  ret %"class.std::allocator.4"* %5
}

; Function Attrs: noinline nounwind uwtable
define linkonce_odr void @_ZNSt11_Deque_baseISt10unique_ptrIN4MARC11IThreadTaskESt14default_deleteIS2_EESaIS5_EE11_Deque_implC2EOS6_(%"struct.std::_Deque_base<std::unique_ptr<MARC::IThreadTask, std::default_delete<MARC::IThreadTask> >, std::allocator<std::unique_ptr<MARC::IThreadTask, std::default_delete<MARC::IThreadTask> > > >::_Deque_impl"*, %"class.std::allocator.4"* dereferenceable(1)) unnamed_addr #5 comdat align 2 {
  %3 = alloca %"struct.std::_Deque_base<std::unique_ptr<MARC::IThreadTask, std::default_delete<MARC::IThreadTask> >, std::allocator<std::unique_ptr<MARC::IThreadTask, std::default_delete<MARC::IThreadTask> > > >::_Deque_impl"*, align 8
  %4 = alloca %"class.std::allocator.4"*, align 8
  store %"struct.std::_Deque_base<std::unique_ptr<MARC::IThreadTask, std::default_delete<MARC::IThreadTask> >, std::allocator<std::unique_ptr<MARC::IThreadTask, std::default_delete<MARC::IThreadTask> > > >::_Deque_impl"* %0, %"struct.std::_Deque_base<std::unique_ptr<MARC::IThreadTask, std::default_delete<MARC::IThreadTask> >, std::allocator<std::unique_ptr<MARC::IThreadTask, std::default_delete<MARC::IThreadTask> > > >::_Deque_impl"** %3, align 8
  store %"class.std::allocator.4"* %1, %"class.std::allocator.4"** %4, align 8
  %5 = load %"struct.std::_Deque_base<std::unique_ptr<MARC::IThreadTask, std::default_delete<MARC::IThreadTask> >, std::allocator<std::unique_ptr<MARC::IThreadTask, std::default_delete<MARC::IThreadTask> > > >::_Deque_impl"*, %"struct.std::_Deque_base<std::unique_ptr<MARC::IThreadTask, std::default_delete<MARC::IThreadTask> >, std::allocator<std::unique_ptr<MARC::IThreadTask, std::default_delete<MARC::IThreadTask> > > >::_Deque_impl"** %3, align 8
  %6 = bitcast %"struct.std::_Deque_base<std::unique_ptr<MARC::IThreadTask, std::default_delete<MARC::IThreadTask> >, std::allocator<std::unique_ptr<MARC::IThreadTask, std::default_delete<MARC::IThreadTask> > > >::_Deque_impl"* %5 to %"class.std::allocator.4"*
  %7 = load %"class.std::allocator.4"*, %"class.std::allocator.4"** %4, align 8
  %8 = call dereferenceable(1) %"class.std::allocator.4"* @_ZSt4moveIRSaISt10unique_ptrIN4MARC11IThreadTaskESt14default_deleteIS2_EEEEONSt16remove_referenceIT_E4typeEOS9_(%"class.std::allocator.4"* dereferenceable(1) %7) #3
  call void @_ZNSaISt10unique_ptrIN4MARC11IThreadTaskESt14default_deleteIS1_EEEC2ERKS5_(%"class.std::allocator.4"* %6, %"class.std::allocator.4"* dereferenceable(1) %8) #3
  %9 = getelementptr inbounds %"struct.std::_Deque_base<std::unique_ptr<MARC::IThreadTask, std::default_delete<MARC::IThreadTask> >, std::allocator<std::unique_ptr<MARC::IThreadTask, std::default_delete<MARC::IThreadTask> > > >::_Deque_impl", %"struct.std::_Deque_base<std::unique_ptr<MARC::IThreadTask, std::default_delete<MARC::IThreadTask> >, std::allocator<std::unique_ptr<MARC::IThreadTask, std::default_delete<MARC::IThreadTask> > > >::_Deque_impl"* %5, i32 0, i32 0
  store %"class.std::unique_ptr"** null, %"class.std::unique_ptr"*** %9, align 8
  %10 = getelementptr inbounds %"struct.std::_Deque_base<std::unique_ptr<MARC::IThreadTask, std::default_delete<MARC::IThreadTask> >, std::allocator<std::unique_ptr<MARC::IThreadTask, std::default_delete<MARC::IThreadTask> > > >::_Deque_impl", %"struct.std::_Deque_base<std::unique_ptr<MARC::IThreadTask, std::default_delete<MARC::IThreadTask> >, std::allocator<std::unique_ptr<MARC::IThreadTask, std::default_delete<MARC::IThreadTask> > > >::_Deque_impl"* %5, i32 0, i32 1
  store i64 0, i64* %10, align 8
  %11 = getelementptr inbounds %"struct.std::_Deque_base<std::unique_ptr<MARC::IThreadTask, std::default_delete<MARC::IThreadTask> >, std::allocator<std::unique_ptr<MARC::IThreadTask, std::default_delete<MARC::IThreadTask> > > >::_Deque_impl", %"struct.std::_Deque_base<std::unique_ptr<MARC::IThreadTask, std::default_delete<MARC::IThreadTask> >, std::allocator<std::unique_ptr<MARC::IThreadTask, std::default_delete<MARC::IThreadTask> > > >::_Deque_impl"* %5, i32 0, i32 2
  call void @_ZNSt15_Deque_iteratorISt10unique_ptrIN4MARC11IThreadTaskESt14default_deleteIS2_EERS5_PS5_EC2Ev(%"struct.std::_Deque_iterator.9"* %11) #3
  %12 = getelementptr inbounds %"struct.std::_Deque_base<std::unique_ptr<MARC::IThreadTask, std::default_delete<MARC::IThreadTask> >, std::allocator<std::unique_ptr<MARC::IThreadTask, std::default_delete<MARC::IThreadTask> > > >::_Deque_impl", %"struct.std::_Deque_base<std::unique_ptr<MARC::IThreadTask, std::default_delete<MARC::IThreadTask> >, std::allocator<std::unique_ptr<MARC::IThreadTask, std::default_delete<MARC::IThreadTask> > > >::_Deque_impl"* %5, i32 0, i32 3
  call void @_ZNSt15_Deque_iteratorISt10unique_ptrIN4MARC11IThreadTaskESt14default_deleteIS2_EERS5_PS5_EC2Ev(%"struct.std::_Deque_iterator.9"* %12) #3
  ret void
}

; Function Attrs: noinline nounwind uwtable
define linkonce_odr void @_ZNSt11_Deque_baseISt10unique_ptrIN4MARC11IThreadTaskESt14default_deleteIS2_EESaIS5_EE11_Deque_impl12_M_swap_dataERS8_(%"struct.std::_Deque_base<std::unique_ptr<MARC::IThreadTask, std::default_delete<MARC::IThreadTask> >, std::allocator<std::unique_ptr<MARC::IThreadTask, std::default_delete<MARC::IThreadTask> > > >::_Deque_impl"*, %"struct.std::_Deque_base<std::unique_ptr<MARC::IThreadTask, std::default_delete<MARC::IThreadTask> >, std::allocator<std::unique_ptr<MARC::IThreadTask, std::default_delete<MARC::IThreadTask> > > >::_Deque_impl"* dereferenceable(80)) #5 comdat align 2 {
  %3 = alloca %"struct.std::_Deque_base<std::unique_ptr<MARC::IThreadTask, std::default_delete<MARC::IThreadTask> >, std::allocator<std::unique_ptr<MARC::IThreadTask, std::default_delete<MARC::IThreadTask> > > >::_Deque_impl"*, align 8
  %4 = alloca %"struct.std::_Deque_base<std::unique_ptr<MARC::IThreadTask, std::default_delete<MARC::IThreadTask> >, std::allocator<std::unique_ptr<MARC::IThreadTask, std::default_delete<MARC::IThreadTask> > > >::_Deque_impl"*, align 8
  store %"struct.std::_Deque_base<std::unique_ptr<MARC::IThreadTask, std::default_delete<MARC::IThreadTask> >, std::allocator<std::unique_ptr<MARC::IThreadTask, std::default_delete<MARC::IThreadTask> > > >::_Deque_impl"* %0, %"struct.std::_Deque_base<std::unique_ptr<MARC::IThreadTask, std::default_delete<MARC::IThreadTask> >, std::allocator<std::unique_ptr<MARC::IThreadTask, std::default_delete<MARC::IThreadTask> > > >::_Deque_impl"** %3, align 8
  store %"struct.std::_Deque_base<std::unique_ptr<MARC::IThreadTask, std::default_delete<MARC::IThreadTask> >, std::allocator<std::unique_ptr<MARC::IThreadTask, std::default_delete<MARC::IThreadTask> > > >::_Deque_impl"* %1, %"struct.std::_Deque_base<std::unique_ptr<MARC::IThreadTask, std::default_delete<MARC::IThreadTask> >, std::allocator<std::unique_ptr<MARC::IThreadTask, std::default_delete<MARC::IThreadTask> > > >::_Deque_impl"** %4, align 8
  %5 = load %"struct.std::_Deque_base<std::unique_ptr<MARC::IThreadTask, std::default_delete<MARC::IThreadTask> >, std::allocator<std::unique_ptr<MARC::IThreadTask, std::default_delete<MARC::IThreadTask> > > >::_Deque_impl"*, %"struct.std::_Deque_base<std::unique_ptr<MARC::IThreadTask, std::default_delete<MARC::IThreadTask> >, std::allocator<std::unique_ptr<MARC::IThreadTask, std::default_delete<MARC::IThreadTask> > > >::_Deque_impl"** %3, align 8
  %6 = getelementptr inbounds %"struct.std::_Deque_base<std::unique_ptr<MARC::IThreadTask, std::default_delete<MARC::IThreadTask> >, std::allocator<std::unique_ptr<MARC::IThreadTask, std::default_delete<MARC::IThreadTask> > > >::_Deque_impl", %"struct.std::_Deque_base<std::unique_ptr<MARC::IThreadTask, std::default_delete<MARC::IThreadTask> >, std::allocator<std::unique_ptr<MARC::IThreadTask, std::default_delete<MARC::IThreadTask> > > >::_Deque_impl"* %5, i32 0, i32 2
  %7 = load %"struct.std::_Deque_base<std::unique_ptr<MARC::IThreadTask, std::default_delete<MARC::IThreadTask> >, std::allocator<std::unique_ptr<MARC::IThreadTask, std::default_delete<MARC::IThreadTask> > > >::_Deque_impl"*, %"struct.std::_Deque_base<std::unique_ptr<MARC::IThreadTask, std::default_delete<MARC::IThreadTask> >, std::allocator<std::unique_ptr<MARC::IThreadTask, std::default_delete<MARC::IThreadTask> > > >::_Deque_impl"** %4, align 8
  %8 = getelementptr inbounds %"struct.std::_Deque_base<std::unique_ptr<MARC::IThreadTask, std::default_delete<MARC::IThreadTask> >, std::allocator<std::unique_ptr<MARC::IThreadTask, std::default_delete<MARC::IThreadTask> > > >::_Deque_impl", %"struct.std::_Deque_base<std::unique_ptr<MARC::IThreadTask, std::default_delete<MARC::IThreadTask> >, std::allocator<std::unique_ptr<MARC::IThreadTask, std::default_delete<MARC::IThreadTask> > > >::_Deque_impl"* %7, i32 0, i32 2
  call void @_ZSt4swapISt15_Deque_iteratorISt10unique_ptrIN4MARC11IThreadTaskESt14default_deleteIS3_EERS6_PS6_EENSt9enable_ifIXsr6__and_ISt21is_move_constructibleIT_ESt18is_move_assignableISC_EEE5valueEvE4typeERSC_SI_(%"struct.std::_Deque_iterator.9"* dereferenceable(32) %6, %"struct.std::_Deque_iterator.9"* dereferenceable(32) %8) #3
  %9 = getelementptr inbounds %"struct.std::_Deque_base<std::unique_ptr<MARC::IThreadTask, std::default_delete<MARC::IThreadTask> >, std::allocator<std::unique_ptr<MARC::IThreadTask, std::default_delete<MARC::IThreadTask> > > >::_Deque_impl", %"struct.std::_Deque_base<std::unique_ptr<MARC::IThreadTask, std::default_delete<MARC::IThreadTask> >, std::allocator<std::unique_ptr<MARC::IThreadTask, std::default_delete<MARC::IThreadTask> > > >::_Deque_impl"* %5, i32 0, i32 3
  %10 = load %"struct.std::_Deque_base<std::unique_ptr<MARC::IThreadTask, std::default_delete<MARC::IThreadTask> >, std::allocator<std::unique_ptr<MARC::IThreadTask, std::default_delete<MARC::IThreadTask> > > >::_Deque_impl"*, %"struct.std::_Deque_base<std::unique_ptr<MARC::IThreadTask, std::default_delete<MARC::IThreadTask> >, std::allocator<std::unique_ptr<MARC::IThreadTask, std::default_delete<MARC::IThreadTask> > > >::_Deque_impl"** %4, align 8
  %11 = getelementptr inbounds %"struct.std::_Deque_base<std::unique_ptr<MARC::IThreadTask, std::default_delete<MARC::IThreadTask> >, std::allocator<std::unique_ptr<MARC::IThreadTask, std::default_delete<MARC::IThreadTask> > > >::_Deque_impl", %"struct.std::_Deque_base<std::unique_ptr<MARC::IThreadTask, std::default_delete<MARC::IThreadTask> >, std::allocator<std::unique_ptr<MARC::IThreadTask, std::default_delete<MARC::IThreadTask> > > >::_Deque_impl"* %10, i32 0, i32 3
  call void @_ZSt4swapISt15_Deque_iteratorISt10unique_ptrIN4MARC11IThreadTaskESt14default_deleteIS3_EERS6_PS6_EENSt9enable_ifIXsr6__and_ISt21is_move_constructibleIT_ESt18is_move_assignableISC_EEE5valueEvE4typeERSC_SI_(%"struct.std::_Deque_iterator.9"* dereferenceable(32) %9, %"struct.std::_Deque_iterator.9"* dereferenceable(32) %11) #3
  %12 = getelementptr inbounds %"struct.std::_Deque_base<std::unique_ptr<MARC::IThreadTask, std::default_delete<MARC::IThreadTask> >, std::allocator<std::unique_ptr<MARC::IThreadTask, std::default_delete<MARC::IThreadTask> > > >::_Deque_impl", %"struct.std::_Deque_base<std::unique_ptr<MARC::IThreadTask, std::default_delete<MARC::IThreadTask> >, std::allocator<std::unique_ptr<MARC::IThreadTask, std::default_delete<MARC::IThreadTask> > > >::_Deque_impl"* %5, i32 0, i32 0
  %13 = load %"struct.std::_Deque_base<std::unique_ptr<MARC::IThreadTask, std::default_delete<MARC::IThreadTask> >, std::allocator<std::unique_ptr<MARC::IThreadTask, std::default_delete<MARC::IThreadTask> > > >::_Deque_impl"*, %"struct.std::_Deque_base<std::unique_ptr<MARC::IThreadTask, std::default_delete<MARC::IThreadTask> >, std::allocator<std::unique_ptr<MARC::IThreadTask, std::default_delete<MARC::IThreadTask> > > >::_Deque_impl"** %4, align 8
  %14 = getelementptr inbounds %"struct.std::_Deque_base<std::unique_ptr<MARC::IThreadTask, std::default_delete<MARC::IThreadTask> >, std::allocator<std::unique_ptr<MARC::IThreadTask, std::default_delete<MARC::IThreadTask> > > >::_Deque_impl", %"struct.std::_Deque_base<std::unique_ptr<MARC::IThreadTask, std::default_delete<MARC::IThreadTask> >, std::allocator<std::unique_ptr<MARC::IThreadTask, std::default_delete<MARC::IThreadTask> > > >::_Deque_impl"* %13, i32 0, i32 0
  call void @_ZSt4swapIPPSt10unique_ptrIN4MARC11IThreadTaskESt14default_deleteIS2_EEENSt9enable_ifIXsr6__and_ISt21is_move_constructibleIT_ESt18is_move_assignableISA_EEE5valueEvE4typeERSA_SG_(%"class.std::unique_ptr"*** dereferenceable(8) %12, %"class.std::unique_ptr"*** dereferenceable(8) %14) #3
  %15 = getelementptr inbounds %"struct.std::_Deque_base<std::unique_ptr<MARC::IThreadTask, std::default_delete<MARC::IThreadTask> >, std::allocator<std::unique_ptr<MARC::IThreadTask, std::default_delete<MARC::IThreadTask> > > >::_Deque_impl", %"struct.std::_Deque_base<std::unique_ptr<MARC::IThreadTask, std::default_delete<MARC::IThreadTask> >, std::allocator<std::unique_ptr<MARC::IThreadTask, std::default_delete<MARC::IThreadTask> > > >::_Deque_impl"* %5, i32 0, i32 1
  %16 = load %"struct.std::_Deque_base<std::unique_ptr<MARC::IThreadTask, std::default_delete<MARC::IThreadTask> >, std::allocator<std::unique_ptr<MARC::IThreadTask, std::default_delete<MARC::IThreadTask> > > >::_Deque_impl"*, %"struct.std::_Deque_base<std::unique_ptr<MARC::IThreadTask, std::default_delete<MARC::IThreadTask> >, std::allocator<std::unique_ptr<MARC::IThreadTask, std::default_delete<MARC::IThreadTask> > > >::_Deque_impl"** %4, align 8
  %17 = getelementptr inbounds %"struct.std::_Deque_base<std::unique_ptr<MARC::IThreadTask, std::default_delete<MARC::IThreadTask> >, std::allocator<std::unique_ptr<MARC::IThreadTask, std::default_delete<MARC::IThreadTask> > > >::_Deque_impl", %"struct.std::_Deque_base<std::unique_ptr<MARC::IThreadTask, std::default_delete<MARC::IThreadTask> >, std::allocator<std::unique_ptr<MARC::IThreadTask, std::default_delete<MARC::IThreadTask> > > >::_Deque_impl"* %16, i32 0, i32 1
  call void @_ZSt4swapImENSt9enable_ifIXsr6__and_ISt21is_move_constructibleIT_ESt18is_move_assignableIS2_EEE5valueEvE4typeERS2_S8_(i64* dereferenceable(8) %15, i64* dereferenceable(8) %17) #3
  ret void
}

; Function Attrs: noinline nounwind uwtable
define linkonce_odr void @_ZNSaISt10unique_ptrIN4MARC11IThreadTaskESt14default_deleteIS1_EEEC2ERKS5_(%"class.std::allocator.4"*, %"class.std::allocator.4"* dereferenceable(1)) unnamed_addr #5 comdat align 2 {
  %3 = alloca %"class.std::allocator.4"*, align 8
  %4 = alloca %"class.std::allocator.4"*, align 8
  store %"class.std::allocator.4"* %0, %"class.std::allocator.4"** %3, align 8
  store %"class.std::allocator.4"* %1, %"class.std::allocator.4"** %4, align 8
  %5 = load %"class.std::allocator.4"*, %"class.std::allocator.4"** %3, align 8
  %6 = bitcast %"class.std::allocator.4"* %5 to %"class.__gnu_cxx::new_allocator.5"*
  %7 = load %"class.std::allocator.4"*, %"class.std::allocator.4"** %4, align 8
  %8 = bitcast %"class.std::allocator.4"* %7 to %"class.__gnu_cxx::new_allocator.5"*
  call void @_ZN9__gnu_cxx13new_allocatorISt10unique_ptrIN4MARC11IThreadTaskESt14default_deleteIS3_EEEC2ERKS7_(%"class.__gnu_cxx::new_allocator.5"* %6, %"class.__gnu_cxx::new_allocator.5"* dereferenceable(1) %8) #3
  ret void
}

; Function Attrs: noinline nounwind uwtable
define linkonce_odr void @_ZN9__gnu_cxx13new_allocatorISt10unique_ptrIN4MARC11IThreadTaskESt14default_deleteIS3_EEEC2ERKS7_(%"class.__gnu_cxx::new_allocator.5"*, %"class.__gnu_cxx::new_allocator.5"* dereferenceable(1)) unnamed_addr #5 comdat align 2 {
  %3 = alloca %"class.__gnu_cxx::new_allocator.5"*, align 8
  %4 = alloca %"class.__gnu_cxx::new_allocator.5"*, align 8
  store %"class.__gnu_cxx::new_allocator.5"* %0, %"class.__gnu_cxx::new_allocator.5"** %3, align 8
  store %"class.__gnu_cxx::new_allocator.5"* %1, %"class.__gnu_cxx::new_allocator.5"** %4, align 8
  %5 = load %"class.__gnu_cxx::new_allocator.5"*, %"class.__gnu_cxx::new_allocator.5"** %3, align 8
  ret void
}

; Function Attrs: noinline nounwind uwtable
define linkonce_odr void @_ZSt4swapISt15_Deque_iteratorISt10unique_ptrIN4MARC11IThreadTaskESt14default_deleteIS3_EERS6_PS6_EENSt9enable_ifIXsr6__and_ISt21is_move_constructibleIT_ESt18is_move_assignableISC_EEE5valueEvE4typeERSC_SI_(%"struct.std::_Deque_iterator.9"* dereferenceable(32), %"struct.std::_Deque_iterator.9"* dereferenceable(32)) #5 comdat {
  %3 = alloca %"struct.std::_Deque_iterator.9"*, align 8
  %4 = alloca %"struct.std::_Deque_iterator.9"*, align 8
  %5 = alloca %"struct.std::_Deque_iterator.9", align 8
  store %"struct.std::_Deque_iterator.9"* %0, %"struct.std::_Deque_iterator.9"** %3, align 8
  store %"struct.std::_Deque_iterator.9"* %1, %"struct.std::_Deque_iterator.9"** %4, align 8
  %6 = load %"struct.std::_Deque_iterator.9"*, %"struct.std::_Deque_iterator.9"** %3, align 8
  %7 = call dereferenceable(32) %"struct.std::_Deque_iterator.9"* @_ZSt4moveIRSt15_Deque_iteratorISt10unique_ptrIN4MARC11IThreadTaskESt14default_deleteIS3_EERS6_PS6_EEONSt16remove_referenceIT_E4typeEOSC_(%"struct.std::_Deque_iterator.9"* dereferenceable(32) %6) #3
  call void @_ZNSt15_Deque_iteratorISt10unique_ptrIN4MARC11IThreadTaskESt14default_deleteIS2_EERS5_PS5_EC2ERKS8_(%"struct.std::_Deque_iterator.9"* %5, %"struct.std::_Deque_iterator.9"* dereferenceable(32) %7) #3
  %8 = load %"struct.std::_Deque_iterator.9"*, %"struct.std::_Deque_iterator.9"** %4, align 8
  %9 = call dereferenceable(32) %"struct.std::_Deque_iterator.9"* @_ZSt4moveIRSt15_Deque_iteratorISt10unique_ptrIN4MARC11IThreadTaskESt14default_deleteIS3_EERS6_PS6_EEONSt16remove_referenceIT_E4typeEOSC_(%"struct.std::_Deque_iterator.9"* dereferenceable(32) %8) #3
  %10 = load %"struct.std::_Deque_iterator.9"*, %"struct.std::_Deque_iterator.9"** %3, align 8
  %11 = bitcast %"struct.std::_Deque_iterator.9"* %10 to i8*
  %12 = bitcast %"struct.std::_Deque_iterator.9"* %9 to i8*
  call void @llvm.memcpy.p0i8.p0i8.i64(i8* %11, i8* %12, i64 32, i32 8, i1 false)
  %13 = call dereferenceable(32) %"struct.std::_Deque_iterator.9"* @_ZSt4moveIRSt15_Deque_iteratorISt10unique_ptrIN4MARC11IThreadTaskESt14default_deleteIS3_EERS6_PS6_EEONSt16remove_referenceIT_E4typeEOSC_(%"struct.std::_Deque_iterator.9"* dereferenceable(32) %5) #3
  %14 = load %"struct.std::_Deque_iterator.9"*, %"struct.std::_Deque_iterator.9"** %4, align 8
  %15 = bitcast %"struct.std::_Deque_iterator.9"* %14 to i8*
  %16 = bitcast %"struct.std::_Deque_iterator.9"* %13 to i8*
  call void @llvm.memcpy.p0i8.p0i8.i64(i8* %15, i8* %16, i64 32, i32 8, i1 false)
  ret void
}

; Function Attrs: noinline nounwind uwtable
define linkonce_odr void @_ZSt4swapIPPSt10unique_ptrIN4MARC11IThreadTaskESt14default_deleteIS2_EEENSt9enable_ifIXsr6__and_ISt21is_move_constructibleIT_ESt18is_move_assignableISA_EEE5valueEvE4typeERSA_SG_(%"class.std::unique_ptr"*** dereferenceable(8), %"class.std::unique_ptr"*** dereferenceable(8)) #5 comdat {
  %3 = alloca %"class.std::unique_ptr"***, align 8
  %4 = alloca %"class.std::unique_ptr"***, align 8
  %5 = alloca %"class.std::unique_ptr"**, align 8
  store %"class.std::unique_ptr"*** %0, %"class.std::unique_ptr"**** %3, align 8
  store %"class.std::unique_ptr"*** %1, %"class.std::unique_ptr"**** %4, align 8
  %6 = load %"class.std::unique_ptr"***, %"class.std::unique_ptr"**** %3, align 8
  %7 = call dereferenceable(8) %"class.std::unique_ptr"*** @_ZSt4moveIRPPSt10unique_ptrIN4MARC11IThreadTaskESt14default_deleteIS2_EEEONSt16remove_referenceIT_E4typeEOSA_(%"class.std::unique_ptr"*** dereferenceable(8) %6) #3
  %8 = load %"class.std::unique_ptr"**, %"class.std::unique_ptr"*** %7, align 8
  store %"class.std::unique_ptr"** %8, %"class.std::unique_ptr"*** %5, align 8
  %9 = load %"class.std::unique_ptr"***, %"class.std::unique_ptr"**** %4, align 8
  %10 = call dereferenceable(8) %"class.std::unique_ptr"*** @_ZSt4moveIRPPSt10unique_ptrIN4MARC11IThreadTaskESt14default_deleteIS2_EEEONSt16remove_referenceIT_E4typeEOSA_(%"class.std::unique_ptr"*** dereferenceable(8) %9) #3
  %11 = load %"class.std::unique_ptr"**, %"class.std::unique_ptr"*** %10, align 8
  %12 = load %"class.std::unique_ptr"***, %"class.std::unique_ptr"**** %3, align 8
  store %"class.std::unique_ptr"** %11, %"class.std::unique_ptr"*** %12, align 8
  %13 = call dereferenceable(8) %"class.std::unique_ptr"*** @_ZSt4moveIRPPSt10unique_ptrIN4MARC11IThreadTaskESt14default_deleteIS2_EEEONSt16remove_referenceIT_E4typeEOSA_(%"class.std::unique_ptr"*** dereferenceable(8) %5) #3
  %14 = load %"class.std::unique_ptr"**, %"class.std::unique_ptr"*** %13, align 8
  %15 = load %"class.std::unique_ptr"***, %"class.std::unique_ptr"**** %4, align 8
  store %"class.std::unique_ptr"** %14, %"class.std::unique_ptr"*** %15, align 8
  ret void
}

; Function Attrs: noinline nounwind uwtable
define linkonce_odr void @_ZSt4swapImENSt9enable_ifIXsr6__and_ISt21is_move_constructibleIT_ESt18is_move_assignableIS2_EEE5valueEvE4typeERS2_S8_(i64* dereferenceable(8), i64* dereferenceable(8)) #5 comdat {
  %3 = alloca i64*, align 8
  %4 = alloca i64*, align 8
  %5 = alloca i64, align 8
  store i64* %0, i64** %3, align 8
  store i64* %1, i64** %4, align 8
  %6 = load i64*, i64** %3, align 8
  %7 = call dereferenceable(8) i64* @_ZSt4moveIRmEONSt16remove_referenceIT_E4typeEOS2_(i64* dereferenceable(8) %6) #3
  %8 = load i64, i64* %7, align 8
  store i64 %8, i64* %5, align 8
  %9 = load i64*, i64** %4, align 8
  %10 = call dereferenceable(8) i64* @_ZSt4moveIRmEONSt16remove_referenceIT_E4typeEOS2_(i64* dereferenceable(8) %9) #3
  %11 = load i64, i64* %10, align 8
  %12 = load i64*, i64** %3, align 8
  store i64 %11, i64* %12, align 8
  %13 = call dereferenceable(8) i64* @_ZSt4moveIRmEONSt16remove_referenceIT_E4typeEOS2_(i64* dereferenceable(8) %5) #3
  %14 = load i64, i64* %13, align 8
  %15 = load i64*, i64** %4, align 8
  store i64 %14, i64* %15, align 8
  ret void
}

; Function Attrs: noinline nounwind uwtable
define linkonce_odr dereferenceable(32) %"struct.std::_Deque_iterator.9"* @_ZSt4moveIRSt15_Deque_iteratorISt10unique_ptrIN4MARC11IThreadTaskESt14default_deleteIS3_EERS6_PS6_EEONSt16remove_referenceIT_E4typeEOSC_(%"struct.std::_Deque_iterator.9"* dereferenceable(32)) #5 comdat {
  %2 = alloca %"struct.std::_Deque_iterator.9"*, align 8
  store %"struct.std::_Deque_iterator.9"* %0, %"struct.std::_Deque_iterator.9"** %2, align 8
  %3 = load %"struct.std::_Deque_iterator.9"*, %"struct.std::_Deque_iterator.9"** %2, align 8
  ret %"struct.std::_Deque_iterator.9"* %3
}

; Function Attrs: noinline nounwind uwtable
define linkonce_odr void @_ZNSt15_Deque_iteratorISt10unique_ptrIN4MARC11IThreadTaskESt14default_deleteIS2_EERS5_PS5_EC2ERKS8_(%"struct.std::_Deque_iterator.9"*, %"struct.std::_Deque_iterator.9"* dereferenceable(32)) unnamed_addr #5 comdat align 2 {
  %3 = alloca %"struct.std::_Deque_iterator.9"*, align 8
  %4 = alloca %"struct.std::_Deque_iterator.9"*, align 8
  store %"struct.std::_Deque_iterator.9"* %0, %"struct.std::_Deque_iterator.9"** %3, align 8
  store %"struct.std::_Deque_iterator.9"* %1, %"struct.std::_Deque_iterator.9"** %4, align 8
  %5 = load %"struct.std::_Deque_iterator.9"*, %"struct.std::_Deque_iterator.9"** %3, align 8
  %6 = getelementptr inbounds %"struct.std::_Deque_iterator.9", %"struct.std::_Deque_iterator.9"* %5, i32 0, i32 0
  %7 = load %"struct.std::_Deque_iterator.9"*, %"struct.std::_Deque_iterator.9"** %4, align 8
  %8 = getelementptr inbounds %"struct.std::_Deque_iterator.9", %"struct.std::_Deque_iterator.9"* %7, i32 0, i32 0
  %9 = load %"class.std::unique_ptr"*, %"class.std::unique_ptr"** %8, align 8
  store %"class.std::unique_ptr"* %9, %"class.std::unique_ptr"** %6, align 8
  %10 = getelementptr inbounds %"struct.std::_Deque_iterator.9", %"struct.std::_Deque_iterator.9"* %5, i32 0, i32 1
  %11 = load %"struct.std::_Deque_iterator.9"*, %"struct.std::_Deque_iterator.9"** %4, align 8
  %12 = getelementptr inbounds %"struct.std::_Deque_iterator.9", %"struct.std::_Deque_iterator.9"* %11, i32 0, i32 1
  %13 = load %"class.std::unique_ptr"*, %"class.std::unique_ptr"** %12, align 8
  store %"class.std::unique_ptr"* %13, %"class.std::unique_ptr"** %10, align 8
  %14 = getelementptr inbounds %"struct.std::_Deque_iterator.9", %"struct.std::_Deque_iterator.9"* %5, i32 0, i32 2
  %15 = load %"struct.std::_Deque_iterator.9"*, %"struct.std::_Deque_iterator.9"** %4, align 8
  %16 = getelementptr inbounds %"struct.std::_Deque_iterator.9", %"struct.std::_Deque_iterator.9"* %15, i32 0, i32 2
  %17 = load %"class.std::unique_ptr"*, %"class.std::unique_ptr"** %16, align 8
  store %"class.std::unique_ptr"* %17, %"class.std::unique_ptr"** %14, align 8
  %18 = getelementptr inbounds %"struct.std::_Deque_iterator.9", %"struct.std::_Deque_iterator.9"* %5, i32 0, i32 3
  %19 = load %"struct.std::_Deque_iterator.9"*, %"struct.std::_Deque_iterator.9"** %4, align 8
  %20 = getelementptr inbounds %"struct.std::_Deque_iterator.9", %"struct.std::_Deque_iterator.9"* %19, i32 0, i32 3
  %21 = load %"class.std::unique_ptr"**, %"class.std::unique_ptr"*** %20, align 8
  store %"class.std::unique_ptr"** %21, %"class.std::unique_ptr"*** %18, align 8
  ret void
}

; Function Attrs: argmemonly nounwind
declare void @llvm.memcpy.p0i8.p0i8.i64(i8* nocapture writeonly, i8* nocapture readonly, i64, i32, i1) #6

; Function Attrs: noinline nounwind uwtable
define linkonce_odr dereferenceable(8) %"class.std::unique_ptr"*** @_ZSt4moveIRPPSt10unique_ptrIN4MARC11IThreadTaskESt14default_deleteIS2_EEEONSt16remove_referenceIT_E4typeEOSA_(%"class.std::unique_ptr"*** dereferenceable(8)) #5 comdat {
  %2 = alloca %"class.std::unique_ptr"***, align 8
  store %"class.std::unique_ptr"*** %0, %"class.std::unique_ptr"**** %2, align 8
  %3 = load %"class.std::unique_ptr"***, %"class.std::unique_ptr"**** %2, align 8
  ret %"class.std::unique_ptr"*** %3
}

; Function Attrs: noinline nounwind uwtable
define linkonce_odr dereferenceable(8) i64* @_ZSt4moveIRmEONSt16remove_referenceIT_E4typeEOS2_(i64* dereferenceable(8)) #5 comdat {
  %2 = alloca i64*, align 8
  store i64* %0, i64** %2, align 8
  %3 = load i64*, i64** %2, align 8
  ret i64* %3
}

; Function Attrs: noinline uwtable
define linkonce_odr void @_ZNSt5dequeISt10unique_ptrIN4MARC11IThreadTaskESt14default_deleteIS2_EESaIS5_EE15_M_destroy_dataESt15_Deque_iteratorIS5_RS5_PS5_ESB_RKS6_(%"class.std::deque.2"*, %"struct.std::_Deque_iterator.9"*, %"struct.std::_Deque_iterator.9"*, %"class.std::allocator.4"* dereferenceable(1)) #0 comdat align 2 {
  %5 = alloca %"class.std::deque.2"*, align 8
  %6 = alloca %"class.std::allocator.4"*, align 8
  %7 = alloca %"struct.std::_Deque_iterator.9", align 8
  %8 = alloca %"struct.std::_Deque_iterator.9", align 8
  store %"class.std::deque.2"* %0, %"class.std::deque.2"** %5, align 8
  store %"class.std::allocator.4"* %3, %"class.std::allocator.4"** %6, align 8
  %9 = load %"class.std::deque.2"*, %"class.std::deque.2"** %5, align 8
  call void @_ZNSt15_Deque_iteratorISt10unique_ptrIN4MARC11IThreadTaskESt14default_deleteIS2_EERS5_PS5_EC2ERKS8_(%"struct.std::_Deque_iterator.9"* %7, %"struct.std::_Deque_iterator.9"* dereferenceable(32) %1) #3
  call void @_ZNSt15_Deque_iteratorISt10unique_ptrIN4MARC11IThreadTaskESt14default_deleteIS2_EERS5_PS5_EC2ERKS8_(%"struct.std::_Deque_iterator.9"* %8, %"struct.std::_Deque_iterator.9"* dereferenceable(32) %2) #3
  call void @_ZNSt5dequeISt10unique_ptrIN4MARC11IThreadTaskESt14default_deleteIS2_EESaIS5_EE19_M_destroy_data_auxESt15_Deque_iteratorIS5_RS5_PS5_ESB_(%"class.std::deque.2"* %9, %"struct.std::_Deque_iterator.9"* %7, %"struct.std::_Deque_iterator.9"* %8)
  ret void
}

; Function Attrs: noinline nounwind uwtable
define linkonce_odr void @_ZNSt5dequeISt10unique_ptrIN4MARC11IThreadTaskESt14default_deleteIS2_EESaIS5_EE5beginEv(%"struct.std::_Deque_iterator.9"* noalias sret, %"class.std::deque.2"*) #5 comdat align 2 {
  %3 = alloca %"class.std::deque.2"*, align 8
  store %"class.std::deque.2"* %1, %"class.std::deque.2"** %3, align 8
  %4 = load %"class.std::deque.2"*, %"class.std::deque.2"** %3, align 8
  %5 = bitcast %"class.std::deque.2"* %4 to %"class.std::_Deque_base.3"*
  %6 = getelementptr inbounds %"class.std::_Deque_base.3", %"class.std::_Deque_base.3"* %5, i32 0, i32 0
  %7 = getelementptr inbounds %"struct.std::_Deque_base<std::unique_ptr<MARC::IThreadTask, std::default_delete<MARC::IThreadTask> >, std::allocator<std::unique_ptr<MARC::IThreadTask, std::default_delete<MARC::IThreadTask> > > >::_Deque_impl", %"struct.std::_Deque_base<std::unique_ptr<MARC::IThreadTask, std::default_delete<MARC::IThreadTask> >, std::allocator<std::unique_ptr<MARC::IThreadTask, std::default_delete<MARC::IThreadTask> > > >::_Deque_impl"* %6, i32 0, i32 2
  call void @_ZNSt15_Deque_iteratorISt10unique_ptrIN4MARC11IThreadTaskESt14default_deleteIS2_EERS5_PS5_EC2ERKS8_(%"struct.std::_Deque_iterator.9"* %0, %"struct.std::_Deque_iterator.9"* dereferenceable(32) %7) #3
  ret void
}

; Function Attrs: noinline nounwind uwtable
define linkonce_odr void @_ZNSt5dequeISt10unique_ptrIN4MARC11IThreadTaskESt14default_deleteIS2_EESaIS5_EE3endEv(%"struct.std::_Deque_iterator.9"* noalias sret, %"class.std::deque.2"*) #5 comdat align 2 {
  %3 = alloca %"class.std::deque.2"*, align 8
  store %"class.std::deque.2"* %1, %"class.std::deque.2"** %3, align 8
  %4 = load %"class.std::deque.2"*, %"class.std::deque.2"** %3, align 8
  %5 = bitcast %"class.std::deque.2"* %4 to %"class.std::_Deque_base.3"*
  %6 = getelementptr inbounds %"class.std::_Deque_base.3", %"class.std::_Deque_base.3"* %5, i32 0, i32 0
  %7 = getelementptr inbounds %"struct.std::_Deque_base<std::unique_ptr<MARC::IThreadTask, std::default_delete<MARC::IThreadTask> >, std::allocator<std::unique_ptr<MARC::IThreadTask, std::default_delete<MARC::IThreadTask> > > >::_Deque_impl", %"struct.std::_Deque_base<std::unique_ptr<MARC::IThreadTask, std::default_delete<MARC::IThreadTask> >, std::allocator<std::unique_ptr<MARC::IThreadTask, std::default_delete<MARC::IThreadTask> > > >::_Deque_impl"* %6, i32 0, i32 3
  call void @_ZNSt15_Deque_iteratorISt10unique_ptrIN4MARC11IThreadTaskESt14default_deleteIS2_EERS5_PS5_EC2ERKS8_(%"struct.std::_Deque_iterator.9"* %0, %"struct.std::_Deque_iterator.9"* dereferenceable(32) %7) #3
  ret void
}

; Function Attrs: noinline nounwind uwtable
define linkonce_odr void @_ZNSt11_Deque_baseISt10unique_ptrIN4MARC11IThreadTaskESt14default_deleteIS2_EESaIS5_EED2Ev(%"class.std::_Deque_base.3"*) unnamed_addr #5 comdat align 2 {
  %2 = alloca %"class.std::_Deque_base.3"*, align 8
  store %"class.std::_Deque_base.3"* %0, %"class.std::_Deque_base.3"** %2, align 8
  %3 = load %"class.std::_Deque_base.3"*, %"class.std::_Deque_base.3"** %2, align 8
  %4 = getelementptr inbounds %"class.std::_Deque_base.3", %"class.std::_Deque_base.3"* %3, i32 0, i32 0
  %5 = getelementptr inbounds %"struct.std::_Deque_base<std::unique_ptr<MARC::IThreadTask, std::default_delete<MARC::IThreadTask> >, std::allocator<std::unique_ptr<MARC::IThreadTask, std::default_delete<MARC::IThreadTask> > > >::_Deque_impl", %"struct.std::_Deque_base<std::unique_ptr<MARC::IThreadTask, std::default_delete<MARC::IThreadTask> >, std::allocator<std::unique_ptr<MARC::IThreadTask, std::default_delete<MARC::IThreadTask> > > >::_Deque_impl"* %4, i32 0, i32 0
  %6 = load %"class.std::unique_ptr"**, %"class.std::unique_ptr"*** %5, align 8
  %7 = icmp ne %"class.std::unique_ptr"** %6, null
  br i1 %7, label %8, label %24

; <label>:8:                                      ; preds = %1
  %9 = getelementptr inbounds %"class.std::_Deque_base.3", %"class.std::_Deque_base.3"* %3, i32 0, i32 0
  %10 = getelementptr inbounds %"struct.std::_Deque_base<std::unique_ptr<MARC::IThreadTask, std::default_delete<MARC::IThreadTask> >, std::allocator<std::unique_ptr<MARC::IThreadTask, std::default_delete<MARC::IThreadTask> > > >::_Deque_impl", %"struct.std::_Deque_base<std::unique_ptr<MARC::IThreadTask, std::default_delete<MARC::IThreadTask> >, std::allocator<std::unique_ptr<MARC::IThreadTask, std::default_delete<MARC::IThreadTask> > > >::_Deque_impl"* %9, i32 0, i32 2
  %11 = getelementptr inbounds %"struct.std::_Deque_iterator.9", %"struct.std::_Deque_iterator.9"* %10, i32 0, i32 3
  %12 = load %"class.std::unique_ptr"**, %"class.std::unique_ptr"*** %11, align 8
  %13 = getelementptr inbounds %"class.std::_Deque_base.3", %"class.std::_Deque_base.3"* %3, i32 0, i32 0
  %14 = getelementptr inbounds %"struct.std::_Deque_base<std::unique_ptr<MARC::IThreadTask, std::default_delete<MARC::IThreadTask> >, std::allocator<std::unique_ptr<MARC::IThreadTask, std::default_delete<MARC::IThreadTask> > > >::_Deque_impl", %"struct.std::_Deque_base<std::unique_ptr<MARC::IThreadTask, std::default_delete<MARC::IThreadTask> >, std::allocator<std::unique_ptr<MARC::IThreadTask, std::default_delete<MARC::IThreadTask> > > >::_Deque_impl"* %13, i32 0, i32 3
  %15 = getelementptr inbounds %"struct.std::_Deque_iterator.9", %"struct.std::_Deque_iterator.9"* %14, i32 0, i32 3
  %16 = load %"class.std::unique_ptr"**, %"class.std::unique_ptr"*** %15, align 8
  %17 = getelementptr inbounds %"class.std::unique_ptr"*, %"class.std::unique_ptr"** %16, i64 1
  call void @_ZNSt11_Deque_baseISt10unique_ptrIN4MARC11IThreadTaskESt14default_deleteIS2_EESaIS5_EE16_M_destroy_nodesEPPS5_S9_(%"class.std::_Deque_base.3"* %3, %"class.std::unique_ptr"** %12, %"class.std::unique_ptr"** %17) #3
  %18 = getelementptr inbounds %"class.std::_Deque_base.3", %"class.std::_Deque_base.3"* %3, i32 0, i32 0
  %19 = getelementptr inbounds %"struct.std::_Deque_base<std::unique_ptr<MARC::IThreadTask, std::default_delete<MARC::IThreadTask> >, std::allocator<std::unique_ptr<MARC::IThreadTask, std::default_delete<MARC::IThreadTask> > > >::_Deque_impl", %"struct.std::_Deque_base<std::unique_ptr<MARC::IThreadTask, std::default_delete<MARC::IThreadTask> >, std::allocator<std::unique_ptr<MARC::IThreadTask, std::default_delete<MARC::IThreadTask> > > >::_Deque_impl"* %18, i32 0, i32 0
  %20 = load %"class.std::unique_ptr"**, %"class.std::unique_ptr"*** %19, align 8
  %21 = getelementptr inbounds %"class.std::_Deque_base.3", %"class.std::_Deque_base.3"* %3, i32 0, i32 0
  %22 = getelementptr inbounds %"struct.std::_Deque_base<std::unique_ptr<MARC::IThreadTask, std::default_delete<MARC::IThreadTask> >, std::allocator<std::unique_ptr<MARC::IThreadTask, std::default_delete<MARC::IThreadTask> > > >::_Deque_impl", %"struct.std::_Deque_base<std::unique_ptr<MARC::IThreadTask, std::default_delete<MARC::IThreadTask> >, std::allocator<std::unique_ptr<MARC::IThreadTask, std::default_delete<MARC::IThreadTask> > > >::_Deque_impl"* %21, i32 0, i32 1
  %23 = load i64, i64* %22, align 8
  call void @_ZNSt11_Deque_baseISt10unique_ptrIN4MARC11IThreadTaskESt14default_deleteIS2_EESaIS5_EE17_M_deallocate_mapEPPS5_m(%"class.std::_Deque_base.3"* %3, %"class.std::unique_ptr"** %20, i64 %23) #3
  br label %24

; <label>:24:                                     ; preds = %8, %1
  %25 = getelementptr inbounds %"class.std::_Deque_base.3", %"class.std::_Deque_base.3"* %3, i32 0, i32 0
  call void @_ZNSt11_Deque_baseISt10unique_ptrIN4MARC11IThreadTaskESt14default_deleteIS2_EESaIS5_EE11_Deque_implD2Ev(%"struct.std::_Deque_base<std::unique_ptr<MARC::IThreadTask, std::default_delete<MARC::IThreadTask> >, std::allocator<std::unique_ptr<MARC::IThreadTask, std::default_delete<MARC::IThreadTask> > > >::_Deque_impl"* %25) #3
  ret void
}

; Function Attrs: noinline uwtable
define linkonce_odr void @_ZNSt5dequeISt10unique_ptrIN4MARC11IThreadTaskESt14default_deleteIS2_EESaIS5_EE19_M_destroy_data_auxESt15_Deque_iteratorIS5_RS5_PS5_ESB_(%"class.std::deque.2"*, %"struct.std::_Deque_iterator.9"*, %"struct.std::_Deque_iterator.9"*) #0 comdat align 2 {
  %4 = alloca %"class.std::deque.2"*, align 8
  %5 = alloca %"class.std::unique_ptr"**, align 8
  store %"class.std::deque.2"* %0, %"class.std::deque.2"** %4, align 8
  %6 = load %"class.std::deque.2"*, %"class.std::deque.2"** %4, align 8
  %7 = getelementptr inbounds %"struct.std::_Deque_iterator.9", %"struct.std::_Deque_iterator.9"* %1, i32 0, i32 3
  %8 = load %"class.std::unique_ptr"**, %"class.std::unique_ptr"*** %7, align 8
  %9 = getelementptr inbounds %"class.std::unique_ptr"*, %"class.std::unique_ptr"** %8, i64 1
  store %"class.std::unique_ptr"** %9, %"class.std::unique_ptr"*** %5, align 8
  br label %10

; <label>:10:                                     ; preds = %24, %3
  %11 = load %"class.std::unique_ptr"**, %"class.std::unique_ptr"*** %5, align 8
  %12 = getelementptr inbounds %"struct.std::_Deque_iterator.9", %"struct.std::_Deque_iterator.9"* %2, i32 0, i32 3
  %13 = load %"class.std::unique_ptr"**, %"class.std::unique_ptr"*** %12, align 8
  %14 = icmp ult %"class.std::unique_ptr"** %11, %13
  br i1 %14, label %15, label %27

; <label>:15:                                     ; preds = %10
  %16 = load %"class.std::unique_ptr"**, %"class.std::unique_ptr"*** %5, align 8
  %17 = load %"class.std::unique_ptr"*, %"class.std::unique_ptr"** %16, align 8
  %18 = load %"class.std::unique_ptr"**, %"class.std::unique_ptr"*** %5, align 8
  %19 = load %"class.std::unique_ptr"*, %"class.std::unique_ptr"** %18, align 8
  %20 = call i64 @_ZNSt5dequeISt10unique_ptrIN4MARC11IThreadTaskESt14default_deleteIS2_EESaIS5_EE14_S_buffer_sizeEv() #3
  %21 = getelementptr inbounds %"class.std::unique_ptr", %"class.std::unique_ptr"* %19, i64 %20
  %22 = bitcast %"class.std::deque.2"* %6 to %"class.std::_Deque_base.3"*
  %23 = call dereferenceable(1) %"class.std::allocator.4"* @_ZNSt11_Deque_baseISt10unique_ptrIN4MARC11IThreadTaskESt14default_deleteIS2_EESaIS5_EE19_M_get_Tp_allocatorEv(%"class.std::_Deque_base.3"* %22) #3
  call void @_ZSt8_DestroyIPSt10unique_ptrIN4MARC11IThreadTaskESt14default_deleteIS2_EES5_EvT_S7_RSaIT0_E(%"class.std::unique_ptr"* %17, %"class.std::unique_ptr"* %21, %"class.std::allocator.4"* dereferenceable(1) %23)
  br label %24

; <label>:24:                                     ; preds = %15
  %25 = load %"class.std::unique_ptr"**, %"class.std::unique_ptr"*** %5, align 8
  %26 = getelementptr inbounds %"class.std::unique_ptr"*, %"class.std::unique_ptr"** %25, i32 1
  store %"class.std::unique_ptr"** %26, %"class.std::unique_ptr"*** %5, align 8
  br label %10

; <label>:27:                                     ; preds = %10
  %28 = getelementptr inbounds %"struct.std::_Deque_iterator.9", %"struct.std::_Deque_iterator.9"* %1, i32 0, i32 3
  %29 = load %"class.std::unique_ptr"**, %"class.std::unique_ptr"*** %28, align 8
  %30 = getelementptr inbounds %"struct.std::_Deque_iterator.9", %"struct.std::_Deque_iterator.9"* %2, i32 0, i32 3
  %31 = load %"class.std::unique_ptr"**, %"class.std::unique_ptr"*** %30, align 8
  %32 = icmp ne %"class.std::unique_ptr"** %29, %31
  br i1 %32, label %33, label %46

; <label>:33:                                     ; preds = %27
  %34 = getelementptr inbounds %"struct.std::_Deque_iterator.9", %"struct.std::_Deque_iterator.9"* %1, i32 0, i32 0
  %35 = load %"class.std::unique_ptr"*, %"class.std::unique_ptr"** %34, align 8
  %36 = getelementptr inbounds %"struct.std::_Deque_iterator.9", %"struct.std::_Deque_iterator.9"* %1, i32 0, i32 2
  %37 = load %"class.std::unique_ptr"*, %"class.std::unique_ptr"** %36, align 8
  %38 = bitcast %"class.std::deque.2"* %6 to %"class.std::_Deque_base.3"*
  %39 = call dereferenceable(1) %"class.std::allocator.4"* @_ZNSt11_Deque_baseISt10unique_ptrIN4MARC11IThreadTaskESt14default_deleteIS2_EESaIS5_EE19_M_get_Tp_allocatorEv(%"class.std::_Deque_base.3"* %38) #3
  call void @_ZSt8_DestroyIPSt10unique_ptrIN4MARC11IThreadTaskESt14default_deleteIS2_EES5_EvT_S7_RSaIT0_E(%"class.std::unique_ptr"* %35, %"class.std::unique_ptr"* %37, %"class.std::allocator.4"* dereferenceable(1) %39)
  %40 = getelementptr inbounds %"struct.std::_Deque_iterator.9", %"struct.std::_Deque_iterator.9"* %2, i32 0, i32 1
  %41 = load %"class.std::unique_ptr"*, %"class.std::unique_ptr"** %40, align 8
  %42 = getelementptr inbounds %"struct.std::_Deque_iterator.9", %"struct.std::_Deque_iterator.9"* %2, i32 0, i32 0
  %43 = load %"class.std::unique_ptr"*, %"class.std::unique_ptr"** %42, align 8
  %44 = bitcast %"class.std::deque.2"* %6 to %"class.std::_Deque_base.3"*
  %45 = call dereferenceable(1) %"class.std::allocator.4"* @_ZNSt11_Deque_baseISt10unique_ptrIN4MARC11IThreadTaskESt14default_deleteIS2_EESaIS5_EE19_M_get_Tp_allocatorEv(%"class.std::_Deque_base.3"* %44) #3
  call void @_ZSt8_DestroyIPSt10unique_ptrIN4MARC11IThreadTaskESt14default_deleteIS2_EES5_EvT_S7_RSaIT0_E(%"class.std::unique_ptr"* %41, %"class.std::unique_ptr"* %43, %"class.std::allocator.4"* dereferenceable(1) %45)
  br label %53

; <label>:46:                                     ; preds = %27
  %47 = getelementptr inbounds %"struct.std::_Deque_iterator.9", %"struct.std::_Deque_iterator.9"* %1, i32 0, i32 0
  %48 = load %"class.std::unique_ptr"*, %"class.std::unique_ptr"** %47, align 8
  %49 = getelementptr inbounds %"struct.std::_Deque_iterator.9", %"struct.std::_Deque_iterator.9"* %2, i32 0, i32 0
  %50 = load %"class.std::unique_ptr"*, %"class.std::unique_ptr"** %49, align 8
  %51 = bitcast %"class.std::deque.2"* %6 to %"class.std::_Deque_base.3"*
  %52 = call dereferenceable(1) %"class.std::allocator.4"* @_ZNSt11_Deque_baseISt10unique_ptrIN4MARC11IThreadTaskESt14default_deleteIS2_EESaIS5_EE19_M_get_Tp_allocatorEv(%"class.std::_Deque_base.3"* %51) #3
  call void @_ZSt8_DestroyIPSt10unique_ptrIN4MARC11IThreadTaskESt14default_deleteIS2_EES5_EvT_S7_RSaIT0_E(%"class.std::unique_ptr"* %48, %"class.std::unique_ptr"* %50, %"class.std::allocator.4"* dereferenceable(1) %52)
  br label %53

; <label>:53:                                     ; preds = %46, %33
  ret void
}

; Function Attrs: noinline uwtable
define linkonce_odr void @_ZSt8_DestroyIPSt10unique_ptrIN4MARC11IThreadTaskESt14default_deleteIS2_EES5_EvT_S7_RSaIT0_E(%"class.std::unique_ptr"*, %"class.std::unique_ptr"*, %"class.std::allocator.4"* dereferenceable(1)) #0 comdat {
  %4 = alloca %"class.std::unique_ptr"*, align 8
  %5 = alloca %"class.std::unique_ptr"*, align 8
  %6 = alloca %"class.std::allocator.4"*, align 8
  store %"class.std::unique_ptr"* %0, %"class.std::unique_ptr"** %4, align 8
  store %"class.std::unique_ptr"* %1, %"class.std::unique_ptr"** %5, align 8
  store %"class.std::allocator.4"* %2, %"class.std::allocator.4"** %6, align 8
  %7 = load %"class.std::unique_ptr"*, %"class.std::unique_ptr"** %4, align 8
  %8 = load %"class.std::unique_ptr"*, %"class.std::unique_ptr"** %5, align 8
  call void @_ZSt8_DestroyIPSt10unique_ptrIN4MARC11IThreadTaskESt14default_deleteIS2_EEEvT_S7_(%"class.std::unique_ptr"* %7, %"class.std::unique_ptr"* %8)
  ret void
}

; Function Attrs: noinline nounwind uwtable
define linkonce_odr i64 @_ZNSt5dequeISt10unique_ptrIN4MARC11IThreadTaskESt14default_deleteIS2_EESaIS5_EE14_S_buffer_sizeEv() #5 comdat align 2 personality i8* bitcast (i32 (...)* @__gxx_personality_v0 to i8*) {
  %1 = invoke i64 @_ZSt16__deque_buf_sizem(i64 8)
          to label %2 unwind label %3

; <label>:2:                                      ; preds = %0
  ret i64 %1

; <label>:3:                                      ; preds = %0
  %4 = landingpad { i8*, i32 }
          catch i8* null
  %5 = extractvalue { i8*, i32 } %4, 0
  call void @__clang_call_terminate(i8* %5) #11
  unreachable
}

; Function Attrs: noinline uwtable
define linkonce_odr void @_ZSt8_DestroyIPSt10unique_ptrIN4MARC11IThreadTaskESt14default_deleteIS2_EEEvT_S7_(%"class.std::unique_ptr"*, %"class.std::unique_ptr"*) #0 comdat {
  %3 = alloca %"class.std::unique_ptr"*, align 8
  %4 = alloca %"class.std::unique_ptr"*, align 8
  store %"class.std::unique_ptr"* %0, %"class.std::unique_ptr"** %3, align 8
  store %"class.std::unique_ptr"* %1, %"class.std::unique_ptr"** %4, align 8
  %5 = load %"class.std::unique_ptr"*, %"class.std::unique_ptr"** %3, align 8
  %6 = load %"class.std::unique_ptr"*, %"class.std::unique_ptr"** %4, align 8
  call void @_ZNSt12_Destroy_auxILb0EE9__destroyIPSt10unique_ptrIN4MARC11IThreadTaskESt14default_deleteIS4_EEEEvT_S9_(%"class.std::unique_ptr"* %5, %"class.std::unique_ptr"* %6)
  ret void
}

; Function Attrs: noinline uwtable
define linkonce_odr void @_ZNSt12_Destroy_auxILb0EE9__destroyIPSt10unique_ptrIN4MARC11IThreadTaskESt14default_deleteIS4_EEEEvT_S9_(%"class.std::unique_ptr"*, %"class.std::unique_ptr"*) #0 comdat align 2 {
  %3 = alloca %"class.std::unique_ptr"*, align 8
  %4 = alloca %"class.std::unique_ptr"*, align 8
  store %"class.std::unique_ptr"* %0, %"class.std::unique_ptr"** %3, align 8
  store %"class.std::unique_ptr"* %1, %"class.std::unique_ptr"** %4, align 8
  br label %5

; <label>:5:                                      ; preds = %12, %2
  %6 = load %"class.std::unique_ptr"*, %"class.std::unique_ptr"** %3, align 8
  %7 = load %"class.std::unique_ptr"*, %"class.std::unique_ptr"** %4, align 8
  %8 = icmp ne %"class.std::unique_ptr"* %6, %7
  br i1 %8, label %9, label %15

; <label>:9:                                      ; preds = %5
  %10 = load %"class.std::unique_ptr"*, %"class.std::unique_ptr"** %3, align 8
  %11 = call %"class.std::unique_ptr"* @_ZSt11__addressofISt10unique_ptrIN4MARC11IThreadTaskESt14default_deleteIS2_EEEPT_RS6_(%"class.std::unique_ptr"* dereferenceable(8) %10) #3
  call void @_ZSt8_DestroyISt10unique_ptrIN4MARC11IThreadTaskESt14default_deleteIS2_EEEvPT_(%"class.std::unique_ptr"* %11)
  br label %12

; <label>:12:                                     ; preds = %9
  %13 = load %"class.std::unique_ptr"*, %"class.std::unique_ptr"** %3, align 8
  %14 = getelementptr inbounds %"class.std::unique_ptr", %"class.std::unique_ptr"* %13, i32 1
  store %"class.std::unique_ptr"* %14, %"class.std::unique_ptr"** %3, align 8
  br label %5

; <label>:15:                                     ; preds = %5
  ret void
}

; Function Attrs: noinline nounwind uwtable
define linkonce_odr void @_ZSt8_DestroyISt10unique_ptrIN4MARC11IThreadTaskESt14default_deleteIS2_EEEvPT_(%"class.std::unique_ptr"*) #5 comdat {
  %2 = alloca %"class.std::unique_ptr"*, align 8
  store %"class.std::unique_ptr"* %0, %"class.std::unique_ptr"** %2, align 8
  %3 = load %"class.std::unique_ptr"*, %"class.std::unique_ptr"** %2, align 8
  call void @_ZNSt10unique_ptrIN4MARC11IThreadTaskESt14default_deleteIS1_EED2Ev(%"class.std::unique_ptr"* %3) #3
  ret void
}

; Function Attrs: noinline nounwind uwtable
define linkonce_odr %"class.std::unique_ptr"* @_ZSt11__addressofISt10unique_ptrIN4MARC11IThreadTaskESt14default_deleteIS2_EEEPT_RS6_(%"class.std::unique_ptr"* dereferenceable(8)) #5 comdat {
  %2 = alloca %"class.std::unique_ptr"*, align 8
  store %"class.std::unique_ptr"* %0, %"class.std::unique_ptr"** %2, align 8
  %3 = load %"class.std::unique_ptr"*, %"class.std::unique_ptr"** %2, align 8
  %4 = bitcast %"class.std::unique_ptr"* %3 to i8*
  %5 = bitcast i8* %4 to %"class.std::unique_ptr"*
  ret %"class.std::unique_ptr"* %5
}

; Function Attrs: noinline nounwind uwtable
define linkonce_odr void @_ZNSt10unique_ptrIN4MARC11IThreadTaskESt14default_deleteIS1_EED2Ev(%"class.std::unique_ptr"*) unnamed_addr #5 comdat align 2 personality i8* bitcast (i32 (...)* @__gxx_personality_v0 to i8*) {
  %2 = alloca %"class.std::unique_ptr"*, align 8
  %3 = alloca %"class.MARC::IThreadTask"**, align 8
  store %"class.std::unique_ptr"* %0, %"class.std::unique_ptr"** %2, align 8
  %4 = load %"class.std::unique_ptr"*, %"class.std::unique_ptr"** %2, align 8
  %5 = getelementptr inbounds %"class.std::unique_ptr", %"class.std::unique_ptr"* %4, i32 0, i32 0
  %6 = call dereferenceable(8) %"class.MARC::IThreadTask"** @_ZSt3getILm0EJPN4MARC11IThreadTaskESt14default_deleteIS1_EEERNSt13tuple_elementIXT_ESt5tupleIJDpT0_EEE4typeERS9_(%"class.std::tuple"* dereferenceable(8) %5) #3
  store %"class.MARC::IThreadTask"** %6, %"class.MARC::IThreadTask"*** %3, align 8
  %7 = load %"class.MARC::IThreadTask"**, %"class.MARC::IThreadTask"*** %3, align 8
  %8 = load %"class.MARC::IThreadTask"*, %"class.MARC::IThreadTask"** %7, align 8
  %9 = icmp ne %"class.MARC::IThreadTask"* %8, null
  br i1 %9, label %10, label %15

; <label>:10:                                     ; preds = %1
  %11 = call dereferenceable(1) %"struct.std::default_delete"* @_ZNSt10unique_ptrIN4MARC11IThreadTaskESt14default_deleteIS1_EE11get_deleterEv(%"class.std::unique_ptr"* %4) #3
  %12 = load %"class.MARC::IThreadTask"**, %"class.MARC::IThreadTask"*** %3, align 8
  %13 = load %"class.MARC::IThreadTask"*, %"class.MARC::IThreadTask"** %12, align 8
  invoke void @_ZNKSt14default_deleteIN4MARC11IThreadTaskEEclEPS1_(%"struct.std::default_delete"* %11, %"class.MARC::IThreadTask"* %13)
          to label %14 unwind label %17

; <label>:14:                                     ; preds = %10
  br label %15

; <label>:15:                                     ; preds = %14, %1
  %16 = load %"class.MARC::IThreadTask"**, %"class.MARC::IThreadTask"*** %3, align 8
  store %"class.MARC::IThreadTask"* null, %"class.MARC::IThreadTask"** %16, align 8
  ret void

; <label>:17:                                     ; preds = %10
  %18 = landingpad { i8*, i32 }
          catch i8* null
  %19 = extractvalue { i8*, i32 } %18, 0
  call void @__clang_call_terminate(i8* %19) #11
  unreachable
}

; Function Attrs: noinline nounwind uwtable
define linkonce_odr dereferenceable(8) %"class.MARC::IThreadTask"** @_ZSt3getILm0EJPN4MARC11IThreadTaskESt14default_deleteIS1_EEERNSt13tuple_elementIXT_ESt5tupleIJDpT0_EEE4typeERS9_(%"class.std::tuple"* dereferenceable(8)) #5 comdat {
  %2 = alloca %"class.std::tuple"*, align 8
  store %"class.std::tuple"* %0, %"class.std::tuple"** %2, align 8
  %3 = load %"class.std::tuple"*, %"class.std::tuple"** %2, align 8
  %4 = bitcast %"class.std::tuple"* %3 to %"struct.std::_Tuple_impl"*
  %5 = call dereferenceable(8) %"class.MARC::IThreadTask"** @_ZSt12__get_helperILm0EPN4MARC11IThreadTaskEJSt14default_deleteIS1_EEERT0_RSt11_Tuple_implIXT_EJS5_DpT1_EE(%"struct.std::_Tuple_impl"* dereferenceable(8) %4) #3
  ret %"class.MARC::IThreadTask"** %5
}

; Function Attrs: noinline nounwind uwtable
define linkonce_odr dereferenceable(1) %"struct.std::default_delete"* @_ZNSt10unique_ptrIN4MARC11IThreadTaskESt14default_deleteIS1_EE11get_deleterEv(%"class.std::unique_ptr"*) #5 comdat align 2 {
  %2 = alloca %"class.std::unique_ptr"*, align 8
  store %"class.std::unique_ptr"* %0, %"class.std::unique_ptr"** %2, align 8
  %3 = load %"class.std::unique_ptr"*, %"class.std::unique_ptr"** %2, align 8
  %4 = getelementptr inbounds %"class.std::unique_ptr", %"class.std::unique_ptr"* %3, i32 0, i32 0
  %5 = call dereferenceable(1) %"struct.std::default_delete"* @_ZSt3getILm1EJPN4MARC11IThreadTaskESt14default_deleteIS1_EEERNSt13tuple_elementIXT_ESt5tupleIJDpT0_EEE4typeERS9_(%"class.std::tuple"* dereferenceable(8) %4) #3
  ret %"struct.std::default_delete"* %5
}

; Function Attrs: noinline nounwind uwtable
define linkonce_odr void @_ZNKSt14default_deleteIN4MARC11IThreadTaskEEclEPS1_(%"struct.std::default_delete"*, %"class.MARC::IThreadTask"*) #5 comdat align 2 {
  %3 = alloca %"struct.std::default_delete"*, align 8
  %4 = alloca %"class.MARC::IThreadTask"*, align 8
  store %"struct.std::default_delete"* %0, %"struct.std::default_delete"** %3, align 8
  store %"class.MARC::IThreadTask"* %1, %"class.MARC::IThreadTask"** %4, align 8
  %5 = load %"struct.std::default_delete"*, %"struct.std::default_delete"** %3, align 8
  %6 = load %"class.MARC::IThreadTask"*, %"class.MARC::IThreadTask"** %4, align 8
  %7 = icmp eq %"class.MARC::IThreadTask"* %6, null
  br i1 %7, label %13, label %8

; <label>:8:                                      ; preds = %2
  %9 = bitcast %"class.MARC::IThreadTask"* %6 to void (%"class.MARC::IThreadTask"*)***
  %10 = load void (%"class.MARC::IThreadTask"*)**, void (%"class.MARC::IThreadTask"*)*** %9, align 8
  %11 = getelementptr inbounds void (%"class.MARC::IThreadTask"*)*, void (%"class.MARC::IThreadTask"*)** %10, i64 2
  %12 = load void (%"class.MARC::IThreadTask"*)*, void (%"class.MARC::IThreadTask"*)** %11, align 8
  call void %12(%"class.MARC::IThreadTask"* %6) #3
  br label %13

; <label>:13:                                     ; preds = %8, %2
  ret void
}

; Function Attrs: noinline nounwind uwtable
define linkonce_odr dereferenceable(8) %"class.MARC::IThreadTask"** @_ZSt12__get_helperILm0EPN4MARC11IThreadTaskEJSt14default_deleteIS1_EEERT0_RSt11_Tuple_implIXT_EJS5_DpT1_EE(%"struct.std::_Tuple_impl"* dereferenceable(8)) #5 comdat {
  %2 = alloca %"struct.std::_Tuple_impl"*, align 8
  store %"struct.std::_Tuple_impl"* %0, %"struct.std::_Tuple_impl"** %2, align 8
  %3 = load %"struct.std::_Tuple_impl"*, %"struct.std::_Tuple_impl"** %2, align 8
  %4 = call dereferenceable(8) %"class.MARC::IThreadTask"** @_ZNSt11_Tuple_implILm0EJPN4MARC11IThreadTaskESt14default_deleteIS1_EEE7_M_headERS5_(%"struct.std::_Tuple_impl"* dereferenceable(8) %3) #3
  ret %"class.MARC::IThreadTask"** %4
}

; Function Attrs: noinline nounwind uwtable
define linkonce_odr dereferenceable(8) %"class.MARC::IThreadTask"** @_ZNSt11_Tuple_implILm0EJPN4MARC11IThreadTaskESt14default_deleteIS1_EEE7_M_headERS5_(%"struct.std::_Tuple_impl"* dereferenceable(8)) #5 comdat align 2 {
  %2 = alloca %"struct.std::_Tuple_impl"*, align 8
  store %"struct.std::_Tuple_impl"* %0, %"struct.std::_Tuple_impl"** %2, align 8
  %3 = load %"struct.std::_Tuple_impl"*, %"struct.std::_Tuple_impl"** %2, align 8
  %4 = bitcast %"struct.std::_Tuple_impl"* %3 to %"struct.std::_Head_base.8"*
  %5 = call dereferenceable(8) %"class.MARC::IThreadTask"** @_ZNSt10_Head_baseILm0EPN4MARC11IThreadTaskELb0EE7_M_headERS3_(%"struct.std::_Head_base.8"* dereferenceable(8) %4) #3
  ret %"class.MARC::IThreadTask"** %5
}

; Function Attrs: noinline nounwind uwtable
define linkonce_odr dereferenceable(8) %"class.MARC::IThreadTask"** @_ZNSt10_Head_baseILm0EPN4MARC11IThreadTaskELb0EE7_M_headERS3_(%"struct.std::_Head_base.8"* dereferenceable(8)) #5 comdat align 2 {
  %2 = alloca %"struct.std::_Head_base.8"*, align 8
  store %"struct.std::_Head_base.8"* %0, %"struct.std::_Head_base.8"** %2, align 8
  %3 = load %"struct.std::_Head_base.8"*, %"struct.std::_Head_base.8"** %2, align 8
  %4 = getelementptr inbounds %"struct.std::_Head_base.8", %"struct.std::_Head_base.8"* %3, i32 0, i32 0
  ret %"class.MARC::IThreadTask"** %4
}

; Function Attrs: noinline nounwind uwtable
define linkonce_odr dereferenceable(1) %"struct.std::default_delete"* @_ZSt3getILm1EJPN4MARC11IThreadTaskESt14default_deleteIS1_EEERNSt13tuple_elementIXT_ESt5tupleIJDpT0_EEE4typeERS9_(%"class.std::tuple"* dereferenceable(8)) #5 comdat {
  %2 = alloca %"class.std::tuple"*, align 8
  store %"class.std::tuple"* %0, %"class.std::tuple"** %2, align 8
  %3 = load %"class.std::tuple"*, %"class.std::tuple"** %2, align 8
  %4 = bitcast %"class.std::tuple"* %3 to %"struct.std::_Tuple_impl.7"*
  %5 = call dereferenceable(1) %"struct.std::default_delete"* @_ZSt12__get_helperILm1ESt14default_deleteIN4MARC11IThreadTaskEEJEERT0_RSt11_Tuple_implIXT_EJS4_DpT1_EE(%"struct.std::_Tuple_impl.7"* dereferenceable(1) %4) #3
  ret %"struct.std::default_delete"* %5
}

; Function Attrs: noinline nounwind uwtable
define linkonce_odr dereferenceable(1) %"struct.std::default_delete"* @_ZSt12__get_helperILm1ESt14default_deleteIN4MARC11IThreadTaskEEJEERT0_RSt11_Tuple_implIXT_EJS4_DpT1_EE(%"struct.std::_Tuple_impl.7"* dereferenceable(1)) #5 comdat {
  %2 = alloca %"struct.std::_Tuple_impl.7"*, align 8
  store %"struct.std::_Tuple_impl.7"* %0, %"struct.std::_Tuple_impl.7"** %2, align 8
  %3 = load %"struct.std::_Tuple_impl.7"*, %"struct.std::_Tuple_impl.7"** %2, align 8
  %4 = call dereferenceable(1) %"struct.std::default_delete"* @_ZNSt11_Tuple_implILm1EJSt14default_deleteIN4MARC11IThreadTaskEEEE7_M_headERS4_(%"struct.std::_Tuple_impl.7"* dereferenceable(1) %3) #3
  ret %"struct.std::default_delete"* %4
}

; Function Attrs: noinline nounwind uwtable
define linkonce_odr dereferenceable(1) %"struct.std::default_delete"* @_ZNSt11_Tuple_implILm1EJSt14default_deleteIN4MARC11IThreadTaskEEEE7_M_headERS4_(%"struct.std::_Tuple_impl.7"* dereferenceable(1)) #5 comdat align 2 {
  %2 = alloca %"struct.std::_Tuple_impl.7"*, align 8
  store %"struct.std::_Tuple_impl.7"* %0, %"struct.std::_Tuple_impl.7"** %2, align 8
  %3 = load %"struct.std::_Tuple_impl.7"*, %"struct.std::_Tuple_impl.7"** %2, align 8
  %4 = bitcast %"struct.std::_Tuple_impl.7"* %3 to %"struct.std::_Head_base"*
  %5 = call dereferenceable(1) %"struct.std::default_delete"* @_ZNSt10_Head_baseILm1ESt14default_deleteIN4MARC11IThreadTaskEELb1EE7_M_headERS4_(%"struct.std::_Head_base"* dereferenceable(1) %4) #3
  ret %"struct.std::default_delete"* %5
}

; Function Attrs: noinline nounwind uwtable
define linkonce_odr dereferenceable(1) %"struct.std::default_delete"* @_ZNSt10_Head_baseILm1ESt14default_deleteIN4MARC11IThreadTaskEELb1EE7_M_headERS4_(%"struct.std::_Head_base"* dereferenceable(1)) #5 comdat align 2 {
  %2 = alloca %"struct.std::_Head_base"*, align 8
  store %"struct.std::_Head_base"* %0, %"struct.std::_Head_base"** %2, align 8
  %3 = load %"struct.std::_Head_base"*, %"struct.std::_Head_base"** %2, align 8
  %4 = bitcast %"struct.std::_Head_base"* %3 to %"struct.std::default_delete"*
  ret %"struct.std::default_delete"* %4
}

; Function Attrs: noinline uwtable
define linkonce_odr void @_ZNSt12_Vector_baseISt6threadSaIS0_EEC2Ev(%"struct.std::_Vector_base"*) unnamed_addr #0 comdat align 2 {
  %2 = alloca %"struct.std::_Vector_base"*, align 8
  store %"struct.std::_Vector_base"* %0, %"struct.std::_Vector_base"** %2, align 8
  %3 = load %"struct.std::_Vector_base"*, %"struct.std::_Vector_base"** %2, align 8
  %4 = getelementptr inbounds %"struct.std::_Vector_base", %"struct.std::_Vector_base"* %3, i32 0, i32 0
  call void @_ZNSt12_Vector_baseISt6threadSaIS0_EE12_Vector_implC2Ev(%"struct.std::_Vector_base<std::thread, std::allocator<std::thread> >::_Vector_impl"* %4)
  ret void
}

; Function Attrs: noinline nounwind uwtable
define linkonce_odr void @_ZNSt12_Vector_baseISt6threadSaIS0_EE12_Vector_implC2Ev(%"struct.std::_Vector_base<std::thread, std::allocator<std::thread> >::_Vector_impl"*) unnamed_addr #5 comdat align 2 {
  %2 = alloca %"struct.std::_Vector_base<std::thread, std::allocator<std::thread> >::_Vector_impl"*, align 8
  store %"struct.std::_Vector_base<std::thread, std::allocator<std::thread> >::_Vector_impl"* %0, %"struct.std::_Vector_base<std::thread, std::allocator<std::thread> >::_Vector_impl"** %2, align 8
  %3 = load %"struct.std::_Vector_base<std::thread, std::allocator<std::thread> >::_Vector_impl"*, %"struct.std::_Vector_base<std::thread, std::allocator<std::thread> >::_Vector_impl"** %2, align 8
  %4 = bitcast %"struct.std::_Vector_base<std::thread, std::allocator<std::thread> >::_Vector_impl"* %3 to %"class.std::allocator.10"*
  call void @_ZNSaISt6threadEC2Ev(%"class.std::allocator.10"* %4) #3
  %5 = getelementptr inbounds %"struct.std::_Vector_base<std::thread, std::allocator<std::thread> >::_Vector_impl", %"struct.std::_Vector_base<std::thread, std::allocator<std::thread> >::_Vector_impl"* %3, i32 0, i32 0
  store %"class.std::thread"* null, %"class.std::thread"** %5, align 8
  %6 = getelementptr inbounds %"struct.std::_Vector_base<std::thread, std::allocator<std::thread> >::_Vector_impl", %"struct.std::_Vector_base<std::thread, std::allocator<std::thread> >::_Vector_impl"* %3, i32 0, i32 1
  store %"class.std::thread"* null, %"class.std::thread"** %6, align 8
  %7 = getelementptr inbounds %"struct.std::_Vector_base<std::thread, std::allocator<std::thread> >::_Vector_impl", %"struct.std::_Vector_base<std::thread, std::allocator<std::thread> >::_Vector_impl"* %3, i32 0, i32 2
  store %"class.std::thread"* null, %"class.std::thread"** %7, align 8
  ret void
}

; Function Attrs: noinline nounwind uwtable
define linkonce_odr void @_ZNSaISt6threadEC2Ev(%"class.std::allocator.10"*) unnamed_addr #5 comdat align 2 {
  %2 = alloca %"class.std::allocator.10"*, align 8
  store %"class.std::allocator.10"* %0, %"class.std::allocator.10"** %2, align 8
  %3 = load %"class.std::allocator.10"*, %"class.std::allocator.10"** %2, align 8
  %4 = bitcast %"class.std::allocator.10"* %3 to %"class.__gnu_cxx::new_allocator.11"*
  call void @_ZN9__gnu_cxx13new_allocatorISt6threadEC2Ev(%"class.__gnu_cxx::new_allocator.11"* %4) #3
  ret void
}

; Function Attrs: noinline nounwind uwtable
define linkonce_odr void @_ZN9__gnu_cxx13new_allocatorISt6threadEC2Ev(%"class.__gnu_cxx::new_allocator.11"*) unnamed_addr #5 comdat align 2 {
  %2 = alloca %"class.__gnu_cxx::new_allocator.11"*, align 8
  store %"class.__gnu_cxx::new_allocator.11"* %0, %"class.__gnu_cxx::new_allocator.11"** %2, align 8
  %3 = load %"class.__gnu_cxx::new_allocator.11"*, %"class.__gnu_cxx::new_allocator.11"** %2, align 8
  ret void
}

; Function Attrs: noinline uwtable
define linkonce_odr void @_ZNSt5dequeISt8functionIFvvEESaIS2_EEC2Ev(%"class.std::deque.15"*) unnamed_addr #0 comdat align 2 {
  %2 = alloca %"class.std::deque.15"*, align 8
  store %"class.std::deque.15"* %0, %"class.std::deque.15"** %2, align 8
  %3 = load %"class.std::deque.15"*, %"class.std::deque.15"** %2, align 8
  %4 = bitcast %"class.std::deque.15"* %3 to %"class.std::_Deque_base.16"*
  call void @_ZNSt11_Deque_baseISt8functionIFvvEESaIS2_EEC2Ev(%"class.std::_Deque_base.16"* %4)
  ret void
}

; Function Attrs: noinline uwtable
define linkonce_odr void @_ZNSt5queueISt8functionIFvvEESt5dequeIS2_SaIS2_EEEC2EOS5_(%"class.std::queue.14"*, %"class.std::deque.15"* dereferenceable(80)) unnamed_addr #0 comdat align 2 {
  %3 = alloca %"class.std::queue.14"*, align 8
  %4 = alloca %"class.std::deque.15"*, align 8
  store %"class.std::queue.14"* %0, %"class.std::queue.14"** %3, align 8
  store %"class.std::deque.15"* %1, %"class.std::deque.15"** %4, align 8
  %5 = load %"class.std::queue.14"*, %"class.std::queue.14"** %3, align 8
  %6 = getelementptr inbounds %"class.std::queue.14", %"class.std::queue.14"* %5, i32 0, i32 0
  %7 = load %"class.std::deque.15"*, %"class.std::deque.15"** %4, align 8
  %8 = call dereferenceable(80) %"class.std::deque.15"* @_ZSt4moveIRSt5dequeISt8functionIFvvEESaIS3_EEEONSt16remove_referenceIT_E4typeEOS8_(%"class.std::deque.15"* dereferenceable(80) %7) #3
  call void @_ZNSt5dequeISt8functionIFvvEESaIS2_EEC2EOS4_(%"class.std::deque.15"* %6, %"class.std::deque.15"* dereferenceable(80) %8)
  ret void
}

; Function Attrs: noinline nounwind uwtable
define linkonce_odr void @_ZNSt5dequeISt8functionIFvvEESaIS2_EED2Ev(%"class.std::deque.15"*) unnamed_addr #5 comdat align 2 personality i8* bitcast (i32 (...)* @__gxx_personality_v0 to i8*) {
  %2 = alloca %"class.std::deque.15"*, align 8
  %3 = alloca %"struct.std::_Deque_iterator.20", align 8
  %4 = alloca %"struct.std::_Deque_iterator.20", align 8
  %5 = alloca i8*
  %6 = alloca i32
  store %"class.std::deque.15"* %0, %"class.std::deque.15"** %2, align 8
  %7 = load %"class.std::deque.15"*, %"class.std::deque.15"** %2, align 8
  call void @_ZNSt5dequeISt8functionIFvvEESaIS2_EE5beginEv(%"struct.std::_Deque_iterator.20"* sret %3, %"class.std::deque.15"* %7) #3
  call void @_ZNSt5dequeISt8functionIFvvEESaIS2_EE3endEv(%"struct.std::_Deque_iterator.20"* sret %4, %"class.std::deque.15"* %7) #3
  %8 = bitcast %"class.std::deque.15"* %7 to %"class.std::_Deque_base.16"*
  %9 = call dereferenceable(1) %"class.std::allocator.17"* @_ZNSt11_Deque_baseISt8functionIFvvEESaIS2_EE19_M_get_Tp_allocatorEv(%"class.std::_Deque_base.16"* %8) #3
  invoke void @_ZNSt5dequeISt8functionIFvvEESaIS2_EE15_M_destroy_dataESt15_Deque_iteratorIS2_RS2_PS2_ES8_RKS3_(%"class.std::deque.15"* %7, %"struct.std::_Deque_iterator.20"* %3, %"struct.std::_Deque_iterator.20"* %4, %"class.std::allocator.17"* dereferenceable(1) %9)
          to label %10 unwind label %12

; <label>:10:                                     ; preds = %1
  %11 = bitcast %"class.std::deque.15"* %7 to %"class.std::_Deque_base.16"*
  call void @_ZNSt11_Deque_baseISt8functionIFvvEESaIS2_EED2Ev(%"class.std::_Deque_base.16"* %11) #3
  ret void

; <label>:12:                                     ; preds = %1
  %13 = landingpad { i8*, i32 }
          catch i8* null
  %14 = extractvalue { i8*, i32 } %13, 0
  store i8* %14, i8** %5, align 8
  %15 = extractvalue { i8*, i32 } %13, 1
  store i32 %15, i32* %6, align 4
  %16 = bitcast %"class.std::deque.15"* %7 to %"class.std::_Deque_base.16"*
  call void @_ZNSt11_Deque_baseISt8functionIFvvEESaIS2_EED2Ev(%"class.std::_Deque_base.16"* %16) #3
  br label %17

; <label>:17:                                     ; preds = %12
  %18 = load i8*, i8** %5, align 8
  call void @__clang_call_terminate(i8* %18) #11
  unreachable
}

; Function Attrs: noinline uwtable
define linkonce_odr void @_ZNSt11_Deque_baseISt8functionIFvvEESaIS2_EEC2Ev(%"class.std::_Deque_base.16"*) unnamed_addr #0 comdat align 2 personality i8* bitcast (i32 (...)* @__gxx_personality_v0 to i8*) {
  %2 = alloca %"class.std::_Deque_base.16"*, align 8
  %3 = alloca i8*
  %4 = alloca i32
  store %"class.std::_Deque_base.16"* %0, %"class.std::_Deque_base.16"** %2, align 8
  %5 = load %"class.std::_Deque_base.16"*, %"class.std::_Deque_base.16"** %2, align 8
  %6 = getelementptr inbounds %"class.std::_Deque_base.16", %"class.std::_Deque_base.16"* %5, i32 0, i32 0
  call void @_ZNSt11_Deque_baseISt8functionIFvvEESaIS2_EE11_Deque_implC2Ev(%"struct.std::_Deque_base<std::function<void ()>, std::allocator<std::function<void ()> > >::_Deque_impl"* %6)
  invoke void @_ZNSt11_Deque_baseISt8functionIFvvEESaIS2_EE17_M_initialize_mapEm(%"class.std::_Deque_base.16"* %5, i64 0)
          to label %7 unwind label %8

; <label>:7:                                      ; preds = %1
  ret void

; <label>:8:                                      ; preds = %1
  %9 = landingpad { i8*, i32 }
          cleanup
  %10 = extractvalue { i8*, i32 } %9, 0
  store i8* %10, i8** %3, align 8
  %11 = extractvalue { i8*, i32 } %9, 1
  store i32 %11, i32* %4, align 4
  call void @_ZNSt11_Deque_baseISt8functionIFvvEESaIS2_EE11_Deque_implD2Ev(%"struct.std::_Deque_base<std::function<void ()>, std::allocator<std::function<void ()> > >::_Deque_impl"* %6) #3
  br label %12

; <label>:12:                                     ; preds = %8
  %13 = load i8*, i8** %3, align 8
  %14 = load i32, i32* %4, align 4
  %15 = insertvalue { i8*, i32 } undef, i8* %13, 0
  %16 = insertvalue { i8*, i32 } %15, i32 %14, 1
  resume { i8*, i32 } %16
}

; Function Attrs: noinline nounwind uwtable
define linkonce_odr void @_ZNSt11_Deque_baseISt8functionIFvvEESaIS2_EE11_Deque_implC2Ev(%"struct.std::_Deque_base<std::function<void ()>, std::allocator<std::function<void ()> > >::_Deque_impl"*) unnamed_addr #5 comdat align 2 {
  %2 = alloca %"struct.std::_Deque_base<std::function<void ()>, std::allocator<std::function<void ()> > >::_Deque_impl"*, align 8
  store %"struct.std::_Deque_base<std::function<void ()>, std::allocator<std::function<void ()> > >::_Deque_impl"* %0, %"struct.std::_Deque_base<std::function<void ()>, std::allocator<std::function<void ()> > >::_Deque_impl"** %2, align 8
  %3 = load %"struct.std::_Deque_base<std::function<void ()>, std::allocator<std::function<void ()> > >::_Deque_impl"*, %"struct.std::_Deque_base<std::function<void ()>, std::allocator<std::function<void ()> > >::_Deque_impl"** %2, align 8
  %4 = bitcast %"struct.std::_Deque_base<std::function<void ()>, std::allocator<std::function<void ()> > >::_Deque_impl"* %3 to %"class.std::allocator.17"*
  call void @_ZNSaISt8functionIFvvEEEC2Ev(%"class.std::allocator.17"* %4) #3
  %5 = getelementptr inbounds %"struct.std::_Deque_base<std::function<void ()>, std::allocator<std::function<void ()> > >::_Deque_impl", %"struct.std::_Deque_base<std::function<void ()>, std::allocator<std::function<void ()> > >::_Deque_impl"* %3, i32 0, i32 0
  store %"class.std::function"** null, %"class.std::function"*** %5, align 8
  %6 = getelementptr inbounds %"struct.std::_Deque_base<std::function<void ()>, std::allocator<std::function<void ()> > >::_Deque_impl", %"struct.std::_Deque_base<std::function<void ()>, std::allocator<std::function<void ()> > >::_Deque_impl"* %3, i32 0, i32 1
  store i64 0, i64* %6, align 8
  %7 = getelementptr inbounds %"struct.std::_Deque_base<std::function<void ()>, std::allocator<std::function<void ()> > >::_Deque_impl", %"struct.std::_Deque_base<std::function<void ()>, std::allocator<std::function<void ()> > >::_Deque_impl"* %3, i32 0, i32 2
  call void @_ZNSt15_Deque_iteratorISt8functionIFvvEERS2_PS2_EC2Ev(%"struct.std::_Deque_iterator.20"* %7) #3
  %8 = getelementptr inbounds %"struct.std::_Deque_base<std::function<void ()>, std::allocator<std::function<void ()> > >::_Deque_impl", %"struct.std::_Deque_base<std::function<void ()>, std::allocator<std::function<void ()> > >::_Deque_impl"* %3, i32 0, i32 3
  call void @_ZNSt15_Deque_iteratorISt8functionIFvvEERS2_PS2_EC2Ev(%"struct.std::_Deque_iterator.20"* %8) #3
  ret void
}

; Function Attrs: noinline uwtable
define linkonce_odr void @_ZNSt11_Deque_baseISt8functionIFvvEESaIS2_EE17_M_initialize_mapEm(%"class.std::_Deque_base.16"*, i64) #0 comdat align 2 personality i8* bitcast (i32 (...)* @__gxx_personality_v0 to i8*) {
  %3 = alloca %"class.std::_Deque_base.16"*, align 8
  %4 = alloca i64, align 8
  %5 = alloca i64, align 8
  %6 = alloca i64, align 8
  %7 = alloca i64, align 8
  %8 = alloca %"class.std::function"**, align 8
  %9 = alloca %"class.std::function"**, align 8
  %10 = alloca i8*
  %11 = alloca i32
  store %"class.std::_Deque_base.16"* %0, %"class.std::_Deque_base.16"** %3, align 8
  store i64 %1, i64* %4, align 8
  %12 = load %"class.std::_Deque_base.16"*, %"class.std::_Deque_base.16"** %3, align 8
  %13 = load i64, i64* %4, align 8
  %14 = call i64 @_ZSt16__deque_buf_sizem(i64 32)
  %15 = udiv i64 %13, %14
  %16 = add i64 %15, 1
  store i64 %16, i64* %5, align 8
  store i64 8, i64* %6, align 8
  %17 = load i64, i64* %5, align 8
  %18 = add i64 %17, 2
  store i64 %18, i64* %7, align 8
  %19 = call dereferenceable(8) i64* @_ZSt3maxImERKT_S2_S2_(i64* dereferenceable(8) %6, i64* dereferenceable(8) %7)
  %20 = load i64, i64* %19, align 8
  %21 = getelementptr inbounds %"class.std::_Deque_base.16", %"class.std::_Deque_base.16"* %12, i32 0, i32 0
  %22 = getelementptr inbounds %"struct.std::_Deque_base<std::function<void ()>, std::allocator<std::function<void ()> > >::_Deque_impl", %"struct.std::_Deque_base<std::function<void ()>, std::allocator<std::function<void ()> > >::_Deque_impl"* %21, i32 0, i32 1
  store i64 %20, i64* %22, align 8
  %23 = getelementptr inbounds %"class.std::_Deque_base.16", %"class.std::_Deque_base.16"* %12, i32 0, i32 0
  %24 = getelementptr inbounds %"struct.std::_Deque_base<std::function<void ()>, std::allocator<std::function<void ()> > >::_Deque_impl", %"struct.std::_Deque_base<std::function<void ()>, std::allocator<std::function<void ()> > >::_Deque_impl"* %23, i32 0, i32 1
  %25 = load i64, i64* %24, align 8
  %26 = call %"class.std::function"** @_ZNSt11_Deque_baseISt8functionIFvvEESaIS2_EE15_M_allocate_mapEm(%"class.std::_Deque_base.16"* %12, i64 %25)
  %27 = getelementptr inbounds %"class.std::_Deque_base.16", %"class.std::_Deque_base.16"* %12, i32 0, i32 0
  %28 = getelementptr inbounds %"struct.std::_Deque_base<std::function<void ()>, std::allocator<std::function<void ()> > >::_Deque_impl", %"struct.std::_Deque_base<std::function<void ()>, std::allocator<std::function<void ()> > >::_Deque_impl"* %27, i32 0, i32 0
  store %"class.std::function"** %26, %"class.std::function"*** %28, align 8
  %29 = getelementptr inbounds %"class.std::_Deque_base.16", %"class.std::_Deque_base.16"* %12, i32 0, i32 0
  %30 = getelementptr inbounds %"struct.std::_Deque_base<std::function<void ()>, std::allocator<std::function<void ()> > >::_Deque_impl", %"struct.std::_Deque_base<std::function<void ()>, std::allocator<std::function<void ()> > >::_Deque_impl"* %29, i32 0, i32 0
  %31 = load %"class.std::function"**, %"class.std::function"*** %30, align 8
  %32 = getelementptr inbounds %"class.std::_Deque_base.16", %"class.std::_Deque_base.16"* %12, i32 0, i32 0
  %33 = getelementptr inbounds %"struct.std::_Deque_base<std::function<void ()>, std::allocator<std::function<void ()> > >::_Deque_impl", %"struct.std::_Deque_base<std::function<void ()>, std::allocator<std::function<void ()> > >::_Deque_impl"* %32, i32 0, i32 1
  %34 = load i64, i64* %33, align 8
  %35 = load i64, i64* %5, align 8
  %36 = sub i64 %34, %35
  %37 = udiv i64 %36, 2
  %38 = getelementptr inbounds %"class.std::function"*, %"class.std::function"** %31, i64 %37
  store %"class.std::function"** %38, %"class.std::function"*** %8, align 8
  %39 = load %"class.std::function"**, %"class.std::function"*** %8, align 8
  %40 = load i64, i64* %5, align 8
  %41 = getelementptr inbounds %"class.std::function"*, %"class.std::function"** %39, i64 %40
  store %"class.std::function"** %41, %"class.std::function"*** %9, align 8
  %42 = load %"class.std::function"**, %"class.std::function"*** %8, align 8
  %43 = load %"class.std::function"**, %"class.std::function"*** %9, align 8
  invoke void @_ZNSt11_Deque_baseISt8functionIFvvEESaIS2_EE15_M_create_nodesEPPS2_S6_(%"class.std::_Deque_base.16"* %12, %"class.std::function"** %42, %"class.std::function"** %43)
          to label %44 unwind label %45

; <label>:44:                                     ; preds = %2
  br label %67

; <label>:45:                                     ; preds = %2
  %46 = landingpad { i8*, i32 }
          catch i8* null
  %47 = extractvalue { i8*, i32 } %46, 0
  store i8* %47, i8** %10, align 8
  %48 = extractvalue { i8*, i32 } %46, 1
  store i32 %48, i32* %11, align 4
  br label %49

; <label>:49:                                     ; preds = %45
  %50 = load i8*, i8** %10, align 8
  %51 = call i8* @__cxa_begin_catch(i8* %50) #3
  %52 = getelementptr inbounds %"class.std::_Deque_base.16", %"class.std::_Deque_base.16"* %12, i32 0, i32 0
  %53 = getelementptr inbounds %"struct.std::_Deque_base<std::function<void ()>, std::allocator<std::function<void ()> > >::_Deque_impl", %"struct.std::_Deque_base<std::function<void ()>, std::allocator<std::function<void ()> > >::_Deque_impl"* %52, i32 0, i32 0
  %54 = load %"class.std::function"**, %"class.std::function"*** %53, align 8
  %55 = getelementptr inbounds %"class.std::_Deque_base.16", %"class.std::_Deque_base.16"* %12, i32 0, i32 0
  %56 = getelementptr inbounds %"struct.std::_Deque_base<std::function<void ()>, std::allocator<std::function<void ()> > >::_Deque_impl", %"struct.std::_Deque_base<std::function<void ()>, std::allocator<std::function<void ()> > >::_Deque_impl"* %55, i32 0, i32 1
  %57 = load i64, i64* %56, align 8
  call void @_ZNSt11_Deque_baseISt8functionIFvvEESaIS2_EE17_M_deallocate_mapEPPS2_m(%"class.std::_Deque_base.16"* %12, %"class.std::function"** %54, i64 %57) #3
  %58 = getelementptr inbounds %"class.std::_Deque_base.16", %"class.std::_Deque_base.16"* %12, i32 0, i32 0
  %59 = getelementptr inbounds %"struct.std::_Deque_base<std::function<void ()>, std::allocator<std::function<void ()> > >::_Deque_impl", %"struct.std::_Deque_base<std::function<void ()>, std::allocator<std::function<void ()> > >::_Deque_impl"* %58, i32 0, i32 0
  store %"class.std::function"** null, %"class.std::function"*** %59, align 8
  %60 = getelementptr inbounds %"class.std::_Deque_base.16", %"class.std::_Deque_base.16"* %12, i32 0, i32 0
  %61 = getelementptr inbounds %"struct.std::_Deque_base<std::function<void ()>, std::allocator<std::function<void ()> > >::_Deque_impl", %"struct.std::_Deque_base<std::function<void ()>, std::allocator<std::function<void ()> > >::_Deque_impl"* %60, i32 0, i32 1
  store i64 0, i64* %61, align 8
  invoke void @__cxa_rethrow() #15
          to label %101 unwind label %62

; <label>:62:                                     ; preds = %49
  %63 = landingpad { i8*, i32 }
          cleanup
  %64 = extractvalue { i8*, i32 } %63, 0
  store i8* %64, i8** %10, align 8
  %65 = extractvalue { i8*, i32 } %63, 1
  store i32 %65, i32* %11, align 4
  invoke void @__cxa_end_catch()
          to label %66 unwind label %98

; <label>:66:                                     ; preds = %62
  br label %93

; <label>:67:                                     ; preds = %44
  %68 = getelementptr inbounds %"class.std::_Deque_base.16", %"class.std::_Deque_base.16"* %12, i32 0, i32 0
  %69 = getelementptr inbounds %"struct.std::_Deque_base<std::function<void ()>, std::allocator<std::function<void ()> > >::_Deque_impl", %"struct.std::_Deque_base<std::function<void ()>, std::allocator<std::function<void ()> > >::_Deque_impl"* %68, i32 0, i32 2
  %70 = load %"class.std::function"**, %"class.std::function"*** %8, align 8
  call void @_ZNSt15_Deque_iteratorISt8functionIFvvEERS2_PS2_E11_M_set_nodeEPS4_(%"struct.std::_Deque_iterator.20"* %69, %"class.std::function"** %70) #3
  %71 = getelementptr inbounds %"class.std::_Deque_base.16", %"class.std::_Deque_base.16"* %12, i32 0, i32 0
  %72 = getelementptr inbounds %"struct.std::_Deque_base<std::function<void ()>, std::allocator<std::function<void ()> > >::_Deque_impl", %"struct.std::_Deque_base<std::function<void ()>, std::allocator<std::function<void ()> > >::_Deque_impl"* %71, i32 0, i32 3
  %73 = load %"class.std::function"**, %"class.std::function"*** %9, align 8
  %74 = getelementptr inbounds %"class.std::function"*, %"class.std::function"** %73, i64 -1
  call void @_ZNSt15_Deque_iteratorISt8functionIFvvEERS2_PS2_E11_M_set_nodeEPS4_(%"struct.std::_Deque_iterator.20"* %72, %"class.std::function"** %74) #3
  %75 = getelementptr inbounds %"class.std::_Deque_base.16", %"class.std::_Deque_base.16"* %12, i32 0, i32 0
  %76 = getelementptr inbounds %"struct.std::_Deque_base<std::function<void ()>, std::allocator<std::function<void ()> > >::_Deque_impl", %"struct.std::_Deque_base<std::function<void ()>, std::allocator<std::function<void ()> > >::_Deque_impl"* %75, i32 0, i32 2
  %77 = getelementptr inbounds %"struct.std::_Deque_iterator.20", %"struct.std::_Deque_iterator.20"* %76, i32 0, i32 1
  %78 = load %"class.std::function"*, %"class.std::function"** %77, align 8
  %79 = getelementptr inbounds %"class.std::_Deque_base.16", %"class.std::_Deque_base.16"* %12, i32 0, i32 0
  %80 = getelementptr inbounds %"struct.std::_Deque_base<std::function<void ()>, std::allocator<std::function<void ()> > >::_Deque_impl", %"struct.std::_Deque_base<std::function<void ()>, std::allocator<std::function<void ()> > >::_Deque_impl"* %79, i32 0, i32 2
  %81 = getelementptr inbounds %"struct.std::_Deque_iterator.20", %"struct.std::_Deque_iterator.20"* %80, i32 0, i32 0
  store %"class.std::function"* %78, %"class.std::function"** %81, align 8
  %82 = getelementptr inbounds %"class.std::_Deque_base.16", %"class.std::_Deque_base.16"* %12, i32 0, i32 0
  %83 = getelementptr inbounds %"struct.std::_Deque_base<std::function<void ()>, std::allocator<std::function<void ()> > >::_Deque_impl", %"struct.std::_Deque_base<std::function<void ()>, std::allocator<std::function<void ()> > >::_Deque_impl"* %82, i32 0, i32 3
  %84 = getelementptr inbounds %"struct.std::_Deque_iterator.20", %"struct.std::_Deque_iterator.20"* %83, i32 0, i32 1
  %85 = load %"class.std::function"*, %"class.std::function"** %84, align 8
  %86 = load i64, i64* %4, align 8
  %87 = call i64 @_ZSt16__deque_buf_sizem(i64 32)
  %88 = urem i64 %86, %87
  %89 = getelementptr inbounds %"class.std::function", %"class.std::function"* %85, i64 %88
  %90 = getelementptr inbounds %"class.std::_Deque_base.16", %"class.std::_Deque_base.16"* %12, i32 0, i32 0
  %91 = getelementptr inbounds %"struct.std::_Deque_base<std::function<void ()>, std::allocator<std::function<void ()> > >::_Deque_impl", %"struct.std::_Deque_base<std::function<void ()>, std::allocator<std::function<void ()> > >::_Deque_impl"* %90, i32 0, i32 3
  %92 = getelementptr inbounds %"struct.std::_Deque_iterator.20", %"struct.std::_Deque_iterator.20"* %91, i32 0, i32 0
  store %"class.std::function"* %89, %"class.std::function"** %92, align 8
  ret void

; <label>:93:                                     ; preds = %66
  %94 = load i8*, i8** %10, align 8
  %95 = load i32, i32* %11, align 4
  %96 = insertvalue { i8*, i32 } undef, i8* %94, 0
  %97 = insertvalue { i8*, i32 } %96, i32 %95, 1
  resume { i8*, i32 } %97

; <label>:98:                                     ; preds = %62
  %99 = landingpad { i8*, i32 }
          catch i8* null
  %100 = extractvalue { i8*, i32 } %99, 0
  call void @__clang_call_terminate(i8* %100) #11
  unreachable

; <label>:101:                                    ; preds = %49
  unreachable
}

; Function Attrs: noinline nounwind uwtable
define linkonce_odr void @_ZNSt11_Deque_baseISt8functionIFvvEESaIS2_EE11_Deque_implD2Ev(%"struct.std::_Deque_base<std::function<void ()>, std::allocator<std::function<void ()> > >::_Deque_impl"*) unnamed_addr #5 comdat align 2 {
  %2 = alloca %"struct.std::_Deque_base<std::function<void ()>, std::allocator<std::function<void ()> > >::_Deque_impl"*, align 8
  store %"struct.std::_Deque_base<std::function<void ()>, std::allocator<std::function<void ()> > >::_Deque_impl"* %0, %"struct.std::_Deque_base<std::function<void ()>, std::allocator<std::function<void ()> > >::_Deque_impl"** %2, align 8
  %3 = load %"struct.std::_Deque_base<std::function<void ()>, std::allocator<std::function<void ()> > >::_Deque_impl"*, %"struct.std::_Deque_base<std::function<void ()>, std::allocator<std::function<void ()> > >::_Deque_impl"** %2, align 8
  %4 = bitcast %"struct.std::_Deque_base<std::function<void ()>, std::allocator<std::function<void ()> > >::_Deque_impl"* %3 to %"class.std::allocator.17"*
  call void @_ZNSaISt8functionIFvvEEED2Ev(%"class.std::allocator.17"* %4) #3
  ret void
}

; Function Attrs: noinline nounwind uwtable
define linkonce_odr void @_ZNSaISt8functionIFvvEEEC2Ev(%"class.std::allocator.17"*) unnamed_addr #5 comdat align 2 {
  %2 = alloca %"class.std::allocator.17"*, align 8
  store %"class.std::allocator.17"* %0, %"class.std::allocator.17"** %2, align 8
  %3 = load %"class.std::allocator.17"*, %"class.std::allocator.17"** %2, align 8
  %4 = bitcast %"class.std::allocator.17"* %3 to %"class.__gnu_cxx::new_allocator.18"*
  call void @_ZN9__gnu_cxx13new_allocatorISt8functionIFvvEEEC2Ev(%"class.__gnu_cxx::new_allocator.18"* %4) #3
  ret void
}

; Function Attrs: noinline nounwind uwtable
define linkonce_odr void @_ZNSt15_Deque_iteratorISt8functionIFvvEERS2_PS2_EC2Ev(%"struct.std::_Deque_iterator.20"*) unnamed_addr #5 comdat align 2 {
  %2 = alloca %"struct.std::_Deque_iterator.20"*, align 8
  store %"struct.std::_Deque_iterator.20"* %0, %"struct.std::_Deque_iterator.20"** %2, align 8
  %3 = load %"struct.std::_Deque_iterator.20"*, %"struct.std::_Deque_iterator.20"** %2, align 8
  %4 = getelementptr inbounds %"struct.std::_Deque_iterator.20", %"struct.std::_Deque_iterator.20"* %3, i32 0, i32 0
  store %"class.std::function"* null, %"class.std::function"** %4, align 8
  %5 = getelementptr inbounds %"struct.std::_Deque_iterator.20", %"struct.std::_Deque_iterator.20"* %3, i32 0, i32 1
  store %"class.std::function"* null, %"class.std::function"** %5, align 8
  %6 = getelementptr inbounds %"struct.std::_Deque_iterator.20", %"struct.std::_Deque_iterator.20"* %3, i32 0, i32 2
  store %"class.std::function"* null, %"class.std::function"** %6, align 8
  %7 = getelementptr inbounds %"struct.std::_Deque_iterator.20", %"struct.std::_Deque_iterator.20"* %3, i32 0, i32 3
  store %"class.std::function"** null, %"class.std::function"*** %7, align 8
  ret void
}

; Function Attrs: noinline nounwind uwtable
define linkonce_odr void @_ZN9__gnu_cxx13new_allocatorISt8functionIFvvEEEC2Ev(%"class.__gnu_cxx::new_allocator.18"*) unnamed_addr #5 comdat align 2 {
  %2 = alloca %"class.__gnu_cxx::new_allocator.18"*, align 8
  store %"class.__gnu_cxx::new_allocator.18"* %0, %"class.__gnu_cxx::new_allocator.18"** %2, align 8
  %3 = load %"class.__gnu_cxx::new_allocator.18"*, %"class.__gnu_cxx::new_allocator.18"** %2, align 8
  ret void
}

; Function Attrs: noinline uwtable
define linkonce_odr %"class.std::function"** @_ZNSt11_Deque_baseISt8functionIFvvEESaIS2_EE15_M_allocate_mapEm(%"class.std::_Deque_base.16"*, i64) #0 comdat align 2 personality i8* bitcast (i32 (...)* @__gxx_personality_v0 to i8*) {
  %3 = alloca %"class.std::_Deque_base.16"*, align 8
  %4 = alloca i64, align 8
  %5 = alloca %"class.std::allocator.32", align 1
  %6 = alloca i8*
  %7 = alloca i32
  store %"class.std::_Deque_base.16"* %0, %"class.std::_Deque_base.16"** %3, align 8
  store i64 %1, i64* %4, align 8
  %8 = load %"class.std::_Deque_base.16"*, %"class.std::_Deque_base.16"** %3, align 8
  call void @_ZNKSt11_Deque_baseISt8functionIFvvEESaIS2_EE20_M_get_map_allocatorEv(%"class.std::allocator.32"* sret %5, %"class.std::_Deque_base.16"* %8) #3
  %9 = load i64, i64* %4, align 8
  %10 = invoke %"class.std::function"** @_ZNSt16allocator_traitsISaIPSt8functionIFvvEEEE8allocateERS4_m(%"class.std::allocator.32"* dereferenceable(1) %5, i64 %9)
          to label %11 unwind label %12

; <label>:11:                                     ; preds = %2
  call void @_ZNSaIPSt8functionIFvvEEED2Ev(%"class.std::allocator.32"* %5) #3
  ret %"class.std::function"** %10

; <label>:12:                                     ; preds = %2
  %13 = landingpad { i8*, i32 }
          cleanup
  %14 = extractvalue { i8*, i32 } %13, 0
  store i8* %14, i8** %6, align 8
  %15 = extractvalue { i8*, i32 } %13, 1
  store i32 %15, i32* %7, align 4
  call void @_ZNSaIPSt8functionIFvvEEED2Ev(%"class.std::allocator.32"* %5) #3
  br label %16

; <label>:16:                                     ; preds = %12
  %17 = load i8*, i8** %6, align 8
  %18 = load i32, i32* %7, align 4
  %19 = insertvalue { i8*, i32 } undef, i8* %17, 0
  %20 = insertvalue { i8*, i32 } %19, i32 %18, 1
  resume { i8*, i32 } %20
}

; Function Attrs: noinline uwtable
define linkonce_odr void @_ZNSt11_Deque_baseISt8functionIFvvEESaIS2_EE15_M_create_nodesEPPS2_S6_(%"class.std::_Deque_base.16"*, %"class.std::function"**, %"class.std::function"**) #0 comdat align 2 personality i8* bitcast (i32 (...)* @__gxx_personality_v0 to i8*) {
  %4 = alloca %"class.std::_Deque_base.16"*, align 8
  %5 = alloca %"class.std::function"**, align 8
  %6 = alloca %"class.std::function"**, align 8
  %7 = alloca %"class.std::function"**, align 8
  %8 = alloca i8*
  %9 = alloca i32
  store %"class.std::_Deque_base.16"* %0, %"class.std::_Deque_base.16"** %4, align 8
  store %"class.std::function"** %1, %"class.std::function"*** %5, align 8
  store %"class.std::function"** %2, %"class.std::function"*** %6, align 8
  %10 = load %"class.std::_Deque_base.16"*, %"class.std::_Deque_base.16"** %4, align 8
  %11 = load %"class.std::function"**, %"class.std::function"*** %5, align 8
  store %"class.std::function"** %11, %"class.std::function"*** %7, align 8
  br label %12

; <label>:12:                                     ; preds = %20, %3
  %13 = load %"class.std::function"**, %"class.std::function"*** %7, align 8
  %14 = load %"class.std::function"**, %"class.std::function"*** %6, align 8
  %15 = icmp ult %"class.std::function"** %13, %14
  br i1 %15, label %16, label %32

; <label>:16:                                     ; preds = %12
  %17 = invoke %"class.std::function"* @_ZNSt11_Deque_baseISt8functionIFvvEESaIS2_EE16_M_allocate_nodeEv(%"class.std::_Deque_base.16"* %10)
          to label %18 unwind label %23

; <label>:18:                                     ; preds = %16
  %19 = load %"class.std::function"**, %"class.std::function"*** %7, align 8
  store %"class.std::function"* %17, %"class.std::function"** %19, align 8
  br label %20

; <label>:20:                                     ; preds = %18
  %21 = load %"class.std::function"**, %"class.std::function"*** %7, align 8
  %22 = getelementptr inbounds %"class.std::function"*, %"class.std::function"** %21, i32 1
  store %"class.std::function"** %22, %"class.std::function"*** %7, align 8
  br label %12

; <label>:23:                                     ; preds = %16
  %24 = landingpad { i8*, i32 }
          catch i8* null
  %25 = extractvalue { i8*, i32 } %24, 0
  store i8* %25, i8** %8, align 8
  %26 = extractvalue { i8*, i32 } %24, 1
  store i32 %26, i32* %9, align 4
  br label %27

; <label>:27:                                     ; preds = %23
  %28 = load i8*, i8** %8, align 8
  %29 = call i8* @__cxa_begin_catch(i8* %28) #3
  %30 = load %"class.std::function"**, %"class.std::function"*** %5, align 8
  %31 = load %"class.std::function"**, %"class.std::function"*** %7, align 8
  call void @_ZNSt11_Deque_baseISt8functionIFvvEESaIS2_EE16_M_destroy_nodesEPPS2_S6_(%"class.std::_Deque_base.16"* %10, %"class.std::function"** %30, %"class.std::function"** %31) #3
  invoke void @__cxa_rethrow() #15
          to label %47 unwind label %33

; <label>:32:                                     ; preds = %12
  br label %38

; <label>:33:                                     ; preds = %27
  %34 = landingpad { i8*, i32 }
          cleanup
  %35 = extractvalue { i8*, i32 } %34, 0
  store i8* %35, i8** %8, align 8
  %36 = extractvalue { i8*, i32 } %34, 1
  store i32 %36, i32* %9, align 4
  invoke void @__cxa_end_catch()
          to label %37 unwind label %44

; <label>:37:                                     ; preds = %33
  br label %39

; <label>:38:                                     ; preds = %32
  ret void

; <label>:39:                                     ; preds = %37
  %40 = load i8*, i8** %8, align 8
  %41 = load i32, i32* %9, align 4
  %42 = insertvalue { i8*, i32 } undef, i8* %40, 0
  %43 = insertvalue { i8*, i32 } %42, i32 %41, 1
  resume { i8*, i32 } %43

; <label>:44:                                     ; preds = %33
  %45 = landingpad { i8*, i32 }
          catch i8* null
  %46 = extractvalue { i8*, i32 } %45, 0
  call void @__clang_call_terminate(i8* %46) #11
  unreachable

; <label>:47:                                     ; preds = %27
  unreachable
}

; Function Attrs: noinline nounwind uwtable
define linkonce_odr void @_ZNSt11_Deque_baseISt8functionIFvvEESaIS2_EE17_M_deallocate_mapEPPS2_m(%"class.std::_Deque_base.16"*, %"class.std::function"**, i64) #5 comdat align 2 personality i8* bitcast (i32 (...)* @__gxx_personality_v0 to i8*) {
  %4 = alloca %"class.std::_Deque_base.16"*, align 8
  %5 = alloca %"class.std::function"**, align 8
  %6 = alloca i64, align 8
  %7 = alloca %"class.std::allocator.32", align 1
  %8 = alloca i8*
  %9 = alloca i32
  store %"class.std::_Deque_base.16"* %0, %"class.std::_Deque_base.16"** %4, align 8
  store %"class.std::function"** %1, %"class.std::function"*** %5, align 8
  store i64 %2, i64* %6, align 8
  %10 = load %"class.std::_Deque_base.16"*, %"class.std::_Deque_base.16"** %4, align 8
  call void @_ZNKSt11_Deque_baseISt8functionIFvvEESaIS2_EE20_M_get_map_allocatorEv(%"class.std::allocator.32"* sret %7, %"class.std::_Deque_base.16"* %10) #3
  %11 = load %"class.std::function"**, %"class.std::function"*** %5, align 8
  %12 = load i64, i64* %6, align 8
  invoke void @_ZNSt16allocator_traitsISaIPSt8functionIFvvEEEE10deallocateERS4_PS3_m(%"class.std::allocator.32"* dereferenceable(1) %7, %"class.std::function"** %11, i64 %12)
          to label %13 unwind label %14

; <label>:13:                                     ; preds = %3
  call void @_ZNSaIPSt8functionIFvvEEED2Ev(%"class.std::allocator.32"* %7) #3
  ret void

; <label>:14:                                     ; preds = %3
  %15 = landingpad { i8*, i32 }
          catch i8* null
  %16 = extractvalue { i8*, i32 } %15, 0
  store i8* %16, i8** %8, align 8
  %17 = extractvalue { i8*, i32 } %15, 1
  store i32 %17, i32* %9, align 4
  call void @_ZNSaIPSt8functionIFvvEEED2Ev(%"class.std::allocator.32"* %7) #3
  br label %18

; <label>:18:                                     ; preds = %14
  %19 = load i8*, i8** %8, align 8
  call void @__clang_call_terminate(i8* %19) #11
  unreachable
}

; Function Attrs: noinline nounwind uwtable
define linkonce_odr void @_ZNSt15_Deque_iteratorISt8functionIFvvEERS2_PS2_E11_M_set_nodeEPS4_(%"struct.std::_Deque_iterator.20"*, %"class.std::function"**) #5 comdat align 2 {
  %3 = alloca %"struct.std::_Deque_iterator.20"*, align 8
  %4 = alloca %"class.std::function"**, align 8
  store %"struct.std::_Deque_iterator.20"* %0, %"struct.std::_Deque_iterator.20"** %3, align 8
  store %"class.std::function"** %1, %"class.std::function"*** %4, align 8
  %5 = load %"struct.std::_Deque_iterator.20"*, %"struct.std::_Deque_iterator.20"** %3, align 8
  %6 = load %"class.std::function"**, %"class.std::function"*** %4, align 8
  %7 = getelementptr inbounds %"struct.std::_Deque_iterator.20", %"struct.std::_Deque_iterator.20"* %5, i32 0, i32 3
  store %"class.std::function"** %6, %"class.std::function"*** %7, align 8
  %8 = load %"class.std::function"**, %"class.std::function"*** %4, align 8
  %9 = load %"class.std::function"*, %"class.std::function"** %8, align 8
  %10 = getelementptr inbounds %"struct.std::_Deque_iterator.20", %"struct.std::_Deque_iterator.20"* %5, i32 0, i32 1
  store %"class.std::function"* %9, %"class.std::function"** %10, align 8
  %11 = getelementptr inbounds %"struct.std::_Deque_iterator.20", %"struct.std::_Deque_iterator.20"* %5, i32 0, i32 1
  %12 = load %"class.std::function"*, %"class.std::function"** %11, align 8
  %13 = call i64 @_ZNSt15_Deque_iteratorISt8functionIFvvEERS2_PS2_E14_S_buffer_sizeEv() #3
  %14 = getelementptr inbounds %"class.std::function", %"class.std::function"* %12, i64 %13
  %15 = getelementptr inbounds %"struct.std::_Deque_iterator.20", %"struct.std::_Deque_iterator.20"* %5, i32 0, i32 2
  store %"class.std::function"* %14, %"class.std::function"** %15, align 8
  ret void
}

; Function Attrs: noinline nounwind uwtable
define linkonce_odr void @_ZNKSt11_Deque_baseISt8functionIFvvEESaIS2_EE20_M_get_map_allocatorEv(%"class.std::allocator.32"* noalias sret, %"class.std::_Deque_base.16"*) #5 comdat align 2 {
  %3 = alloca %"class.std::_Deque_base.16"*, align 8
  store %"class.std::_Deque_base.16"* %1, %"class.std::_Deque_base.16"** %3, align 8
  %4 = load %"class.std::_Deque_base.16"*, %"class.std::_Deque_base.16"** %3, align 8
  %5 = call dereferenceable(1) %"class.std::allocator.17"* @_ZNKSt11_Deque_baseISt8functionIFvvEESaIS2_EE19_M_get_Tp_allocatorEv(%"class.std::_Deque_base.16"* %4) #3
  call void @_ZNSaIPSt8functionIFvvEEEC2IS1_EERKSaIT_E(%"class.std::allocator.32"* %0, %"class.std::allocator.17"* dereferenceable(1) %5) #3
  ret void
}

; Function Attrs: noinline uwtable
define linkonce_odr %"class.std::function"** @_ZNSt16allocator_traitsISaIPSt8functionIFvvEEEE8allocateERS4_m(%"class.std::allocator.32"* dereferenceable(1), i64) #0 comdat align 2 {
  %3 = alloca %"class.std::allocator.32"*, align 8
  %4 = alloca i64, align 8
  store %"class.std::allocator.32"* %0, %"class.std::allocator.32"** %3, align 8
  store i64 %1, i64* %4, align 8
  %5 = load %"class.std::allocator.32"*, %"class.std::allocator.32"** %3, align 8
  %6 = bitcast %"class.std::allocator.32"* %5 to %"class.__gnu_cxx::new_allocator.33"*
  %7 = load i64, i64* %4, align 8
  %8 = call %"class.std::function"** @_ZN9__gnu_cxx13new_allocatorIPSt8functionIFvvEEE8allocateEmPKv(%"class.__gnu_cxx::new_allocator.33"* %6, i64 %7, i8* null)
  ret %"class.std::function"** %8
}

; Function Attrs: noinline nounwind uwtable
define linkonce_odr void @_ZNSaIPSt8functionIFvvEEED2Ev(%"class.std::allocator.32"*) unnamed_addr #5 comdat align 2 {
  %2 = alloca %"class.std::allocator.32"*, align 8
  store %"class.std::allocator.32"* %0, %"class.std::allocator.32"** %2, align 8
  %3 = load %"class.std::allocator.32"*, %"class.std::allocator.32"** %2, align 8
  %4 = bitcast %"class.std::allocator.32"* %3 to %"class.__gnu_cxx::new_allocator.33"*
  call void @_ZN9__gnu_cxx13new_allocatorIPSt8functionIFvvEEED2Ev(%"class.__gnu_cxx::new_allocator.33"* %4) #3
  ret void
}

; Function Attrs: noinline nounwind uwtable
define linkonce_odr dereferenceable(1) %"class.std::allocator.17"* @_ZNKSt11_Deque_baseISt8functionIFvvEESaIS2_EE19_M_get_Tp_allocatorEv(%"class.std::_Deque_base.16"*) #5 comdat align 2 {
  %2 = alloca %"class.std::_Deque_base.16"*, align 8
  store %"class.std::_Deque_base.16"* %0, %"class.std::_Deque_base.16"** %2, align 8
  %3 = load %"class.std::_Deque_base.16"*, %"class.std::_Deque_base.16"** %2, align 8
  %4 = getelementptr inbounds %"class.std::_Deque_base.16", %"class.std::_Deque_base.16"* %3, i32 0, i32 0
  %5 = bitcast %"struct.std::_Deque_base<std::function<void ()>, std::allocator<std::function<void ()> > >::_Deque_impl"* %4 to %"class.std::allocator.17"*
  ret %"class.std::allocator.17"* %5
}

; Function Attrs: noinline nounwind uwtable
define linkonce_odr void @_ZNSaIPSt8functionIFvvEEEC2IS1_EERKSaIT_E(%"class.std::allocator.32"*, %"class.std::allocator.17"* dereferenceable(1)) unnamed_addr #5 comdat align 2 {
  %3 = alloca %"class.std::allocator.32"*, align 8
  %4 = alloca %"class.std::allocator.17"*, align 8
  store %"class.std::allocator.32"* %0, %"class.std::allocator.32"** %3, align 8
  store %"class.std::allocator.17"* %1, %"class.std::allocator.17"** %4, align 8
  %5 = load %"class.std::allocator.32"*, %"class.std::allocator.32"** %3, align 8
  %6 = bitcast %"class.std::allocator.32"* %5 to %"class.__gnu_cxx::new_allocator.33"*
  call void @_ZN9__gnu_cxx13new_allocatorIPSt8functionIFvvEEEC2Ev(%"class.__gnu_cxx::new_allocator.33"* %6) #3
  ret void
}

; Function Attrs: noinline nounwind uwtable
define linkonce_odr void @_ZN9__gnu_cxx13new_allocatorIPSt8functionIFvvEEEC2Ev(%"class.__gnu_cxx::new_allocator.33"*) unnamed_addr #5 comdat align 2 {
  %2 = alloca %"class.__gnu_cxx::new_allocator.33"*, align 8
  store %"class.__gnu_cxx::new_allocator.33"* %0, %"class.__gnu_cxx::new_allocator.33"** %2, align 8
  %3 = load %"class.__gnu_cxx::new_allocator.33"*, %"class.__gnu_cxx::new_allocator.33"** %2, align 8
  ret void
}

; Function Attrs: noinline uwtable
define linkonce_odr %"class.std::function"** @_ZN9__gnu_cxx13new_allocatorIPSt8functionIFvvEEE8allocateEmPKv(%"class.__gnu_cxx::new_allocator.33"*, i64, i8*) #0 comdat align 2 {
  %4 = alloca %"class.__gnu_cxx::new_allocator.33"*, align 8
  %5 = alloca i64, align 8
  %6 = alloca i8*, align 8
  store %"class.__gnu_cxx::new_allocator.33"* %0, %"class.__gnu_cxx::new_allocator.33"** %4, align 8
  store i64 %1, i64* %5, align 8
  store i8* %2, i8** %6, align 8
  %7 = load %"class.__gnu_cxx::new_allocator.33"*, %"class.__gnu_cxx::new_allocator.33"** %4, align 8
  %8 = load i64, i64* %5, align 8
  %9 = call i64 @_ZNK9__gnu_cxx13new_allocatorIPSt8functionIFvvEEE8max_sizeEv(%"class.__gnu_cxx::new_allocator.33"* %7) #3
  %10 = icmp ugt i64 %8, %9
  br i1 %10, label %11, label %12

; <label>:11:                                     ; preds = %3
  call void @_ZSt17__throw_bad_allocv() #15
  unreachable

; <label>:12:                                     ; preds = %3
  %13 = load i64, i64* %5, align 8
  %14 = mul i64 %13, 8
  %15 = call i8* @_Znwm(i64 %14)
  %16 = bitcast i8* %15 to %"class.std::function"**
  ret %"class.std::function"** %16
}

; Function Attrs: noinline nounwind uwtable
define linkonce_odr i64 @_ZNK9__gnu_cxx13new_allocatorIPSt8functionIFvvEEE8max_sizeEv(%"class.__gnu_cxx::new_allocator.33"*) #5 comdat align 2 {
  %2 = alloca %"class.__gnu_cxx::new_allocator.33"*, align 8
  store %"class.__gnu_cxx::new_allocator.33"* %0, %"class.__gnu_cxx::new_allocator.33"** %2, align 8
  %3 = load %"class.__gnu_cxx::new_allocator.33"*, %"class.__gnu_cxx::new_allocator.33"** %2, align 8
  ret i64 2305843009213693951
}

; Function Attrs: noinline nounwind uwtable
define linkonce_odr void @_ZN9__gnu_cxx13new_allocatorIPSt8functionIFvvEEED2Ev(%"class.__gnu_cxx::new_allocator.33"*) unnamed_addr #5 comdat align 2 {
  %2 = alloca %"class.__gnu_cxx::new_allocator.33"*, align 8
  store %"class.__gnu_cxx::new_allocator.33"* %0, %"class.__gnu_cxx::new_allocator.33"** %2, align 8
  %3 = load %"class.__gnu_cxx::new_allocator.33"*, %"class.__gnu_cxx::new_allocator.33"** %2, align 8
  ret void
}

; Function Attrs: noinline uwtable
define linkonce_odr %"class.std::function"* @_ZNSt11_Deque_baseISt8functionIFvvEESaIS2_EE16_M_allocate_nodeEv(%"class.std::_Deque_base.16"*) #0 comdat align 2 {
  %2 = alloca %"class.std::_Deque_base.16"*, align 8
  store %"class.std::_Deque_base.16"* %0, %"class.std::_Deque_base.16"** %2, align 8
  %3 = load %"class.std::_Deque_base.16"*, %"class.std::_Deque_base.16"** %2, align 8
  %4 = getelementptr inbounds %"class.std::_Deque_base.16", %"class.std::_Deque_base.16"* %3, i32 0, i32 0
  %5 = bitcast %"struct.std::_Deque_base<std::function<void ()>, std::allocator<std::function<void ()> > >::_Deque_impl"* %4 to %"class.std::allocator.17"*
  %6 = call i64 @_ZSt16__deque_buf_sizem(i64 32)
  %7 = call %"class.std::function"* @_ZNSt16allocator_traitsISaISt8functionIFvvEEEE8allocateERS3_m(%"class.std::allocator.17"* dereferenceable(1) %5, i64 %6)
  ret %"class.std::function"* %7
}

; Function Attrs: noinline nounwind uwtable
define linkonce_odr void @_ZNSt11_Deque_baseISt8functionIFvvEESaIS2_EE16_M_destroy_nodesEPPS2_S6_(%"class.std::_Deque_base.16"*, %"class.std::function"**, %"class.std::function"**) #5 comdat align 2 {
  %4 = alloca %"class.std::_Deque_base.16"*, align 8
  %5 = alloca %"class.std::function"**, align 8
  %6 = alloca %"class.std::function"**, align 8
  %7 = alloca %"class.std::function"**, align 8
  store %"class.std::_Deque_base.16"* %0, %"class.std::_Deque_base.16"** %4, align 8
  store %"class.std::function"** %1, %"class.std::function"*** %5, align 8
  store %"class.std::function"** %2, %"class.std::function"*** %6, align 8
  %8 = load %"class.std::_Deque_base.16"*, %"class.std::_Deque_base.16"** %4, align 8
  %9 = load %"class.std::function"**, %"class.std::function"*** %5, align 8
  store %"class.std::function"** %9, %"class.std::function"*** %7, align 8
  br label %10

; <label>:10:                                     ; preds = %17, %3
  %11 = load %"class.std::function"**, %"class.std::function"*** %7, align 8
  %12 = load %"class.std::function"**, %"class.std::function"*** %6, align 8
  %13 = icmp ult %"class.std::function"** %11, %12
  br i1 %13, label %14, label %20

; <label>:14:                                     ; preds = %10
  %15 = load %"class.std::function"**, %"class.std::function"*** %7, align 8
  %16 = load %"class.std::function"*, %"class.std::function"** %15, align 8
  call void @_ZNSt11_Deque_baseISt8functionIFvvEESaIS2_EE18_M_deallocate_nodeEPS2_(%"class.std::_Deque_base.16"* %8, %"class.std::function"* %16) #3
  br label %17

; <label>:17:                                     ; preds = %14
  %18 = load %"class.std::function"**, %"class.std::function"*** %7, align 8
  %19 = getelementptr inbounds %"class.std::function"*, %"class.std::function"** %18, i32 1
  store %"class.std::function"** %19, %"class.std::function"*** %7, align 8
  br label %10

; <label>:20:                                     ; preds = %10
  ret void
}

; Function Attrs: noinline uwtable
define linkonce_odr %"class.std::function"* @_ZNSt16allocator_traitsISaISt8functionIFvvEEEE8allocateERS3_m(%"class.std::allocator.17"* dereferenceable(1), i64) #0 comdat align 2 {
  %3 = alloca %"class.std::allocator.17"*, align 8
  %4 = alloca i64, align 8
  store %"class.std::allocator.17"* %0, %"class.std::allocator.17"** %3, align 8
  store i64 %1, i64* %4, align 8
  %5 = load %"class.std::allocator.17"*, %"class.std::allocator.17"** %3, align 8
  %6 = bitcast %"class.std::allocator.17"* %5 to %"class.__gnu_cxx::new_allocator.18"*
  %7 = load i64, i64* %4, align 8
  %8 = call %"class.std::function"* @_ZN9__gnu_cxx13new_allocatorISt8functionIFvvEEE8allocateEmPKv(%"class.__gnu_cxx::new_allocator.18"* %6, i64 %7, i8* null)
  ret %"class.std::function"* %8
}

; Function Attrs: noinline uwtable
define linkonce_odr %"class.std::function"* @_ZN9__gnu_cxx13new_allocatorISt8functionIFvvEEE8allocateEmPKv(%"class.__gnu_cxx::new_allocator.18"*, i64, i8*) #0 comdat align 2 {
  %4 = alloca %"class.__gnu_cxx::new_allocator.18"*, align 8
  %5 = alloca i64, align 8
  %6 = alloca i8*, align 8
  store %"class.__gnu_cxx::new_allocator.18"* %0, %"class.__gnu_cxx::new_allocator.18"** %4, align 8
  store i64 %1, i64* %5, align 8
  store i8* %2, i8** %6, align 8
  %7 = load %"class.__gnu_cxx::new_allocator.18"*, %"class.__gnu_cxx::new_allocator.18"** %4, align 8
  %8 = load i64, i64* %5, align 8
  %9 = call i64 @_ZNK9__gnu_cxx13new_allocatorISt8functionIFvvEEE8max_sizeEv(%"class.__gnu_cxx::new_allocator.18"* %7) #3
  %10 = icmp ugt i64 %8, %9
  br i1 %10, label %11, label %12

; <label>:11:                                     ; preds = %3
  call void @_ZSt17__throw_bad_allocv() #15
  unreachable

; <label>:12:                                     ; preds = %3
  %13 = load i64, i64* %5, align 8
  %14 = mul i64 %13, 32
  %15 = call i8* @_Znwm(i64 %14)
  %16 = bitcast i8* %15 to %"class.std::function"*
  ret %"class.std::function"* %16
}

; Function Attrs: noinline nounwind uwtable
define linkonce_odr i64 @_ZNK9__gnu_cxx13new_allocatorISt8functionIFvvEEE8max_sizeEv(%"class.__gnu_cxx::new_allocator.18"*) #5 comdat align 2 {
  %2 = alloca %"class.__gnu_cxx::new_allocator.18"*, align 8
  store %"class.__gnu_cxx::new_allocator.18"* %0, %"class.__gnu_cxx::new_allocator.18"** %2, align 8
  %3 = load %"class.__gnu_cxx::new_allocator.18"*, %"class.__gnu_cxx::new_allocator.18"** %2, align 8
  ret i64 576460752303423487
}

; Function Attrs: noinline nounwind uwtable
define linkonce_odr void @_ZNSt11_Deque_baseISt8functionIFvvEESaIS2_EE18_M_deallocate_nodeEPS2_(%"class.std::_Deque_base.16"*, %"class.std::function"*) #5 comdat align 2 personality i8* bitcast (i32 (...)* @__gxx_personality_v0 to i8*) {
  %3 = alloca %"class.std::_Deque_base.16"*, align 8
  %4 = alloca %"class.std::function"*, align 8
  store %"class.std::_Deque_base.16"* %0, %"class.std::_Deque_base.16"** %3, align 8
  store %"class.std::function"* %1, %"class.std::function"** %4, align 8
  %5 = load %"class.std::_Deque_base.16"*, %"class.std::_Deque_base.16"** %3, align 8
  %6 = getelementptr inbounds %"class.std::_Deque_base.16", %"class.std::_Deque_base.16"* %5, i32 0, i32 0
  %7 = bitcast %"struct.std::_Deque_base<std::function<void ()>, std::allocator<std::function<void ()> > >::_Deque_impl"* %6 to %"class.std::allocator.17"*
  %8 = load %"class.std::function"*, %"class.std::function"** %4, align 8
  %9 = invoke i64 @_ZSt16__deque_buf_sizem(i64 32)
          to label %10 unwind label %12

; <label>:10:                                     ; preds = %2
  invoke void @_ZNSt16allocator_traitsISaISt8functionIFvvEEEE10deallocateERS3_PS2_m(%"class.std::allocator.17"* dereferenceable(1) %7, %"class.std::function"* %8, i64 %9)
          to label %11 unwind label %12

; <label>:11:                                     ; preds = %10
  ret void

; <label>:12:                                     ; preds = %10, %2
  %13 = landingpad { i8*, i32 }
          catch i8* null
  %14 = extractvalue { i8*, i32 } %13, 0
  call void @__clang_call_terminate(i8* %14) #11
  unreachable
}

; Function Attrs: noinline uwtable
define linkonce_odr void @_ZNSt16allocator_traitsISaISt8functionIFvvEEEE10deallocateERS3_PS2_m(%"class.std::allocator.17"* dereferenceable(1), %"class.std::function"*, i64) #0 comdat align 2 {
  %4 = alloca %"class.std::allocator.17"*, align 8
  %5 = alloca %"class.std::function"*, align 8
  %6 = alloca i64, align 8
  store %"class.std::allocator.17"* %0, %"class.std::allocator.17"** %4, align 8
  store %"class.std::function"* %1, %"class.std::function"** %5, align 8
  store i64 %2, i64* %6, align 8
  %7 = load %"class.std::allocator.17"*, %"class.std::allocator.17"** %4, align 8
  %8 = bitcast %"class.std::allocator.17"* %7 to %"class.__gnu_cxx::new_allocator.18"*
  %9 = load %"class.std::function"*, %"class.std::function"** %5, align 8
  %10 = load i64, i64* %6, align 8
  call void @_ZN9__gnu_cxx13new_allocatorISt8functionIFvvEEE10deallocateEPS3_m(%"class.__gnu_cxx::new_allocator.18"* %8, %"class.std::function"* %9, i64 %10)
  ret void
}

; Function Attrs: noinline nounwind uwtable
define linkonce_odr void @_ZN9__gnu_cxx13new_allocatorISt8functionIFvvEEE10deallocateEPS3_m(%"class.__gnu_cxx::new_allocator.18"*, %"class.std::function"*, i64) #5 comdat align 2 {
  %4 = alloca %"class.__gnu_cxx::new_allocator.18"*, align 8
  %5 = alloca %"class.std::function"*, align 8
  %6 = alloca i64, align 8
  store %"class.__gnu_cxx::new_allocator.18"* %0, %"class.__gnu_cxx::new_allocator.18"** %4, align 8
  store %"class.std::function"* %1, %"class.std::function"** %5, align 8
  store i64 %2, i64* %6, align 8
  %7 = load %"class.__gnu_cxx::new_allocator.18"*, %"class.__gnu_cxx::new_allocator.18"** %4, align 8
  %8 = load %"class.std::function"*, %"class.std::function"** %5, align 8
  %9 = bitcast %"class.std::function"* %8 to i8*
  call void @_ZdlPv(i8* %9) #3
  ret void
}

; Function Attrs: noinline uwtable
define linkonce_odr void @_ZNSt16allocator_traitsISaIPSt8functionIFvvEEEE10deallocateERS4_PS3_m(%"class.std::allocator.32"* dereferenceable(1), %"class.std::function"**, i64) #0 comdat align 2 {
  %4 = alloca %"class.std::allocator.32"*, align 8
  %5 = alloca %"class.std::function"**, align 8
  %6 = alloca i64, align 8
  store %"class.std::allocator.32"* %0, %"class.std::allocator.32"** %4, align 8
  store %"class.std::function"** %1, %"class.std::function"*** %5, align 8
  store i64 %2, i64* %6, align 8
  %7 = load %"class.std::allocator.32"*, %"class.std::allocator.32"** %4, align 8
  %8 = bitcast %"class.std::allocator.32"* %7 to %"class.__gnu_cxx::new_allocator.33"*
  %9 = load %"class.std::function"**, %"class.std::function"*** %5, align 8
  %10 = load i64, i64* %6, align 8
  call void @_ZN9__gnu_cxx13new_allocatorIPSt8functionIFvvEEE10deallocateEPS4_m(%"class.__gnu_cxx::new_allocator.33"* %8, %"class.std::function"** %9, i64 %10)
  ret void
}

; Function Attrs: noinline nounwind uwtable
define linkonce_odr void @_ZN9__gnu_cxx13new_allocatorIPSt8functionIFvvEEE10deallocateEPS4_m(%"class.__gnu_cxx::new_allocator.33"*, %"class.std::function"**, i64) #5 comdat align 2 {
  %4 = alloca %"class.__gnu_cxx::new_allocator.33"*, align 8
  %5 = alloca %"class.std::function"**, align 8
  %6 = alloca i64, align 8
  store %"class.__gnu_cxx::new_allocator.33"* %0, %"class.__gnu_cxx::new_allocator.33"** %4, align 8
  store %"class.std::function"** %1, %"class.std::function"*** %5, align 8
  store i64 %2, i64* %6, align 8
  %7 = load %"class.__gnu_cxx::new_allocator.33"*, %"class.__gnu_cxx::new_allocator.33"** %4, align 8
  %8 = load %"class.std::function"**, %"class.std::function"*** %5, align 8
  %9 = bitcast %"class.std::function"** %8 to i8*
  call void @_ZdlPv(i8* %9) #3
  ret void
}

; Function Attrs: noinline nounwind uwtable
define linkonce_odr i64 @_ZNSt15_Deque_iteratorISt8functionIFvvEERS2_PS2_E14_S_buffer_sizeEv() #5 comdat align 2 personality i8* bitcast (i32 (...)* @__gxx_personality_v0 to i8*) {
  %1 = invoke i64 @_ZSt16__deque_buf_sizem(i64 32)
          to label %2 unwind label %3

; <label>:2:                                      ; preds = %0
  ret i64 %1

; <label>:3:                                      ; preds = %0
  %4 = landingpad { i8*, i32 }
          catch i8* null
  %5 = extractvalue { i8*, i32 } %4, 0
  call void @__clang_call_terminate(i8* %5) #11
  unreachable
}

; Function Attrs: noinline nounwind uwtable
define linkonce_odr void @_ZNSaISt8functionIFvvEEED2Ev(%"class.std::allocator.17"*) unnamed_addr #5 comdat align 2 {
  %2 = alloca %"class.std::allocator.17"*, align 8
  store %"class.std::allocator.17"* %0, %"class.std::allocator.17"** %2, align 8
  %3 = load %"class.std::allocator.17"*, %"class.std::allocator.17"** %2, align 8
  %4 = bitcast %"class.std::allocator.17"* %3 to %"class.__gnu_cxx::new_allocator.18"*
  call void @_ZN9__gnu_cxx13new_allocatorISt8functionIFvvEEED2Ev(%"class.__gnu_cxx::new_allocator.18"* %4) #3
  ret void
}

; Function Attrs: noinline nounwind uwtable
define linkonce_odr void @_ZN9__gnu_cxx13new_allocatorISt8functionIFvvEEED2Ev(%"class.__gnu_cxx::new_allocator.18"*) unnamed_addr #5 comdat align 2 {
  %2 = alloca %"class.__gnu_cxx::new_allocator.18"*, align 8
  store %"class.__gnu_cxx::new_allocator.18"* %0, %"class.__gnu_cxx::new_allocator.18"** %2, align 8
  %3 = load %"class.__gnu_cxx::new_allocator.18"*, %"class.__gnu_cxx::new_allocator.18"** %2, align 8
  ret void
}

; Function Attrs: noinline nounwind uwtable
define linkonce_odr dereferenceable(80) %"class.std::deque.15"* @_ZSt4moveIRSt5dequeISt8functionIFvvEESaIS3_EEEONSt16remove_referenceIT_E4typeEOS8_(%"class.std::deque.15"* dereferenceable(80)) #5 comdat {
  %2 = alloca %"class.std::deque.15"*, align 8
  store %"class.std::deque.15"* %0, %"class.std::deque.15"** %2, align 8
  %3 = load %"class.std::deque.15"*, %"class.std::deque.15"** %2, align 8
  ret %"class.std::deque.15"* %3
}

; Function Attrs: noinline uwtable
define linkonce_odr void @_ZNSt5dequeISt8functionIFvvEESaIS2_EEC2EOS4_(%"class.std::deque.15"*, %"class.std::deque.15"* dereferenceable(80)) unnamed_addr #0 comdat align 2 {
  %3 = alloca %"class.std::deque.15"*, align 8
  %4 = alloca %"class.std::deque.15"*, align 8
  store %"class.std::deque.15"* %0, %"class.std::deque.15"** %3, align 8
  store %"class.std::deque.15"* %1, %"class.std::deque.15"** %4, align 8
  %5 = load %"class.std::deque.15"*, %"class.std::deque.15"** %3, align 8
  %6 = bitcast %"class.std::deque.15"* %5 to %"class.std::_Deque_base.16"*
  %7 = load %"class.std::deque.15"*, %"class.std::deque.15"** %4, align 8
  %8 = call dereferenceable(80) %"class.std::deque.15"* @_ZSt4moveIRSt5dequeISt8functionIFvvEESaIS3_EEEONSt16remove_referenceIT_E4typeEOS8_(%"class.std::deque.15"* dereferenceable(80) %7) #3
  %9 = bitcast %"class.std::deque.15"* %8 to %"class.std::_Deque_base.16"*
  call void @_ZNSt11_Deque_baseISt8functionIFvvEESaIS2_EEC2EOS4_(%"class.std::_Deque_base.16"* %6, %"class.std::_Deque_base.16"* dereferenceable(80) %9)
  ret void
}

; Function Attrs: noinline uwtable
define linkonce_odr void @_ZNSt11_Deque_baseISt8functionIFvvEESaIS2_EEC2EOS4_(%"class.std::_Deque_base.16"*, %"class.std::_Deque_base.16"* dereferenceable(80)) unnamed_addr #0 comdat align 2 {
  %3 = alloca %"class.std::_Deque_base.16"*, align 8
  %4 = alloca %"class.std::_Deque_base.16"*, align 8
  %5 = alloca %"struct.std::integral_constant", align 1
  store %"class.std::_Deque_base.16"* %0, %"class.std::_Deque_base.16"** %3, align 8
  store %"class.std::_Deque_base.16"* %1, %"class.std::_Deque_base.16"** %4, align 8
  %6 = load %"class.std::_Deque_base.16"*, %"class.std::_Deque_base.16"** %3, align 8
  %7 = load %"class.std::_Deque_base.16"*, %"class.std::_Deque_base.16"** %4, align 8
  %8 = call dereferenceable(80) %"class.std::_Deque_base.16"* @_ZSt4moveIRSt11_Deque_baseISt8functionIFvvEESaIS3_EEEONSt16remove_referenceIT_E4typeEOS8_(%"class.std::_Deque_base.16"* dereferenceable(80) %7) #3
  call void @_ZNSt11_Deque_baseISt8functionIFvvEESaIS2_EEC2EOS4_St17integral_constantIbLb1EE(%"class.std::_Deque_base.16"* %6, %"class.std::_Deque_base.16"* dereferenceable(80) %8)
  ret void
}

; Function Attrs: noinline nounwind uwtable
define linkonce_odr dereferenceable(80) %"class.std::_Deque_base.16"* @_ZSt4moveIRSt11_Deque_baseISt8functionIFvvEESaIS3_EEEONSt16remove_referenceIT_E4typeEOS8_(%"class.std::_Deque_base.16"* dereferenceable(80)) #5 comdat {
  %2 = alloca %"class.std::_Deque_base.16"*, align 8
  store %"class.std::_Deque_base.16"* %0, %"class.std::_Deque_base.16"** %2, align 8
  %3 = load %"class.std::_Deque_base.16"*, %"class.std::_Deque_base.16"** %2, align 8
  ret %"class.std::_Deque_base.16"* %3
}

; Function Attrs: noinline uwtable
define linkonce_odr void @_ZNSt11_Deque_baseISt8functionIFvvEESaIS2_EEC2EOS4_St17integral_constantIbLb1EE(%"class.std::_Deque_base.16"*, %"class.std::_Deque_base.16"* dereferenceable(80)) unnamed_addr #0 comdat align 2 personality i8* bitcast (i32 (...)* @__gxx_personality_v0 to i8*) {
  %3 = alloca %"struct.std::integral_constant", align 1
  %4 = alloca %"class.std::_Deque_base.16"*, align 8
  %5 = alloca %"class.std::_Deque_base.16"*, align 8
  %6 = alloca i8*
  %7 = alloca i32
  store %"class.std::_Deque_base.16"* %0, %"class.std::_Deque_base.16"** %4, align 8
  store %"class.std::_Deque_base.16"* %1, %"class.std::_Deque_base.16"** %5, align 8
  %8 = load %"class.std::_Deque_base.16"*, %"class.std::_Deque_base.16"** %4, align 8
  %9 = getelementptr inbounds %"class.std::_Deque_base.16", %"class.std::_Deque_base.16"* %8, i32 0, i32 0
  %10 = load %"class.std::_Deque_base.16"*, %"class.std::_Deque_base.16"** %5, align 8
  %11 = call dereferenceable(1) %"class.std::allocator.17"* @_ZNSt11_Deque_baseISt8functionIFvvEESaIS2_EE19_M_get_Tp_allocatorEv(%"class.std::_Deque_base.16"* %10) #3
  %12 = call dereferenceable(1) %"class.std::allocator.17"* @_ZSt4moveIRSaISt8functionIFvvEEEEONSt16remove_referenceIT_E4typeEOS6_(%"class.std::allocator.17"* dereferenceable(1) %11) #3
  call void @_ZNSt11_Deque_baseISt8functionIFvvEESaIS2_EE11_Deque_implC2EOS3_(%"struct.std::_Deque_base<std::function<void ()>, std::allocator<std::function<void ()> > >::_Deque_impl"* %9, %"class.std::allocator.17"* dereferenceable(1) %12) #3
  invoke void @_ZNSt11_Deque_baseISt8functionIFvvEESaIS2_EE17_M_initialize_mapEm(%"class.std::_Deque_base.16"* %8, i64 0)
          to label %13 unwind label %23

; <label>:13:                                     ; preds = %2
  %14 = load %"class.std::_Deque_base.16"*, %"class.std::_Deque_base.16"** %5, align 8
  %15 = getelementptr inbounds %"class.std::_Deque_base.16", %"class.std::_Deque_base.16"* %14, i32 0, i32 0
  %16 = getelementptr inbounds %"struct.std::_Deque_base<std::function<void ()>, std::allocator<std::function<void ()> > >::_Deque_impl", %"struct.std::_Deque_base<std::function<void ()>, std::allocator<std::function<void ()> > >::_Deque_impl"* %15, i32 0, i32 0
  %17 = load %"class.std::function"**, %"class.std::function"*** %16, align 8
  %18 = icmp ne %"class.std::function"** %17, null
  br i1 %18, label %19, label %27

; <label>:19:                                     ; preds = %13
  %20 = getelementptr inbounds %"class.std::_Deque_base.16", %"class.std::_Deque_base.16"* %8, i32 0, i32 0
  %21 = load %"class.std::_Deque_base.16"*, %"class.std::_Deque_base.16"** %5, align 8
  %22 = getelementptr inbounds %"class.std::_Deque_base.16", %"class.std::_Deque_base.16"* %21, i32 0, i32 0
  call void @_ZNSt11_Deque_baseISt8functionIFvvEESaIS2_EE11_Deque_impl12_M_swap_dataERS5_(%"struct.std::_Deque_base<std::function<void ()>, std::allocator<std::function<void ()> > >::_Deque_impl"* %20, %"struct.std::_Deque_base<std::function<void ()>, std::allocator<std::function<void ()> > >::_Deque_impl"* dereferenceable(80) %22) #3
  br label %27

; <label>:23:                                     ; preds = %2
  %24 = landingpad { i8*, i32 }
          cleanup
  %25 = extractvalue { i8*, i32 } %24, 0
  store i8* %25, i8** %6, align 8
  %26 = extractvalue { i8*, i32 } %24, 1
  store i32 %26, i32* %7, align 4
  call void @_ZNSt11_Deque_baseISt8functionIFvvEESaIS2_EE11_Deque_implD2Ev(%"struct.std::_Deque_base<std::function<void ()>, std::allocator<std::function<void ()> > >::_Deque_impl"* %9) #3
  br label %28

; <label>:27:                                     ; preds = %19, %13
  ret void

; <label>:28:                                     ; preds = %23
  %29 = load i8*, i8** %6, align 8
  %30 = load i32, i32* %7, align 4
  %31 = insertvalue { i8*, i32 } undef, i8* %29, 0
  %32 = insertvalue { i8*, i32 } %31, i32 %30, 1
  resume { i8*, i32 } %32
}

; Function Attrs: noinline nounwind uwtable
define linkonce_odr dereferenceable(1) %"class.std::allocator.17"* @_ZSt4moveIRSaISt8functionIFvvEEEEONSt16remove_referenceIT_E4typeEOS6_(%"class.std::allocator.17"* dereferenceable(1)) #5 comdat {
  %2 = alloca %"class.std::allocator.17"*, align 8
  store %"class.std::allocator.17"* %0, %"class.std::allocator.17"** %2, align 8
  %3 = load %"class.std::allocator.17"*, %"class.std::allocator.17"** %2, align 8
  ret %"class.std::allocator.17"* %3
}

; Function Attrs: noinline nounwind uwtable
define linkonce_odr dereferenceable(1) %"class.std::allocator.17"* @_ZNSt11_Deque_baseISt8functionIFvvEESaIS2_EE19_M_get_Tp_allocatorEv(%"class.std::_Deque_base.16"*) #5 comdat align 2 {
  %2 = alloca %"class.std::_Deque_base.16"*, align 8
  store %"class.std::_Deque_base.16"* %0, %"class.std::_Deque_base.16"** %2, align 8
  %3 = load %"class.std::_Deque_base.16"*, %"class.std::_Deque_base.16"** %2, align 8
  %4 = getelementptr inbounds %"class.std::_Deque_base.16", %"class.std::_Deque_base.16"* %3, i32 0, i32 0
  %5 = bitcast %"struct.std::_Deque_base<std::function<void ()>, std::allocator<std::function<void ()> > >::_Deque_impl"* %4 to %"class.std::allocator.17"*
  ret %"class.std::allocator.17"* %5
}

; Function Attrs: noinline nounwind uwtable
define linkonce_odr void @_ZNSt11_Deque_baseISt8functionIFvvEESaIS2_EE11_Deque_implC2EOS3_(%"struct.std::_Deque_base<std::function<void ()>, std::allocator<std::function<void ()> > >::_Deque_impl"*, %"class.std::allocator.17"* dereferenceable(1)) unnamed_addr #5 comdat align 2 {
  %3 = alloca %"struct.std::_Deque_base<std::function<void ()>, std::allocator<std::function<void ()> > >::_Deque_impl"*, align 8
  %4 = alloca %"class.std::allocator.17"*, align 8
  store %"struct.std::_Deque_base<std::function<void ()>, std::allocator<std::function<void ()> > >::_Deque_impl"* %0, %"struct.std::_Deque_base<std::function<void ()>, std::allocator<std::function<void ()> > >::_Deque_impl"** %3, align 8
  store %"class.std::allocator.17"* %1, %"class.std::allocator.17"** %4, align 8
  %5 = load %"struct.std::_Deque_base<std::function<void ()>, std::allocator<std::function<void ()> > >::_Deque_impl"*, %"struct.std::_Deque_base<std::function<void ()>, std::allocator<std::function<void ()> > >::_Deque_impl"** %3, align 8
  %6 = bitcast %"struct.std::_Deque_base<std::function<void ()>, std::allocator<std::function<void ()> > >::_Deque_impl"* %5 to %"class.std::allocator.17"*
  %7 = load %"class.std::allocator.17"*, %"class.std::allocator.17"** %4, align 8
  %8 = call dereferenceable(1) %"class.std::allocator.17"* @_ZSt4moveIRSaISt8functionIFvvEEEEONSt16remove_referenceIT_E4typeEOS6_(%"class.std::allocator.17"* dereferenceable(1) %7) #3
  call void @_ZNSaISt8functionIFvvEEEC2ERKS2_(%"class.std::allocator.17"* %6, %"class.std::allocator.17"* dereferenceable(1) %8) #3
  %9 = getelementptr inbounds %"struct.std::_Deque_base<std::function<void ()>, std::allocator<std::function<void ()> > >::_Deque_impl", %"struct.std::_Deque_base<std::function<void ()>, std::allocator<std::function<void ()> > >::_Deque_impl"* %5, i32 0, i32 0
  store %"class.std::function"** null, %"class.std::function"*** %9, align 8
  %10 = getelementptr inbounds %"struct.std::_Deque_base<std::function<void ()>, std::allocator<std::function<void ()> > >::_Deque_impl", %"struct.std::_Deque_base<std::function<void ()>, std::allocator<std::function<void ()> > >::_Deque_impl"* %5, i32 0, i32 1
  store i64 0, i64* %10, align 8
  %11 = getelementptr inbounds %"struct.std::_Deque_base<std::function<void ()>, std::allocator<std::function<void ()> > >::_Deque_impl", %"struct.std::_Deque_base<std::function<void ()>, std::allocator<std::function<void ()> > >::_Deque_impl"* %5, i32 0, i32 2
  call void @_ZNSt15_Deque_iteratorISt8functionIFvvEERS2_PS2_EC2Ev(%"struct.std::_Deque_iterator.20"* %11) #3
  %12 = getelementptr inbounds %"struct.std::_Deque_base<std::function<void ()>, std::allocator<std::function<void ()> > >::_Deque_impl", %"struct.std::_Deque_base<std::function<void ()>, std::allocator<std::function<void ()> > >::_Deque_impl"* %5, i32 0, i32 3
  call void @_ZNSt15_Deque_iteratorISt8functionIFvvEERS2_PS2_EC2Ev(%"struct.std::_Deque_iterator.20"* %12) #3
  ret void
}

; Function Attrs: noinline nounwind uwtable
define linkonce_odr void @_ZNSt11_Deque_baseISt8functionIFvvEESaIS2_EE11_Deque_impl12_M_swap_dataERS5_(%"struct.std::_Deque_base<std::function<void ()>, std::allocator<std::function<void ()> > >::_Deque_impl"*, %"struct.std::_Deque_base<std::function<void ()>, std::allocator<std::function<void ()> > >::_Deque_impl"* dereferenceable(80)) #5 comdat align 2 {
  %3 = alloca %"struct.std::_Deque_base<std::function<void ()>, std::allocator<std::function<void ()> > >::_Deque_impl"*, align 8
  %4 = alloca %"struct.std::_Deque_base<std::function<void ()>, std::allocator<std::function<void ()> > >::_Deque_impl"*, align 8
  store %"struct.std::_Deque_base<std::function<void ()>, std::allocator<std::function<void ()> > >::_Deque_impl"* %0, %"struct.std::_Deque_base<std::function<void ()>, std::allocator<std::function<void ()> > >::_Deque_impl"** %3, align 8
  store %"struct.std::_Deque_base<std::function<void ()>, std::allocator<std::function<void ()> > >::_Deque_impl"* %1, %"struct.std::_Deque_base<std::function<void ()>, std::allocator<std::function<void ()> > >::_Deque_impl"** %4, align 8
  %5 = load %"struct.std::_Deque_base<std::function<void ()>, std::allocator<std::function<void ()> > >::_Deque_impl"*, %"struct.std::_Deque_base<std::function<void ()>, std::allocator<std::function<void ()> > >::_Deque_impl"** %3, align 8
  %6 = getelementptr inbounds %"struct.std::_Deque_base<std::function<void ()>, std::allocator<std::function<void ()> > >::_Deque_impl", %"struct.std::_Deque_base<std::function<void ()>, std::allocator<std::function<void ()> > >::_Deque_impl"* %5, i32 0, i32 2
  %7 = load %"struct.std::_Deque_base<std::function<void ()>, std::allocator<std::function<void ()> > >::_Deque_impl"*, %"struct.std::_Deque_base<std::function<void ()>, std::allocator<std::function<void ()> > >::_Deque_impl"** %4, align 8
  %8 = getelementptr inbounds %"struct.std::_Deque_base<std::function<void ()>, std::allocator<std::function<void ()> > >::_Deque_impl", %"struct.std::_Deque_base<std::function<void ()>, std::allocator<std::function<void ()> > >::_Deque_impl"* %7, i32 0, i32 2
  call void @_ZSt4swapISt15_Deque_iteratorISt8functionIFvvEERS3_PS3_EENSt9enable_ifIXsr6__and_ISt21is_move_constructibleIT_ESt18is_move_assignableIS9_EEE5valueEvE4typeERS9_SF_(%"struct.std::_Deque_iterator.20"* dereferenceable(32) %6, %"struct.std::_Deque_iterator.20"* dereferenceable(32) %8) #3
  %9 = getelementptr inbounds %"struct.std::_Deque_base<std::function<void ()>, std::allocator<std::function<void ()> > >::_Deque_impl", %"struct.std::_Deque_base<std::function<void ()>, std::allocator<std::function<void ()> > >::_Deque_impl"* %5, i32 0, i32 3
  %10 = load %"struct.std::_Deque_base<std::function<void ()>, std::allocator<std::function<void ()> > >::_Deque_impl"*, %"struct.std::_Deque_base<std::function<void ()>, std::allocator<std::function<void ()> > >::_Deque_impl"** %4, align 8
  %11 = getelementptr inbounds %"struct.std::_Deque_base<std::function<void ()>, std::allocator<std::function<void ()> > >::_Deque_impl", %"struct.std::_Deque_base<std::function<void ()>, std::allocator<std::function<void ()> > >::_Deque_impl"* %10, i32 0, i32 3
  call void @_ZSt4swapISt15_Deque_iteratorISt8functionIFvvEERS3_PS3_EENSt9enable_ifIXsr6__and_ISt21is_move_constructibleIT_ESt18is_move_assignableIS9_EEE5valueEvE4typeERS9_SF_(%"struct.std::_Deque_iterator.20"* dereferenceable(32) %9, %"struct.std::_Deque_iterator.20"* dereferenceable(32) %11) #3
  %12 = getelementptr inbounds %"struct.std::_Deque_base<std::function<void ()>, std::allocator<std::function<void ()> > >::_Deque_impl", %"struct.std::_Deque_base<std::function<void ()>, std::allocator<std::function<void ()> > >::_Deque_impl"* %5, i32 0, i32 0
  %13 = load %"struct.std::_Deque_base<std::function<void ()>, std::allocator<std::function<void ()> > >::_Deque_impl"*, %"struct.std::_Deque_base<std::function<void ()>, std::allocator<std::function<void ()> > >::_Deque_impl"** %4, align 8
  %14 = getelementptr inbounds %"struct.std::_Deque_base<std::function<void ()>, std::allocator<std::function<void ()> > >::_Deque_impl", %"struct.std::_Deque_base<std::function<void ()>, std::allocator<std::function<void ()> > >::_Deque_impl"* %13, i32 0, i32 0
  call void @_ZSt4swapIPPSt8functionIFvvEEENSt9enable_ifIXsr6__and_ISt21is_move_constructibleIT_ESt18is_move_assignableIS7_EEE5valueEvE4typeERS7_SD_(%"class.std::function"*** dereferenceable(8) %12, %"class.std::function"*** dereferenceable(8) %14) #3
  %15 = getelementptr inbounds %"struct.std::_Deque_base<std::function<void ()>, std::allocator<std::function<void ()> > >::_Deque_impl", %"struct.std::_Deque_base<std::function<void ()>, std::allocator<std::function<void ()> > >::_Deque_impl"* %5, i32 0, i32 1
  %16 = load %"struct.std::_Deque_base<std::function<void ()>, std::allocator<std::function<void ()> > >::_Deque_impl"*, %"struct.std::_Deque_base<std::function<void ()>, std::allocator<std::function<void ()> > >::_Deque_impl"** %4, align 8
  %17 = getelementptr inbounds %"struct.std::_Deque_base<std::function<void ()>, std::allocator<std::function<void ()> > >::_Deque_impl", %"struct.std::_Deque_base<std::function<void ()>, std::allocator<std::function<void ()> > >::_Deque_impl"* %16, i32 0, i32 1
  call void @_ZSt4swapImENSt9enable_ifIXsr6__and_ISt21is_move_constructibleIT_ESt18is_move_assignableIS2_EEE5valueEvE4typeERS2_S8_(i64* dereferenceable(8) %15, i64* dereferenceable(8) %17) #3
  ret void
}

; Function Attrs: noinline nounwind uwtable
define linkonce_odr void @_ZNSaISt8functionIFvvEEEC2ERKS2_(%"class.std::allocator.17"*, %"class.std::allocator.17"* dereferenceable(1)) unnamed_addr #5 comdat align 2 {
  %3 = alloca %"class.std::allocator.17"*, align 8
  %4 = alloca %"class.std::allocator.17"*, align 8
  store %"class.std::allocator.17"* %0, %"class.std::allocator.17"** %3, align 8
  store %"class.std::allocator.17"* %1, %"class.std::allocator.17"** %4, align 8
  %5 = load %"class.std::allocator.17"*, %"class.std::allocator.17"** %3, align 8
  %6 = bitcast %"class.std::allocator.17"* %5 to %"class.__gnu_cxx::new_allocator.18"*
  %7 = load %"class.std::allocator.17"*, %"class.std::allocator.17"** %4, align 8
  %8 = bitcast %"class.std::allocator.17"* %7 to %"class.__gnu_cxx::new_allocator.18"*
  call void @_ZN9__gnu_cxx13new_allocatorISt8functionIFvvEEEC2ERKS4_(%"class.__gnu_cxx::new_allocator.18"* %6, %"class.__gnu_cxx::new_allocator.18"* dereferenceable(1) %8) #3
  ret void
}

; Function Attrs: noinline nounwind uwtable
define linkonce_odr void @_ZN9__gnu_cxx13new_allocatorISt8functionIFvvEEEC2ERKS4_(%"class.__gnu_cxx::new_allocator.18"*, %"class.__gnu_cxx::new_allocator.18"* dereferenceable(1)) unnamed_addr #5 comdat align 2 {
  %3 = alloca %"class.__gnu_cxx::new_allocator.18"*, align 8
  %4 = alloca %"class.__gnu_cxx::new_allocator.18"*, align 8
  store %"class.__gnu_cxx::new_allocator.18"* %0, %"class.__gnu_cxx::new_allocator.18"** %3, align 8
  store %"class.__gnu_cxx::new_allocator.18"* %1, %"class.__gnu_cxx::new_allocator.18"** %4, align 8
  %5 = load %"class.__gnu_cxx::new_allocator.18"*, %"class.__gnu_cxx::new_allocator.18"** %3, align 8
  ret void
}

; Function Attrs: noinline nounwind uwtable
define linkonce_odr void @_ZSt4swapISt15_Deque_iteratorISt8functionIFvvEERS3_PS3_EENSt9enable_ifIXsr6__and_ISt21is_move_constructibleIT_ESt18is_move_assignableIS9_EEE5valueEvE4typeERS9_SF_(%"struct.std::_Deque_iterator.20"* dereferenceable(32), %"struct.std::_Deque_iterator.20"* dereferenceable(32)) #5 comdat {
  %3 = alloca %"struct.std::_Deque_iterator.20"*, align 8
  %4 = alloca %"struct.std::_Deque_iterator.20"*, align 8
  %5 = alloca %"struct.std::_Deque_iterator.20", align 8
  store %"struct.std::_Deque_iterator.20"* %0, %"struct.std::_Deque_iterator.20"** %3, align 8
  store %"struct.std::_Deque_iterator.20"* %1, %"struct.std::_Deque_iterator.20"** %4, align 8
  %6 = load %"struct.std::_Deque_iterator.20"*, %"struct.std::_Deque_iterator.20"** %3, align 8
  %7 = call dereferenceable(32) %"struct.std::_Deque_iterator.20"* @_ZSt4moveIRSt15_Deque_iteratorISt8functionIFvvEERS3_PS3_EEONSt16remove_referenceIT_E4typeEOS9_(%"struct.std::_Deque_iterator.20"* dereferenceable(32) %6) #3
  call void @_ZNSt15_Deque_iteratorISt8functionIFvvEERS2_PS2_EC2ERKS5_(%"struct.std::_Deque_iterator.20"* %5, %"struct.std::_Deque_iterator.20"* dereferenceable(32) %7) #3
  %8 = load %"struct.std::_Deque_iterator.20"*, %"struct.std::_Deque_iterator.20"** %4, align 8
  %9 = call dereferenceable(32) %"struct.std::_Deque_iterator.20"* @_ZSt4moveIRSt15_Deque_iteratorISt8functionIFvvEERS3_PS3_EEONSt16remove_referenceIT_E4typeEOS9_(%"struct.std::_Deque_iterator.20"* dereferenceable(32) %8) #3
  %10 = load %"struct.std::_Deque_iterator.20"*, %"struct.std::_Deque_iterator.20"** %3, align 8
  %11 = bitcast %"struct.std::_Deque_iterator.20"* %10 to i8*
  %12 = bitcast %"struct.std::_Deque_iterator.20"* %9 to i8*
  call void @llvm.memcpy.p0i8.p0i8.i64(i8* %11, i8* %12, i64 32, i32 8, i1 false)
  %13 = call dereferenceable(32) %"struct.std::_Deque_iterator.20"* @_ZSt4moveIRSt15_Deque_iteratorISt8functionIFvvEERS3_PS3_EEONSt16remove_referenceIT_E4typeEOS9_(%"struct.std::_Deque_iterator.20"* dereferenceable(32) %5) #3
  %14 = load %"struct.std::_Deque_iterator.20"*, %"struct.std::_Deque_iterator.20"** %4, align 8
  %15 = bitcast %"struct.std::_Deque_iterator.20"* %14 to i8*
  %16 = bitcast %"struct.std::_Deque_iterator.20"* %13 to i8*
  call void @llvm.memcpy.p0i8.p0i8.i64(i8* %15, i8* %16, i64 32, i32 8, i1 false)
  ret void
}

; Function Attrs: noinline nounwind uwtable
define linkonce_odr void @_ZSt4swapIPPSt8functionIFvvEEENSt9enable_ifIXsr6__and_ISt21is_move_constructibleIT_ESt18is_move_assignableIS7_EEE5valueEvE4typeERS7_SD_(%"class.std::function"*** dereferenceable(8), %"class.std::function"*** dereferenceable(8)) #5 comdat {
  %3 = alloca %"class.std::function"***, align 8
  %4 = alloca %"class.std::function"***, align 8
  %5 = alloca %"class.std::function"**, align 8
  store %"class.std::function"*** %0, %"class.std::function"**** %3, align 8
  store %"class.std::function"*** %1, %"class.std::function"**** %4, align 8
  %6 = load %"class.std::function"***, %"class.std::function"**** %3, align 8
  %7 = call dereferenceable(8) %"class.std::function"*** @_ZSt4moveIRPPSt8functionIFvvEEEONSt16remove_referenceIT_E4typeEOS7_(%"class.std::function"*** dereferenceable(8) %6) #3
  %8 = load %"class.std::function"**, %"class.std::function"*** %7, align 8
  store %"class.std::function"** %8, %"class.std::function"*** %5, align 8
  %9 = load %"class.std::function"***, %"class.std::function"**** %4, align 8
  %10 = call dereferenceable(8) %"class.std::function"*** @_ZSt4moveIRPPSt8functionIFvvEEEONSt16remove_referenceIT_E4typeEOS7_(%"class.std::function"*** dereferenceable(8) %9) #3
  %11 = load %"class.std::function"**, %"class.std::function"*** %10, align 8
  %12 = load %"class.std::function"***, %"class.std::function"**** %3, align 8
  store %"class.std::function"** %11, %"class.std::function"*** %12, align 8
  %13 = call dereferenceable(8) %"class.std::function"*** @_ZSt4moveIRPPSt8functionIFvvEEEONSt16remove_referenceIT_E4typeEOS7_(%"class.std::function"*** dereferenceable(8) %5) #3
  %14 = load %"class.std::function"**, %"class.std::function"*** %13, align 8
  %15 = load %"class.std::function"***, %"class.std::function"**** %4, align 8
  store %"class.std::function"** %14, %"class.std::function"*** %15, align 8
  ret void
}

; Function Attrs: noinline nounwind uwtable
define linkonce_odr dereferenceable(32) %"struct.std::_Deque_iterator.20"* @_ZSt4moveIRSt15_Deque_iteratorISt8functionIFvvEERS3_PS3_EEONSt16remove_referenceIT_E4typeEOS9_(%"struct.std::_Deque_iterator.20"* dereferenceable(32)) #5 comdat {
  %2 = alloca %"struct.std::_Deque_iterator.20"*, align 8
  store %"struct.std::_Deque_iterator.20"* %0, %"struct.std::_Deque_iterator.20"** %2, align 8
  %3 = load %"struct.std::_Deque_iterator.20"*, %"struct.std::_Deque_iterator.20"** %2, align 8
  ret %"struct.std::_Deque_iterator.20"* %3
}

; Function Attrs: noinline nounwind uwtable
define linkonce_odr void @_ZNSt15_Deque_iteratorISt8functionIFvvEERS2_PS2_EC2ERKS5_(%"struct.std::_Deque_iterator.20"*, %"struct.std::_Deque_iterator.20"* dereferenceable(32)) unnamed_addr #5 comdat align 2 {
  %3 = alloca %"struct.std::_Deque_iterator.20"*, align 8
  %4 = alloca %"struct.std::_Deque_iterator.20"*, align 8
  store %"struct.std::_Deque_iterator.20"* %0, %"struct.std::_Deque_iterator.20"** %3, align 8
  store %"struct.std::_Deque_iterator.20"* %1, %"struct.std::_Deque_iterator.20"** %4, align 8
  %5 = load %"struct.std::_Deque_iterator.20"*, %"struct.std::_Deque_iterator.20"** %3, align 8
  %6 = getelementptr inbounds %"struct.std::_Deque_iterator.20", %"struct.std::_Deque_iterator.20"* %5, i32 0, i32 0
  %7 = load %"struct.std::_Deque_iterator.20"*, %"struct.std::_Deque_iterator.20"** %4, align 8
  %8 = getelementptr inbounds %"struct.std::_Deque_iterator.20", %"struct.std::_Deque_iterator.20"* %7, i32 0, i32 0
  %9 = load %"class.std::function"*, %"class.std::function"** %8, align 8
  store %"class.std::function"* %9, %"class.std::function"** %6, align 8
  %10 = getelementptr inbounds %"struct.std::_Deque_iterator.20", %"struct.std::_Deque_iterator.20"* %5, i32 0, i32 1
  %11 = load %"struct.std::_Deque_iterator.20"*, %"struct.std::_Deque_iterator.20"** %4, align 8
  %12 = getelementptr inbounds %"struct.std::_Deque_iterator.20", %"struct.std::_Deque_iterator.20"* %11, i32 0, i32 1
  %13 = load %"class.std::function"*, %"class.std::function"** %12, align 8
  store %"class.std::function"* %13, %"class.std::function"** %10, align 8
  %14 = getelementptr inbounds %"struct.std::_Deque_iterator.20", %"struct.std::_Deque_iterator.20"* %5, i32 0, i32 2
  %15 = load %"struct.std::_Deque_iterator.20"*, %"struct.std::_Deque_iterator.20"** %4, align 8
  %16 = getelementptr inbounds %"struct.std::_Deque_iterator.20", %"struct.std::_Deque_iterator.20"* %15, i32 0, i32 2
  %17 = load %"class.std::function"*, %"class.std::function"** %16, align 8
  store %"class.std::function"* %17, %"class.std::function"** %14, align 8
  %18 = getelementptr inbounds %"struct.std::_Deque_iterator.20", %"struct.std::_Deque_iterator.20"* %5, i32 0, i32 3
  %19 = load %"struct.std::_Deque_iterator.20"*, %"struct.std::_Deque_iterator.20"** %4, align 8
  %20 = getelementptr inbounds %"struct.std::_Deque_iterator.20", %"struct.std::_Deque_iterator.20"* %19, i32 0, i32 3
  %21 = load %"class.std::function"**, %"class.std::function"*** %20, align 8
  store %"class.std::function"** %21, %"class.std::function"*** %18, align 8
  ret void
}

; Function Attrs: noinline nounwind uwtable
define linkonce_odr dereferenceable(8) %"class.std::function"*** @_ZSt4moveIRPPSt8functionIFvvEEEONSt16remove_referenceIT_E4typeEOS7_(%"class.std::function"*** dereferenceable(8)) #5 comdat {
  %2 = alloca %"class.std::function"***, align 8
  store %"class.std::function"*** %0, %"class.std::function"**** %2, align 8
  %3 = load %"class.std::function"***, %"class.std::function"**** %2, align 8
  ret %"class.std::function"*** %3
}

; Function Attrs: noinline uwtable
define linkonce_odr void @_ZNSt5dequeISt8functionIFvvEESaIS2_EE15_M_destroy_dataESt15_Deque_iteratorIS2_RS2_PS2_ES8_RKS3_(%"class.std::deque.15"*, %"struct.std::_Deque_iterator.20"*, %"struct.std::_Deque_iterator.20"*, %"class.std::allocator.17"* dereferenceable(1)) #0 comdat align 2 {
  %5 = alloca %"class.std::deque.15"*, align 8
  %6 = alloca %"class.std::allocator.17"*, align 8
  %7 = alloca %"struct.std::_Deque_iterator.20", align 8
  %8 = alloca %"struct.std::_Deque_iterator.20", align 8
  store %"class.std::deque.15"* %0, %"class.std::deque.15"** %5, align 8
  store %"class.std::allocator.17"* %3, %"class.std::allocator.17"** %6, align 8
  %9 = load %"class.std::deque.15"*, %"class.std::deque.15"** %5, align 8
  call void @_ZNSt15_Deque_iteratorISt8functionIFvvEERS2_PS2_EC2ERKS5_(%"struct.std::_Deque_iterator.20"* %7, %"struct.std::_Deque_iterator.20"* dereferenceable(32) %1) #3
  call void @_ZNSt15_Deque_iteratorISt8functionIFvvEERS2_PS2_EC2ERKS5_(%"struct.std::_Deque_iterator.20"* %8, %"struct.std::_Deque_iterator.20"* dereferenceable(32) %2) #3
  call void @_ZNSt5dequeISt8functionIFvvEESaIS2_EE19_M_destroy_data_auxESt15_Deque_iteratorIS2_RS2_PS2_ES8_(%"class.std::deque.15"* %9, %"struct.std::_Deque_iterator.20"* %7, %"struct.std::_Deque_iterator.20"* %8)
  ret void
}

; Function Attrs: noinline nounwind uwtable
define linkonce_odr void @_ZNSt5dequeISt8functionIFvvEESaIS2_EE5beginEv(%"struct.std::_Deque_iterator.20"* noalias sret, %"class.std::deque.15"*) #5 comdat align 2 {
  %3 = alloca %"class.std::deque.15"*, align 8
  store %"class.std::deque.15"* %1, %"class.std::deque.15"** %3, align 8
  %4 = load %"class.std::deque.15"*, %"class.std::deque.15"** %3, align 8
  %5 = bitcast %"class.std::deque.15"* %4 to %"class.std::_Deque_base.16"*
  %6 = getelementptr inbounds %"class.std::_Deque_base.16", %"class.std::_Deque_base.16"* %5, i32 0, i32 0
  %7 = getelementptr inbounds %"struct.std::_Deque_base<std::function<void ()>, std::allocator<std::function<void ()> > >::_Deque_impl", %"struct.std::_Deque_base<std::function<void ()>, std::allocator<std::function<void ()> > >::_Deque_impl"* %6, i32 0, i32 2
  call void @_ZNSt15_Deque_iteratorISt8functionIFvvEERS2_PS2_EC2ERKS5_(%"struct.std::_Deque_iterator.20"* %0, %"struct.std::_Deque_iterator.20"* dereferenceable(32) %7) #3
  ret void
}

; Function Attrs: noinline nounwind uwtable
define linkonce_odr void @_ZNSt5dequeISt8functionIFvvEESaIS2_EE3endEv(%"struct.std::_Deque_iterator.20"* noalias sret, %"class.std::deque.15"*) #5 comdat align 2 {
  %3 = alloca %"class.std::deque.15"*, align 8
  store %"class.std::deque.15"* %1, %"class.std::deque.15"** %3, align 8
  %4 = load %"class.std::deque.15"*, %"class.std::deque.15"** %3, align 8
  %5 = bitcast %"class.std::deque.15"* %4 to %"class.std::_Deque_base.16"*
  %6 = getelementptr inbounds %"class.std::_Deque_base.16", %"class.std::_Deque_base.16"* %5, i32 0, i32 0
  %7 = getelementptr inbounds %"struct.std::_Deque_base<std::function<void ()>, std::allocator<std::function<void ()> > >::_Deque_impl", %"struct.std::_Deque_base<std::function<void ()>, std::allocator<std::function<void ()> > >::_Deque_impl"* %6, i32 0, i32 3
  call void @_ZNSt15_Deque_iteratorISt8functionIFvvEERS2_PS2_EC2ERKS5_(%"struct.std::_Deque_iterator.20"* %0, %"struct.std::_Deque_iterator.20"* dereferenceable(32) %7) #3
  ret void
}

; Function Attrs: noinline nounwind uwtable
define linkonce_odr void @_ZNSt11_Deque_baseISt8functionIFvvEESaIS2_EED2Ev(%"class.std::_Deque_base.16"*) unnamed_addr #5 comdat align 2 {
  %2 = alloca %"class.std::_Deque_base.16"*, align 8
  store %"class.std::_Deque_base.16"* %0, %"class.std::_Deque_base.16"** %2, align 8
  %3 = load %"class.std::_Deque_base.16"*, %"class.std::_Deque_base.16"** %2, align 8
  %4 = getelementptr inbounds %"class.std::_Deque_base.16", %"class.std::_Deque_base.16"* %3, i32 0, i32 0
  %5 = getelementptr inbounds %"struct.std::_Deque_base<std::function<void ()>, std::allocator<std::function<void ()> > >::_Deque_impl", %"struct.std::_Deque_base<std::function<void ()>, std::allocator<std::function<void ()> > >::_Deque_impl"* %4, i32 0, i32 0
  %6 = load %"class.std::function"**, %"class.std::function"*** %5, align 8
  %7 = icmp ne %"class.std::function"** %6, null
  br i1 %7, label %8, label %24

; <label>:8:                                      ; preds = %1
  %9 = getelementptr inbounds %"class.std::_Deque_base.16", %"class.std::_Deque_base.16"* %3, i32 0, i32 0
  %10 = getelementptr inbounds %"struct.std::_Deque_base<std::function<void ()>, std::allocator<std::function<void ()> > >::_Deque_impl", %"struct.std::_Deque_base<std::function<void ()>, std::allocator<std::function<void ()> > >::_Deque_impl"* %9, i32 0, i32 2
  %11 = getelementptr inbounds %"struct.std::_Deque_iterator.20", %"struct.std::_Deque_iterator.20"* %10, i32 0, i32 3
  %12 = load %"class.std::function"**, %"class.std::function"*** %11, align 8
  %13 = getelementptr inbounds %"class.std::_Deque_base.16", %"class.std::_Deque_base.16"* %3, i32 0, i32 0
  %14 = getelementptr inbounds %"struct.std::_Deque_base<std::function<void ()>, std::allocator<std::function<void ()> > >::_Deque_impl", %"struct.std::_Deque_base<std::function<void ()>, std::allocator<std::function<void ()> > >::_Deque_impl"* %13, i32 0, i32 3
  %15 = getelementptr inbounds %"struct.std::_Deque_iterator.20", %"struct.std::_Deque_iterator.20"* %14, i32 0, i32 3
  %16 = load %"class.std::function"**, %"class.std::function"*** %15, align 8
  %17 = getelementptr inbounds %"class.std::function"*, %"class.std::function"** %16, i64 1
  call void @_ZNSt11_Deque_baseISt8functionIFvvEESaIS2_EE16_M_destroy_nodesEPPS2_S6_(%"class.std::_Deque_base.16"* %3, %"class.std::function"** %12, %"class.std::function"** %17) #3
  %18 = getelementptr inbounds %"class.std::_Deque_base.16", %"class.std::_Deque_base.16"* %3, i32 0, i32 0
  %19 = getelementptr inbounds %"struct.std::_Deque_base<std::function<void ()>, std::allocator<std::function<void ()> > >::_Deque_impl", %"struct.std::_Deque_base<std::function<void ()>, std::allocator<std::function<void ()> > >::_Deque_impl"* %18, i32 0, i32 0
  %20 = load %"class.std::function"**, %"class.std::function"*** %19, align 8
  %21 = getelementptr inbounds %"class.std::_Deque_base.16", %"class.std::_Deque_base.16"* %3, i32 0, i32 0
  %22 = getelementptr inbounds %"struct.std::_Deque_base<std::function<void ()>, std::allocator<std::function<void ()> > >::_Deque_impl", %"struct.std::_Deque_base<std::function<void ()>, std::allocator<std::function<void ()> > >::_Deque_impl"* %21, i32 0, i32 1
  %23 = load i64, i64* %22, align 8
  call void @_ZNSt11_Deque_baseISt8functionIFvvEESaIS2_EE17_M_deallocate_mapEPPS2_m(%"class.std::_Deque_base.16"* %3, %"class.std::function"** %20, i64 %23) #3
  br label %24

; <label>:24:                                     ; preds = %8, %1
  %25 = getelementptr inbounds %"class.std::_Deque_base.16", %"class.std::_Deque_base.16"* %3, i32 0, i32 0
  call void @_ZNSt11_Deque_baseISt8functionIFvvEESaIS2_EE11_Deque_implD2Ev(%"struct.std::_Deque_base<std::function<void ()>, std::allocator<std::function<void ()> > >::_Deque_impl"* %25) #3
  ret void
}

; Function Attrs: noinline uwtable
define linkonce_odr void @_ZNSt5dequeISt8functionIFvvEESaIS2_EE19_M_destroy_data_auxESt15_Deque_iteratorIS2_RS2_PS2_ES8_(%"class.std::deque.15"*, %"struct.std::_Deque_iterator.20"*, %"struct.std::_Deque_iterator.20"*) #0 comdat align 2 {
  %4 = alloca %"class.std::deque.15"*, align 8
  %5 = alloca %"class.std::function"**, align 8
  store %"class.std::deque.15"* %0, %"class.std::deque.15"** %4, align 8
  %6 = load %"class.std::deque.15"*, %"class.std::deque.15"** %4, align 8
  %7 = getelementptr inbounds %"struct.std::_Deque_iterator.20", %"struct.std::_Deque_iterator.20"* %1, i32 0, i32 3
  %8 = load %"class.std::function"**, %"class.std::function"*** %7, align 8
  %9 = getelementptr inbounds %"class.std::function"*, %"class.std::function"** %8, i64 1
  store %"class.std::function"** %9, %"class.std::function"*** %5, align 8
  br label %10

; <label>:10:                                     ; preds = %24, %3
  %11 = load %"class.std::function"**, %"class.std::function"*** %5, align 8
  %12 = getelementptr inbounds %"struct.std::_Deque_iterator.20", %"struct.std::_Deque_iterator.20"* %2, i32 0, i32 3
  %13 = load %"class.std::function"**, %"class.std::function"*** %12, align 8
  %14 = icmp ult %"class.std::function"** %11, %13
  br i1 %14, label %15, label %27

; <label>:15:                                     ; preds = %10
  %16 = load %"class.std::function"**, %"class.std::function"*** %5, align 8
  %17 = load %"class.std::function"*, %"class.std::function"** %16, align 8
  %18 = load %"class.std::function"**, %"class.std::function"*** %5, align 8
  %19 = load %"class.std::function"*, %"class.std::function"** %18, align 8
  %20 = call i64 @_ZNSt5dequeISt8functionIFvvEESaIS2_EE14_S_buffer_sizeEv() #3
  %21 = getelementptr inbounds %"class.std::function", %"class.std::function"* %19, i64 %20
  %22 = bitcast %"class.std::deque.15"* %6 to %"class.std::_Deque_base.16"*
  %23 = call dereferenceable(1) %"class.std::allocator.17"* @_ZNSt11_Deque_baseISt8functionIFvvEESaIS2_EE19_M_get_Tp_allocatorEv(%"class.std::_Deque_base.16"* %22) #3
  call void @_ZSt8_DestroyIPSt8functionIFvvEES2_EvT_S4_RSaIT0_E(%"class.std::function"* %17, %"class.std::function"* %21, %"class.std::allocator.17"* dereferenceable(1) %23)
  br label %24

; <label>:24:                                     ; preds = %15
  %25 = load %"class.std::function"**, %"class.std::function"*** %5, align 8
  %26 = getelementptr inbounds %"class.std::function"*, %"class.std::function"** %25, i32 1
  store %"class.std::function"** %26, %"class.std::function"*** %5, align 8
  br label %10

; <label>:27:                                     ; preds = %10
  %28 = getelementptr inbounds %"struct.std::_Deque_iterator.20", %"struct.std::_Deque_iterator.20"* %1, i32 0, i32 3
  %29 = load %"class.std::function"**, %"class.std::function"*** %28, align 8
  %30 = getelementptr inbounds %"struct.std::_Deque_iterator.20", %"struct.std::_Deque_iterator.20"* %2, i32 0, i32 3
  %31 = load %"class.std::function"**, %"class.std::function"*** %30, align 8
  %32 = icmp ne %"class.std::function"** %29, %31
  br i1 %32, label %33, label %46

; <label>:33:                                     ; preds = %27
  %34 = getelementptr inbounds %"struct.std::_Deque_iterator.20", %"struct.std::_Deque_iterator.20"* %1, i32 0, i32 0
  %35 = load %"class.std::function"*, %"class.std::function"** %34, align 8
  %36 = getelementptr inbounds %"struct.std::_Deque_iterator.20", %"struct.std::_Deque_iterator.20"* %1, i32 0, i32 2
  %37 = load %"class.std::function"*, %"class.std::function"** %36, align 8
  %38 = bitcast %"class.std::deque.15"* %6 to %"class.std::_Deque_base.16"*
  %39 = call dereferenceable(1) %"class.std::allocator.17"* @_ZNSt11_Deque_baseISt8functionIFvvEESaIS2_EE19_M_get_Tp_allocatorEv(%"class.std::_Deque_base.16"* %38) #3
  call void @_ZSt8_DestroyIPSt8functionIFvvEES2_EvT_S4_RSaIT0_E(%"class.std::function"* %35, %"class.std::function"* %37, %"class.std::allocator.17"* dereferenceable(1) %39)
  %40 = getelementptr inbounds %"struct.std::_Deque_iterator.20", %"struct.std::_Deque_iterator.20"* %2, i32 0, i32 1
  %41 = load %"class.std::function"*, %"class.std::function"** %40, align 8
  %42 = getelementptr inbounds %"struct.std::_Deque_iterator.20", %"struct.std::_Deque_iterator.20"* %2, i32 0, i32 0
  %43 = load %"class.std::function"*, %"class.std::function"** %42, align 8
  %44 = bitcast %"class.std::deque.15"* %6 to %"class.std::_Deque_base.16"*
  %45 = call dereferenceable(1) %"class.std::allocator.17"* @_ZNSt11_Deque_baseISt8functionIFvvEESaIS2_EE19_M_get_Tp_allocatorEv(%"class.std::_Deque_base.16"* %44) #3
  call void @_ZSt8_DestroyIPSt8functionIFvvEES2_EvT_S4_RSaIT0_E(%"class.std::function"* %41, %"class.std::function"* %43, %"class.std::allocator.17"* dereferenceable(1) %45)
  br label %53

; <label>:46:                                     ; preds = %27
  %47 = getelementptr inbounds %"struct.std::_Deque_iterator.20", %"struct.std::_Deque_iterator.20"* %1, i32 0, i32 0
  %48 = load %"class.std::function"*, %"class.std::function"** %47, align 8
  %49 = getelementptr inbounds %"struct.std::_Deque_iterator.20", %"struct.std::_Deque_iterator.20"* %2, i32 0, i32 0
  %50 = load %"class.std::function"*, %"class.std::function"** %49, align 8
  %51 = bitcast %"class.std::deque.15"* %6 to %"class.std::_Deque_base.16"*
  %52 = call dereferenceable(1) %"class.std::allocator.17"* @_ZNSt11_Deque_baseISt8functionIFvvEESaIS2_EE19_M_get_Tp_allocatorEv(%"class.std::_Deque_base.16"* %51) #3
  call void @_ZSt8_DestroyIPSt8functionIFvvEES2_EvT_S4_RSaIT0_E(%"class.std::function"* %48, %"class.std::function"* %50, %"class.std::allocator.17"* dereferenceable(1) %52)
  br label %53

; <label>:53:                                     ; preds = %46, %33
  ret void
}

; Function Attrs: noinline uwtable
define linkonce_odr void @_ZSt8_DestroyIPSt8functionIFvvEES2_EvT_S4_RSaIT0_E(%"class.std::function"*, %"class.std::function"*, %"class.std::allocator.17"* dereferenceable(1)) #0 comdat {
  %4 = alloca %"class.std::function"*, align 8
  %5 = alloca %"class.std::function"*, align 8
  %6 = alloca %"class.std::allocator.17"*, align 8
  store %"class.std::function"* %0, %"class.std::function"** %4, align 8
  store %"class.std::function"* %1, %"class.std::function"** %5, align 8
  store %"class.std::allocator.17"* %2, %"class.std::allocator.17"** %6, align 8
  %7 = load %"class.std::function"*, %"class.std::function"** %4, align 8
  %8 = load %"class.std::function"*, %"class.std::function"** %5, align 8
  call void @_ZSt8_DestroyIPSt8functionIFvvEEEvT_S4_(%"class.std::function"* %7, %"class.std::function"* %8)
  ret void
}

; Function Attrs: noinline nounwind uwtable
define linkonce_odr i64 @_ZNSt5dequeISt8functionIFvvEESaIS2_EE14_S_buffer_sizeEv() #5 comdat align 2 personality i8* bitcast (i32 (...)* @__gxx_personality_v0 to i8*) {
  %1 = invoke i64 @_ZSt16__deque_buf_sizem(i64 32)
          to label %2 unwind label %3

; <label>:2:                                      ; preds = %0
  ret i64 %1

; <label>:3:                                      ; preds = %0
  %4 = landingpad { i8*, i32 }
          catch i8* null
  %5 = extractvalue { i8*, i32 } %4, 0
  call void @__clang_call_terminate(i8* %5) #11
  unreachable
}

; Function Attrs: noinline uwtable
define linkonce_odr void @_ZSt8_DestroyIPSt8functionIFvvEEEvT_S4_(%"class.std::function"*, %"class.std::function"*) #0 comdat {
  %3 = alloca %"class.std::function"*, align 8
  %4 = alloca %"class.std::function"*, align 8
  store %"class.std::function"* %0, %"class.std::function"** %3, align 8
  store %"class.std::function"* %1, %"class.std::function"** %4, align 8
  %5 = load %"class.std::function"*, %"class.std::function"** %3, align 8
  %6 = load %"class.std::function"*, %"class.std::function"** %4, align 8
  call void @_ZNSt12_Destroy_auxILb0EE9__destroyIPSt8functionIFvvEEEEvT_S6_(%"class.std::function"* %5, %"class.std::function"* %6)
  ret void
}

; Function Attrs: noinline uwtable
define linkonce_odr void @_ZNSt12_Destroy_auxILb0EE9__destroyIPSt8functionIFvvEEEEvT_S6_(%"class.std::function"*, %"class.std::function"*) #0 comdat align 2 {
  %3 = alloca %"class.std::function"*, align 8
  %4 = alloca %"class.std::function"*, align 8
  store %"class.std::function"* %0, %"class.std::function"** %3, align 8
  store %"class.std::function"* %1, %"class.std::function"** %4, align 8
  br label %5

; <label>:5:                                      ; preds = %12, %2
  %6 = load %"class.std::function"*, %"class.std::function"** %3, align 8
  %7 = load %"class.std::function"*, %"class.std::function"** %4, align 8
  %8 = icmp ne %"class.std::function"* %6, %7
  br i1 %8, label %9, label %15

; <label>:9:                                      ; preds = %5
  %10 = load %"class.std::function"*, %"class.std::function"** %3, align 8
  %11 = call %"class.std::function"* @_ZSt11__addressofISt8functionIFvvEEEPT_RS3_(%"class.std::function"* dereferenceable(32) %10) #3
  call void @_ZSt8_DestroyISt8functionIFvvEEEvPT_(%"class.std::function"* %11)
  br label %12

; <label>:12:                                     ; preds = %9
  %13 = load %"class.std::function"*, %"class.std::function"** %3, align 8
  %14 = getelementptr inbounds %"class.std::function", %"class.std::function"* %13, i32 1
  store %"class.std::function"* %14, %"class.std::function"** %3, align 8
  br label %5

; <label>:15:                                     ; preds = %5
  ret void
}

; Function Attrs: noinline nounwind uwtable
define linkonce_odr void @_ZSt8_DestroyISt8functionIFvvEEEvPT_(%"class.std::function"*) #5 comdat {
  %2 = alloca %"class.std::function"*, align 8
  store %"class.std::function"* %0, %"class.std::function"** %2, align 8
  %3 = load %"class.std::function"*, %"class.std::function"** %2, align 8
  call void @_ZNSt8functionIFvvEED2Ev(%"class.std::function"* %3) #3
  ret void
}

; Function Attrs: noinline nounwind uwtable
define linkonce_odr %"class.std::function"* @_ZSt11__addressofISt8functionIFvvEEEPT_RS3_(%"class.std::function"* dereferenceable(32)) #5 comdat {
  %2 = alloca %"class.std::function"*, align 8
  store %"class.std::function"* %0, %"class.std::function"** %2, align 8
  %3 = load %"class.std::function"*, %"class.std::function"** %2, align 8
  %4 = bitcast %"class.std::function"* %3 to i8*
  %5 = bitcast i8* %4 to %"class.std::function"*
  ret %"class.std::function"* %5
}

; Function Attrs: noinline nounwind uwtable
define linkonce_odr zeroext i1 @_ZNSt13__atomic_baseIbEaSEb(%"struct.std::__atomic_base"*, i1 zeroext) #5 comdat align 2 personality i32 (...)* @__gxx_personality_v0 {
  %3 = alloca %"struct.std::__atomic_base"*, align 8
  %4 = alloca i8, align 1
  %5 = alloca i32, align 4
  %6 = alloca i32, align 4
  %7 = alloca i8, align 1
  %8 = alloca %"struct.std::__atomic_base"*, align 8
  %9 = alloca i8, align 1
  store %"struct.std::__atomic_base"* %0, %"struct.std::__atomic_base"** %8, align 8
  %10 = zext i1 %1 to i8
  store i8 %10, i8* %9, align 1
  %11 = load %"struct.std::__atomic_base"*, %"struct.std::__atomic_base"** %8, align 8
  %12 = load i8, i8* %9, align 1
  %13 = trunc i8 %12 to i1
  store %"struct.std::__atomic_base"* %11, %"struct.std::__atomic_base"** %3, align 8
  %14 = zext i1 %13 to i8
  store i8 %14, i8* %4, align 1
  store i32 5, i32* %5, align 4
  %15 = load %"struct.std::__atomic_base"*, %"struct.std::__atomic_base"** %3, align 8
  %16 = load i32, i32* %5, align 4
  %17 = invoke i32 @_ZStanSt12memory_orderSt23__memory_order_modifier(i32 %16, i32 65535)
          to label %18 unwind label %30

; <label>:18:                                     ; preds = %2
  store i32 %17, i32* %6, align 4
  %19 = getelementptr inbounds %"struct.std::__atomic_base", %"struct.std::__atomic_base"* %15, i32 0, i32 0
  %20 = load i32, i32* %5, align 4
  %21 = load i8, i8* %4, align 1
  %22 = trunc i8 %21 to i1
  %23 = zext i1 %22 to i8
  store i8 %23, i8* %7, align 1
  switch i32 %20, label %24 [
    i32 3, label %26
    i32 5, label %28
  ]

; <label>:24:                                     ; preds = %18
  %25 = load i8, i8* %7, align 1
  store atomic i8 %25, i8* %19 monotonic, align 1
  br label %33

; <label>:26:                                     ; preds = %18
  %27 = load i8, i8* %7, align 1
  store atomic i8 %27, i8* %19 release, align 1
  br label %33

; <label>:28:                                     ; preds = %18
  %29 = load i8, i8* %7, align 1
  store atomic i8 %29, i8* %19 seq_cst, align 1
  br label %33

; <label>:30:                                     ; preds = %2
  %31 = landingpad { i8*, i32 }
          catch i8* null
  %32 = extractvalue { i8*, i32 } %31, 0
  call void @__clang_call_terminate(i8* %32) #11
  unreachable

; <label>:33:                                     ; preds = %24, %26, %28
  %34 = load i8, i8* %9, align 1
  %35 = trunc i8 %34 to i1
  ret i1 %35
}

; Function Attrs: noinline nounwind uwtable
define linkonce_odr i32 @_ZStanSt12memory_orderSt23__memory_order_modifier(i32, i32) #5 comdat {
  %3 = alloca i32, align 4
  %4 = alloca i32, align 4
  store i32 %0, i32* %3, align 4
  store i32 %1, i32* %4, align 4
  %5 = load i32, i32* %3, align 4
  %6 = load i32, i32* %4, align 4
  %7 = and i32 %5, %6
  ret i32 %7
}

; Function Attrs: noinline uwtable
define linkonce_odr void @_ZNSt16allocator_traitsISaISt6threadEE9constructIS0_JMN4MARC10ThreadPoolEFvPSt6atomicIbEEPS5_S8_EEEvRS1_PT_DpOT0_(%"class.std::allocator.10"* dereferenceable(1), %"class.std::thread"*, { i64, i64 }* dereferenceable(16), %"class.MARC::ThreadPool"** dereferenceable(8), %"struct.std::atomic"** dereferenceable(8)) #0 comdat align 2 {
  %6 = alloca %"class.std::allocator.10"*, align 8
  %7 = alloca %"class.std::thread"*, align 8
  %8 = alloca { i64, i64 }*, align 8
  %9 = alloca %"class.MARC::ThreadPool"**, align 8
  %10 = alloca %"struct.std::atomic"**, align 8
  store %"class.std::allocator.10"* %0, %"class.std::allocator.10"** %6, align 8
  store %"class.std::thread"* %1, %"class.std::thread"** %7, align 8
  store { i64, i64 }* %2, { i64, i64 }** %8, align 8
  store %"class.MARC::ThreadPool"** %3, %"class.MARC::ThreadPool"*** %9, align 8
  store %"struct.std::atomic"** %4, %"struct.std::atomic"*** %10, align 8
  %11 = load %"class.std::allocator.10"*, %"class.std::allocator.10"** %6, align 8
  %12 = bitcast %"class.std::allocator.10"* %11 to %"class.__gnu_cxx::new_allocator.11"*
  %13 = load %"class.std::thread"*, %"class.std::thread"** %7, align 8
  %14 = load { i64, i64 }*, { i64, i64 }** %8, align 8
  %15 = call dereferenceable(16) { i64, i64 }* @_ZSt7forwardIMN4MARC10ThreadPoolEFvPSt6atomicIbEEEOT_RNSt16remove_referenceIS7_E4typeE({ i64, i64 }* dereferenceable(16) %14) #3
  %16 = load %"class.MARC::ThreadPool"**, %"class.MARC::ThreadPool"*** %9, align 8
  %17 = call dereferenceable(8) %"class.MARC::ThreadPool"** @_ZSt7forwardIPN4MARC10ThreadPoolEEOT_RNSt16remove_referenceIS3_E4typeE(%"class.MARC::ThreadPool"** dereferenceable(8) %16) #3
  %18 = load %"struct.std::atomic"**, %"struct.std::atomic"*** %10, align 8
  %19 = call dereferenceable(8) %"struct.std::atomic"** @_ZSt7forwardIPSt6atomicIbEEOT_RNSt16remove_referenceIS3_E4typeE(%"struct.std::atomic"** dereferenceable(8) %18) #3
  call void @_ZN9__gnu_cxx13new_allocatorISt6threadE9constructIS1_JMN4MARC10ThreadPoolEFvPSt6atomicIbEEPS5_S8_EEEvPT_DpOT0_(%"class.__gnu_cxx::new_allocator.11"* %12, %"class.std::thread"* %13, { i64, i64 }* dereferenceable(16) %15, %"class.MARC::ThreadPool"** dereferenceable(8) %17, %"struct.std::atomic"** dereferenceable(8) %19)
  ret void
}

; Function Attrs: noinline nounwind uwtable
define linkonce_odr dereferenceable(16) { i64, i64 }* @_ZSt7forwardIMN4MARC10ThreadPoolEFvPSt6atomicIbEEEOT_RNSt16remove_referenceIS7_E4typeE({ i64, i64 }* dereferenceable(16)) #5 comdat {
  %2 = alloca { i64, i64 }*, align 8
  store { i64, i64 }* %0, { i64, i64 }** %2, align 8
  %3 = load { i64, i64 }*, { i64, i64 }** %2, align 8
  ret { i64, i64 }* %3
}

; Function Attrs: noinline nounwind uwtable
define linkonce_odr dereferenceable(8) %"class.MARC::ThreadPool"** @_ZSt7forwardIPN4MARC10ThreadPoolEEOT_RNSt16remove_referenceIS3_E4typeE(%"class.MARC::ThreadPool"** dereferenceable(8)) #5 comdat {
  %2 = alloca %"class.MARC::ThreadPool"**, align 8
  store %"class.MARC::ThreadPool"** %0, %"class.MARC::ThreadPool"*** %2, align 8
  %3 = load %"class.MARC::ThreadPool"**, %"class.MARC::ThreadPool"*** %2, align 8
  ret %"class.MARC::ThreadPool"** %3
}

; Function Attrs: noinline nounwind uwtable
define linkonce_odr dereferenceable(8) %"struct.std::atomic"** @_ZSt7forwardIPSt6atomicIbEEOT_RNSt16remove_referenceIS3_E4typeE(%"struct.std::atomic"** dereferenceable(8)) #5 comdat {
  %2 = alloca %"struct.std::atomic"**, align 8
  store %"struct.std::atomic"** %0, %"struct.std::atomic"*** %2, align 8
  %3 = load %"struct.std::atomic"**, %"struct.std::atomic"*** %2, align 8
  ret %"struct.std::atomic"** %3
}

; Function Attrs: noinline uwtable
define linkonce_odr void @_ZNSt6vectorISt6threadSaIS0_EE19_M_emplace_back_auxIJMN4MARC10ThreadPoolEFvPSt6atomicIbEEPS5_S8_EEEvDpOT_(%"class.std::vector"*, { i64, i64 }* dereferenceable(16), %"class.MARC::ThreadPool"** dereferenceable(8), %"struct.std::atomic"** dereferenceable(8)) #0 comdat align 2 personality i8* bitcast (i32 (...)* @__gxx_personality_v0 to i8*) {
  %5 = alloca %"class.std::vector"*, align 8
  %6 = alloca { i64, i64 }*, align 8
  %7 = alloca %"class.MARC::ThreadPool"**, align 8
  %8 = alloca %"struct.std::atomic"**, align 8
  %9 = alloca i64, align 8
  %10 = alloca %"class.std::thread"*, align 8
  %11 = alloca %"class.std::thread"*, align 8
  %12 = alloca i8*
  %13 = alloca i32
  store %"class.std::vector"* %0, %"class.std::vector"** %5, align 8
  store { i64, i64 }* %1, { i64, i64 }** %6, align 8
  store %"class.MARC::ThreadPool"** %2, %"class.MARC::ThreadPool"*** %7, align 8
  store %"struct.std::atomic"** %3, %"struct.std::atomic"*** %8, align 8
  %14 = load %"class.std::vector"*, %"class.std::vector"** %5, align 8
  %15 = call i64 @_ZNKSt6vectorISt6threadSaIS0_EE12_M_check_lenEmPKc(%"class.std::vector"* %14, i64 1, i8* getelementptr inbounds ([28 x i8], [28 x i8]* @.str.3, i32 0, i32 0))
  store i64 %15, i64* %9, align 8
  %16 = bitcast %"class.std::vector"* %14 to %"struct.std::_Vector_base"*
  %17 = load i64, i64* %9, align 8
  %18 = call %"class.std::thread"* @_ZNSt12_Vector_baseISt6threadSaIS0_EE11_M_allocateEm(%"struct.std::_Vector_base"* %16, i64 %17)
  store %"class.std::thread"* %18, %"class.std::thread"** %10, align 8
  %19 = load %"class.std::thread"*, %"class.std::thread"** %10, align 8
  store %"class.std::thread"* %19, %"class.std::thread"** %11, align 8
  %20 = bitcast %"class.std::vector"* %14 to %"struct.std::_Vector_base"*
  %21 = getelementptr inbounds %"struct.std::_Vector_base", %"struct.std::_Vector_base"* %20, i32 0, i32 0
  %22 = bitcast %"struct.std::_Vector_base<std::thread, std::allocator<std::thread> >::_Vector_impl"* %21 to %"class.std::allocator.10"*
  %23 = load %"class.std::thread"*, %"class.std::thread"** %10, align 8
  %24 = call i64 @_ZNKSt6vectorISt6threadSaIS0_EE4sizeEv(%"class.std::vector"* %14) #3
  %25 = getelementptr inbounds %"class.std::thread", %"class.std::thread"* %23, i64 %24
  %26 = load { i64, i64 }*, { i64, i64 }** %6, align 8
  %27 = call dereferenceable(16) { i64, i64 }* @_ZSt7forwardIMN4MARC10ThreadPoolEFvPSt6atomicIbEEEOT_RNSt16remove_referenceIS7_E4typeE({ i64, i64 }* dereferenceable(16) %26) #3
  %28 = load %"class.MARC::ThreadPool"**, %"class.MARC::ThreadPool"*** %7, align 8
  %29 = call dereferenceable(8) %"class.MARC::ThreadPool"** @_ZSt7forwardIPN4MARC10ThreadPoolEEOT_RNSt16remove_referenceIS3_E4typeE(%"class.MARC::ThreadPool"** dereferenceable(8) %28) #3
  %30 = load %"struct.std::atomic"**, %"struct.std::atomic"*** %8, align 8
  %31 = call dereferenceable(8) %"struct.std::atomic"** @_ZSt7forwardIPSt6atomicIbEEOT_RNSt16remove_referenceIS3_E4typeE(%"struct.std::atomic"** dereferenceable(8) %30) #3
  invoke void @_ZNSt16allocator_traitsISaISt6threadEE9constructIS0_JMN4MARC10ThreadPoolEFvPSt6atomicIbEEPS5_S8_EEEvRS1_PT_DpOT0_(%"class.std::allocator.10"* dereferenceable(1) %22, %"class.std::thread"* %25, { i64, i64 }* dereferenceable(16) %27, %"class.MARC::ThreadPool"** dereferenceable(8) %29, %"struct.std::atomic"** dereferenceable(8) %31)
          to label %32 unwind label %48

; <label>:32:                                     ; preds = %4
  store %"class.std::thread"* null, %"class.std::thread"** %11, align 8
  %33 = bitcast %"class.std::vector"* %14 to %"struct.std::_Vector_base"*
  %34 = getelementptr inbounds %"struct.std::_Vector_base", %"struct.std::_Vector_base"* %33, i32 0, i32 0
  %35 = getelementptr inbounds %"struct.std::_Vector_base<std::thread, std::allocator<std::thread> >::_Vector_impl", %"struct.std::_Vector_base<std::thread, std::allocator<std::thread> >::_Vector_impl"* %34, i32 0, i32 0
  %36 = load %"class.std::thread"*, %"class.std::thread"** %35, align 8
  %37 = bitcast %"class.std::vector"* %14 to %"struct.std::_Vector_base"*
  %38 = getelementptr inbounds %"struct.std::_Vector_base", %"struct.std::_Vector_base"* %37, i32 0, i32 0
  %39 = getelementptr inbounds %"struct.std::_Vector_base<std::thread, std::allocator<std::thread> >::_Vector_impl", %"struct.std::_Vector_base<std::thread, std::allocator<std::thread> >::_Vector_impl"* %38, i32 0, i32 1
  %40 = load %"class.std::thread"*, %"class.std::thread"** %39, align 8
  %41 = load %"class.std::thread"*, %"class.std::thread"** %10, align 8
  %42 = bitcast %"class.std::vector"* %14 to %"struct.std::_Vector_base"*
  %43 = call dereferenceable(1) %"class.std::allocator.10"* @_ZNSt12_Vector_baseISt6threadSaIS0_EE19_M_get_Tp_allocatorEv(%"struct.std::_Vector_base"* %42) #3
  %44 = invoke %"class.std::thread"* @_ZSt34__uninitialized_move_if_noexcept_aIPSt6threadS1_SaIS0_EET0_T_S4_S3_RT1_(%"class.std::thread"* %36, %"class.std::thread"* %40, %"class.std::thread"* %41, %"class.std::allocator.10"* dereferenceable(1) %43)
          to label %45 unwind label %48

; <label>:45:                                     ; preds = %32
  store %"class.std::thread"* %44, %"class.std::thread"** %11, align 8
  %46 = load %"class.std::thread"*, %"class.std::thread"** %11, align 8
  %47 = getelementptr inbounds %"class.std::thread", %"class.std::thread"* %46, i32 1
  store %"class.std::thread"* %47, %"class.std::thread"** %11, align 8
  br label %81

; <label>:48:                                     ; preds = %32, %4
  %49 = landingpad { i8*, i32 }
          catch i8* null
  %50 = extractvalue { i8*, i32 } %49, 0
  store i8* %50, i8** %12, align 8
  %51 = extractvalue { i8*, i32 } %49, 1
  store i32 %51, i32* %13, align 4
  br label %52

; <label>:52:                                     ; preds = %48
  %53 = load i8*, i8** %12, align 8
  %54 = call i8* @__cxa_begin_catch(i8* %53) #3
  %55 = load %"class.std::thread"*, %"class.std::thread"** %11, align 8
  %56 = icmp ne %"class.std::thread"* %55, null
  br i1 %56, label %69, label %57

; <label>:57:                                     ; preds = %52
  %58 = bitcast %"class.std::vector"* %14 to %"struct.std::_Vector_base"*
  %59 = getelementptr inbounds %"struct.std::_Vector_base", %"struct.std::_Vector_base"* %58, i32 0, i32 0
  %60 = bitcast %"struct.std::_Vector_base<std::thread, std::allocator<std::thread> >::_Vector_impl"* %59 to %"class.std::allocator.10"*
  %61 = load %"class.std::thread"*, %"class.std::thread"** %10, align 8
  %62 = call i64 @_ZNKSt6vectorISt6threadSaIS0_EE4sizeEv(%"class.std::vector"* %14) #3
  %63 = getelementptr inbounds %"class.std::thread", %"class.std::thread"* %61, i64 %62
  invoke void @_ZNSt16allocator_traitsISaISt6threadEE7destroyIS0_EEvRS1_PT_(%"class.std::allocator.10"* dereferenceable(1) %60, %"class.std::thread"* %63)
          to label %64 unwind label %65

; <label>:64:                                     ; preds = %57
  br label %75

; <label>:65:                                     ; preds = %79, %75, %69, %57
  %66 = landingpad { i8*, i32 }
          cleanup
  %67 = extractvalue { i8*, i32 } %66, 0
  store i8* %67, i8** %12, align 8
  %68 = extractvalue { i8*, i32 } %66, 1
  store i32 %68, i32* %13, align 4
  invoke void @__cxa_end_catch()
          to label %80 unwind label %128

; <label>:69:                                     ; preds = %52
  %70 = load %"class.std::thread"*, %"class.std::thread"** %10, align 8
  %71 = load %"class.std::thread"*, %"class.std::thread"** %11, align 8
  %72 = bitcast %"class.std::vector"* %14 to %"struct.std::_Vector_base"*
  %73 = call dereferenceable(1) %"class.std::allocator.10"* @_ZNSt12_Vector_baseISt6threadSaIS0_EE19_M_get_Tp_allocatorEv(%"struct.std::_Vector_base"* %72) #3
  invoke void @_ZSt8_DestroyIPSt6threadS0_EvT_S2_RSaIT0_E(%"class.std::thread"* %70, %"class.std::thread"* %71, %"class.std::allocator.10"* dereferenceable(1) %73)
          to label %74 unwind label %65

; <label>:74:                                     ; preds = %69
  br label %75

; <label>:75:                                     ; preds = %74, %64
  %76 = bitcast %"class.std::vector"* %14 to %"struct.std::_Vector_base"*
  %77 = load %"class.std::thread"*, %"class.std::thread"** %10, align 8
  %78 = load i64, i64* %9, align 8
  invoke void @_ZNSt12_Vector_baseISt6threadSaIS0_EE13_M_deallocateEPS0_m(%"struct.std::_Vector_base"* %76, %"class.std::thread"* %77, i64 %78)
          to label %79 unwind label %65

; <label>:79:                                     ; preds = %75
  invoke void @__cxa_rethrow() #15
          to label %131 unwind label %65

; <label>:80:                                     ; preds = %65
  br label %123

; <label>:81:                                     ; preds = %45
  %82 = bitcast %"class.std::vector"* %14 to %"struct.std::_Vector_base"*
  %83 = getelementptr inbounds %"struct.std::_Vector_base", %"struct.std::_Vector_base"* %82, i32 0, i32 0
  %84 = getelementptr inbounds %"struct.std::_Vector_base<std::thread, std::allocator<std::thread> >::_Vector_impl", %"struct.std::_Vector_base<std::thread, std::allocator<std::thread> >::_Vector_impl"* %83, i32 0, i32 0
  %85 = load %"class.std::thread"*, %"class.std::thread"** %84, align 8
  %86 = bitcast %"class.std::vector"* %14 to %"struct.std::_Vector_base"*
  %87 = getelementptr inbounds %"struct.std::_Vector_base", %"struct.std::_Vector_base"* %86, i32 0, i32 0
  %88 = getelementptr inbounds %"struct.std::_Vector_base<std::thread, std::allocator<std::thread> >::_Vector_impl", %"struct.std::_Vector_base<std::thread, std::allocator<std::thread> >::_Vector_impl"* %87, i32 0, i32 1
  %89 = load %"class.std::thread"*, %"class.std::thread"** %88, align 8
  %90 = bitcast %"class.std::vector"* %14 to %"struct.std::_Vector_base"*
  %91 = call dereferenceable(1) %"class.std::allocator.10"* @_ZNSt12_Vector_baseISt6threadSaIS0_EE19_M_get_Tp_allocatorEv(%"struct.std::_Vector_base"* %90) #3
  call void @_ZSt8_DestroyIPSt6threadS0_EvT_S2_RSaIT0_E(%"class.std::thread"* %85, %"class.std::thread"* %89, %"class.std::allocator.10"* dereferenceable(1) %91)
  %92 = bitcast %"class.std::vector"* %14 to %"struct.std::_Vector_base"*
  %93 = bitcast %"class.std::vector"* %14 to %"struct.std::_Vector_base"*
  %94 = getelementptr inbounds %"struct.std::_Vector_base", %"struct.std::_Vector_base"* %93, i32 0, i32 0
  %95 = getelementptr inbounds %"struct.std::_Vector_base<std::thread, std::allocator<std::thread> >::_Vector_impl", %"struct.std::_Vector_base<std::thread, std::allocator<std::thread> >::_Vector_impl"* %94, i32 0, i32 0
  %96 = load %"class.std::thread"*, %"class.std::thread"** %95, align 8
  %97 = bitcast %"class.std::vector"* %14 to %"struct.std::_Vector_base"*
  %98 = getelementptr inbounds %"struct.std::_Vector_base", %"struct.std::_Vector_base"* %97, i32 0, i32 0
  %99 = getelementptr inbounds %"struct.std::_Vector_base<std::thread, std::allocator<std::thread> >::_Vector_impl", %"struct.std::_Vector_base<std::thread, std::allocator<std::thread> >::_Vector_impl"* %98, i32 0, i32 2
  %100 = load %"class.std::thread"*, %"class.std::thread"** %99, align 8
  %101 = bitcast %"class.std::vector"* %14 to %"struct.std::_Vector_base"*
  %102 = getelementptr inbounds %"struct.std::_Vector_base", %"struct.std::_Vector_base"* %101, i32 0, i32 0
  %103 = getelementptr inbounds %"struct.std::_Vector_base<std::thread, std::allocator<std::thread> >::_Vector_impl", %"struct.std::_Vector_base<std::thread, std::allocator<std::thread> >::_Vector_impl"* %102, i32 0, i32 0
  %104 = load %"class.std::thread"*, %"class.std::thread"** %103, align 8
  %105 = ptrtoint %"class.std::thread"* %100 to i64
  %106 = ptrtoint %"class.std::thread"* %104 to i64
  %107 = sub i64 %105, %106
  %108 = sdiv exact i64 %107, 8
  call void @_ZNSt12_Vector_baseISt6threadSaIS0_EE13_M_deallocateEPS0_m(%"struct.std::_Vector_base"* %92, %"class.std::thread"* %96, i64 %108)
  %109 = load %"class.std::thread"*, %"class.std::thread"** %10, align 8
  %110 = bitcast %"class.std::vector"* %14 to %"struct.std::_Vector_base"*
  %111 = getelementptr inbounds %"struct.std::_Vector_base", %"struct.std::_Vector_base"* %110, i32 0, i32 0
  %112 = getelementptr inbounds %"struct.std::_Vector_base<std::thread, std::allocator<std::thread> >::_Vector_impl", %"struct.std::_Vector_base<std::thread, std::allocator<std::thread> >::_Vector_impl"* %111, i32 0, i32 0
  store %"class.std::thread"* %109, %"class.std::thread"** %112, align 8
  %113 = load %"class.std::thread"*, %"class.std::thread"** %11, align 8
  %114 = bitcast %"class.std::vector"* %14 to %"struct.std::_Vector_base"*
  %115 = getelementptr inbounds %"struct.std::_Vector_base", %"struct.std::_Vector_base"* %114, i32 0, i32 0
  %116 = getelementptr inbounds %"struct.std::_Vector_base<std::thread, std::allocator<std::thread> >::_Vector_impl", %"struct.std::_Vector_base<std::thread, std::allocator<std::thread> >::_Vector_impl"* %115, i32 0, i32 1
  store %"class.std::thread"* %113, %"class.std::thread"** %116, align 8
  %117 = load %"class.std::thread"*, %"class.std::thread"** %10, align 8
  %118 = load i64, i64* %9, align 8
  %119 = getelementptr inbounds %"class.std::thread", %"class.std::thread"* %117, i64 %118
  %120 = bitcast %"class.std::vector"* %14 to %"struct.std::_Vector_base"*
  %121 = getelementptr inbounds %"struct.std::_Vector_base", %"struct.std::_Vector_base"* %120, i32 0, i32 0
  %122 = getelementptr inbounds %"struct.std::_Vector_base<std::thread, std::allocator<std::thread> >::_Vector_impl", %"struct.std::_Vector_base<std::thread, std::allocator<std::thread> >::_Vector_impl"* %121, i32 0, i32 2
  store %"class.std::thread"* %119, %"class.std::thread"** %122, align 8
  ret void

; <label>:123:                                    ; preds = %80
  %124 = load i8*, i8** %12, align 8
  %125 = load i32, i32* %13, align 4
  %126 = insertvalue { i8*, i32 } undef, i8* %124, 0
  %127 = insertvalue { i8*, i32 } %126, i32 %125, 1
  resume { i8*, i32 } %127

; <label>:128:                                    ; preds = %65
  %129 = landingpad { i8*, i32 }
          catch i8* null
  %130 = extractvalue { i8*, i32 } %129, 0
  call void @__clang_call_terminate(i8* %130) #11
  unreachable

; <label>:131:                                    ; preds = %79
  unreachable
}

; Function Attrs: noinline uwtable
define linkonce_odr void @_ZN9__gnu_cxx13new_allocatorISt6threadE9constructIS1_JMN4MARC10ThreadPoolEFvPSt6atomicIbEEPS5_S8_EEEvPT_DpOT0_(%"class.__gnu_cxx::new_allocator.11"*, %"class.std::thread"*, { i64, i64 }* dereferenceable(16), %"class.MARC::ThreadPool"** dereferenceable(8), %"struct.std::atomic"** dereferenceable(8)) #0 comdat align 2 {
  %6 = alloca %"class.__gnu_cxx::new_allocator.11"*, align 8
  %7 = alloca %"class.std::thread"*, align 8
  %8 = alloca { i64, i64 }*, align 8
  %9 = alloca %"class.MARC::ThreadPool"**, align 8
  %10 = alloca %"struct.std::atomic"**, align 8
  store %"class.__gnu_cxx::new_allocator.11"* %0, %"class.__gnu_cxx::new_allocator.11"** %6, align 8
  store %"class.std::thread"* %1, %"class.std::thread"** %7, align 8
  store { i64, i64 }* %2, { i64, i64 }** %8, align 8
  store %"class.MARC::ThreadPool"** %3, %"class.MARC::ThreadPool"*** %9, align 8
  store %"struct.std::atomic"** %4, %"struct.std::atomic"*** %10, align 8
  %11 = load %"class.__gnu_cxx::new_allocator.11"*, %"class.__gnu_cxx::new_allocator.11"** %6, align 8
  %12 = load %"class.std::thread"*, %"class.std::thread"** %7, align 8
  %13 = bitcast %"class.std::thread"* %12 to i8*
  %14 = bitcast i8* %13 to %"class.std::thread"*
  %15 = load { i64, i64 }*, { i64, i64 }** %8, align 8
  %16 = call dereferenceable(16) { i64, i64 }* @_ZSt7forwardIMN4MARC10ThreadPoolEFvPSt6atomicIbEEEOT_RNSt16remove_referenceIS7_E4typeE({ i64, i64 }* dereferenceable(16) %15) #3
  %17 = load %"class.MARC::ThreadPool"**, %"class.MARC::ThreadPool"*** %9, align 8
  %18 = call dereferenceable(8) %"class.MARC::ThreadPool"** @_ZSt7forwardIPN4MARC10ThreadPoolEEOT_RNSt16remove_referenceIS3_E4typeE(%"class.MARC::ThreadPool"** dereferenceable(8) %17) #3
  %19 = load %"struct.std::atomic"**, %"struct.std::atomic"*** %10, align 8
  %20 = call dereferenceable(8) %"struct.std::atomic"** @_ZSt7forwardIPSt6atomicIbEEOT_RNSt16remove_referenceIS3_E4typeE(%"struct.std::atomic"** dereferenceable(8) %19) #3
  call void @_ZNSt6threadC2IMN4MARC10ThreadPoolEFvPSt6atomicIbEEJPS2_S5_EEEOT_DpOT0_(%"class.std::thread"* %14, { i64, i64 }* dereferenceable(16) %16, %"class.MARC::ThreadPool"** dereferenceable(8) %18, %"struct.std::atomic"** dereferenceable(8) %20)
  ret void
}

; Function Attrs: noinline uwtable
define linkonce_odr void @_ZNSt6threadC2IMN4MARC10ThreadPoolEFvPSt6atomicIbEEJPS2_S5_EEEOT_DpOT0_(%"class.std::thread"*, { i64, i64 }* dereferenceable(16), %"class.MARC::ThreadPool"** dereferenceable(8), %"struct.std::atomic"** dereferenceable(8)) unnamed_addr #0 comdat align 2 personality i8* bitcast (i32 (...)* @__gxx_personality_v0 to i8*) {
  %5 = alloca %"class.std::thread"*, align 8
  %6 = alloca { i64, i64 }*, align 8
  %7 = alloca %"class.MARC::ThreadPool"**, align 8
  %8 = alloca %"struct.std::atomic"**, align 8
  %9 = alloca void ()*, align 8
  %10 = alloca %"class.std::unique_ptr.35", align 8
  %11 = alloca %"struct.std::_Bind_simple", align 8
  %12 = alloca i8*
  %13 = alloca i32
  store %"class.std::thread"* %0, %"class.std::thread"** %5, align 8
  store { i64, i64 }* %1, { i64, i64 }** %6, align 8
  store %"class.MARC::ThreadPool"** %2, %"class.MARC::ThreadPool"*** %7, align 8
  store %"struct.std::atomic"** %3, %"struct.std::atomic"*** %8, align 8
  %14 = load %"class.std::thread"*, %"class.std::thread"** %5, align 8
  %15 = getelementptr inbounds %"class.std::thread", %"class.std::thread"* %14, i32 0, i32 0
  call void @_ZNSt6thread2idC2Ev(%"class.std::thread::id"* %15) #3
  store void ()* bitcast (i32 (i64*, %union.pthread_attr_t*, i8* (i8*)*, i8*)* @pthread_create to void ()*), void ()** %9, align 8
  %16 = load { i64, i64 }*, { i64, i64 }** %6, align 8
  %17 = call dereferenceable(16) { i64, i64 }* @_ZSt7forwardIMN4MARC10ThreadPoolEFvPSt6atomicIbEEEOT_RNSt16remove_referenceIS7_E4typeE({ i64, i64 }* dereferenceable(16) %16) #3
  %18 = load %"class.MARC::ThreadPool"**, %"class.MARC::ThreadPool"*** %7, align 8
  %19 = call dereferenceable(8) %"class.MARC::ThreadPool"** @_ZSt7forwardIPN4MARC10ThreadPoolEEOT_RNSt16remove_referenceIS3_E4typeE(%"class.MARC::ThreadPool"** dereferenceable(8) %18) #3
  %20 = load %"struct.std::atomic"**, %"struct.std::atomic"*** %8, align 8
  %21 = call dereferenceable(8) %"struct.std::atomic"** @_ZSt7forwardIPSt6atomicIbEEOT_RNSt16remove_referenceIS3_E4typeE(%"struct.std::atomic"** dereferenceable(8) %20) #3
  call void @_ZSt13__bind_simpleIMN4MARC10ThreadPoolEFvPSt6atomicIbEEJPS1_S4_EENSt19_Bind_simple_helperIT_JDpT0_EE6__typeEOS9_DpOSA_(%"struct.std::_Bind_simple"* sret %11, { i64, i64 }* dereferenceable(16) %17, %"class.MARC::ThreadPool"** dereferenceable(8) %19, %"struct.std::atomic"** dereferenceable(8) %21)
  call void @_ZNSt6thread13_S_make_stateISt12_Bind_simpleIFSt7_Mem_fnIMN4MARC10ThreadPoolEFvPSt6atomicIbEEEPS4_S7_EEEESt10unique_ptrINS_6_StateESt14default_deleteISF_EEOT_(%"class.std::unique_ptr.35"* sret %10, %"struct.std::_Bind_simple"* dereferenceable(32) %11)
  %22 = load void ()*, void ()** %9, align 8
  invoke void @_ZNSt6thread15_M_start_threadESt10unique_ptrINS_6_StateESt14default_deleteIS1_EEPFvvE(%"class.std::thread"* %14, %"class.std::unique_ptr.35"* %10, void ()* %22)
          to label %23 unwind label %24

; <label>:23:                                     ; preds = %4
  call void @_ZNSt10unique_ptrINSt6thread6_StateESt14default_deleteIS1_EED2Ev(%"class.std::unique_ptr.35"* %10) #3
  ret void

; <label>:24:                                     ; preds = %4
  %25 = landingpad { i8*, i32 }
          cleanup
  %26 = extractvalue { i8*, i32 } %25, 0
  store i8* %26, i8** %12, align 8
  %27 = extractvalue { i8*, i32 } %25, 1
  store i32 %27, i32* %13, align 4
  call void @_ZNSt10unique_ptrINSt6thread6_StateESt14default_deleteIS1_EED2Ev(%"class.std::unique_ptr.35"* %10) #3
  br label %28

; <label>:28:                                     ; preds = %24
  %29 = load i8*, i8** %12, align 8
  %30 = load i32, i32* %13, align 4
  %31 = insertvalue { i8*, i32 } undef, i8* %29, 0
  %32 = insertvalue { i8*, i32 } %31, i32 %30, 1
  resume { i8*, i32 } %32
}

; Function Attrs: noinline nounwind uwtable
define linkonce_odr void @_ZNSt6thread2idC2Ev(%"class.std::thread::id"*) unnamed_addr #5 comdat align 2 {
  %2 = alloca %"class.std::thread::id"*, align 8
  store %"class.std::thread::id"* %0, %"class.std::thread::id"** %2, align 8
  %3 = load %"class.std::thread::id"*, %"class.std::thread::id"** %2, align 8
  %4 = getelementptr inbounds %"class.std::thread::id", %"class.std::thread::id"* %3, i32 0, i32 0
  store i64 0, i64* %4, align 8
  ret void
}

; Function Attrs: nounwind
declare i32 @pthread_create(i64*, %union.pthread_attr_t*, i8* (i8*)*, i8*) #2

declare void @_ZNSt6thread15_M_start_threadESt10unique_ptrINS_6_StateESt14default_deleteIS1_EEPFvvE(%"class.std::thread"*, %"class.std::unique_ptr.35"*, void ()*) #1

; Function Attrs: noinline uwtable
define linkonce_odr void @_ZNSt6thread13_S_make_stateISt12_Bind_simpleIFSt7_Mem_fnIMN4MARC10ThreadPoolEFvPSt6atomicIbEEEPS4_S7_EEEESt10unique_ptrINS_6_StateESt14default_deleteISF_EEOT_(%"class.std::unique_ptr.35"* noalias sret, %"struct.std::_Bind_simple"* dereferenceable(32)) #0 comdat align 2 personality i8* bitcast (i32 (...)* @__gxx_personality_v0 to i8*) {
  %3 = alloca %"struct.std::_Bind_simple"*, align 8
  %4 = alloca i8*
  %5 = alloca i32
  store %"struct.std::_Bind_simple"* %1, %"struct.std::_Bind_simple"** %3, align 8
  %6 = call i8* @_Znwm(i64 40) #14
  %7 = bitcast i8* %6 to %"struct.std::thread::_State_impl"*
  %8 = load %"struct.std::_Bind_simple"*, %"struct.std::_Bind_simple"** %3, align 8
  %9 = call dereferenceable(32) %"struct.std::_Bind_simple"* @_ZSt7forwardISt12_Bind_simpleIFSt7_Mem_fnIMN4MARC10ThreadPoolEFvPSt6atomicIbEEEPS3_S6_EEEOT_RNSt16remove_referenceISD_E4typeE(%"struct.std::_Bind_simple"* dereferenceable(32) %8) #3
  invoke void @_ZNSt6thread11_State_implISt12_Bind_simpleIFSt7_Mem_fnIMN4MARC10ThreadPoolEFvPSt6atomicIbEEEPS4_S7_EEEC2EOSD_(%"struct.std::thread::_State_impl"* %7, %"struct.std::_Bind_simple"* dereferenceable(32) %9)
          to label %10 unwind label %12

; <label>:10:                                     ; preds = %2
  %11 = bitcast %"struct.std::thread::_State_impl"* %7 to %"struct.std::thread::_State"*
  call void @_ZNSt10unique_ptrINSt6thread6_StateESt14default_deleteIS1_EEC2EPS1_(%"class.std::unique_ptr.35"* %0, %"struct.std::thread::_State"* %11) #3
  ret void

; <label>:12:                                     ; preds = %2
  %13 = landingpad { i8*, i32 }
          cleanup
  %14 = extractvalue { i8*, i32 } %13, 0
  store i8* %14, i8** %4, align 8
  %15 = extractvalue { i8*, i32 } %13, 1
  store i32 %15, i32* %5, align 4
  call void @_ZdlPv(i8* %6) #16
  br label %16

; <label>:16:                                     ; preds = %12
  %17 = load i8*, i8** %4, align 8
  %18 = load i32, i32* %5, align 4
  %19 = insertvalue { i8*, i32 } undef, i8* %17, 0
  %20 = insertvalue { i8*, i32 } %19, i32 %18, 1
  resume { i8*, i32 } %20
}

; Function Attrs: noinline uwtable
define linkonce_odr void @_ZSt13__bind_simpleIMN4MARC10ThreadPoolEFvPSt6atomicIbEEJPS1_S4_EENSt19_Bind_simple_helperIT_JDpT0_EE6__typeEOS9_DpOSA_(%"struct.std::_Bind_simple"* noalias sret, { i64, i64 }* dereferenceable(16), %"class.MARC::ThreadPool"** dereferenceable(8), %"struct.std::atomic"** dereferenceable(8)) #0 comdat {
  %5 = alloca { i64, i64 }*, align 8
  %6 = alloca %"class.MARC::ThreadPool"**, align 8
  %7 = alloca %"struct.std::atomic"**, align 8
  %8 = alloca %"struct.std::_Mem_fn", align 8
  %9 = alloca { i64, i64 }, align 8
  store { i64, i64 }* %1, { i64, i64 }** %5, align 8
  store %"class.MARC::ThreadPool"** %2, %"class.MARC::ThreadPool"*** %6, align 8
  store %"struct.std::atomic"** %3, %"struct.std::atomic"*** %7, align 8
  %10 = load { i64, i64 }*, { i64, i64 }** %5, align 8
  %11 = call dereferenceable(16) { i64, i64 }* @_ZSt7forwardIMN4MARC10ThreadPoolEFvPSt6atomicIbEEEOT_RNSt16remove_referenceIS7_E4typeE({ i64, i64 }* dereferenceable(16) %10) #3
  %12 = load { i64, i64 }, { i64, i64 }* %11, align 8
  store { i64, i64 } %12, { i64, i64 }* %9, align 8
  %13 = getelementptr inbounds { i64, i64 }, { i64, i64 }* %9, i32 0, i32 0
  %14 = load i64, i64* %13, align 8
  %15 = getelementptr inbounds { i64, i64 }, { i64, i64 }* %9, i32 0, i32 1
  %16 = load i64, i64* %15, align 8
  %17 = call { i64, i64 } @_ZNSt26_Maybe_wrap_member_pointerIMN4MARC10ThreadPoolEFvPSt6atomicIbEEE9__do_wrapES6_(i64 %14, i64 %16)
  %18 = getelementptr inbounds %"struct.std::_Mem_fn", %"struct.std::_Mem_fn"* %8, i32 0, i32 0
  %19 = getelementptr inbounds %"class.std::_Mem_fn_base", %"class.std::_Mem_fn_base"* %18, i32 0, i32 0
  %20 = getelementptr inbounds { i64, i64 }, { i64, i64 }* %19, i32 0, i32 0
  %21 = extractvalue { i64, i64 } %17, 0
  store i64 %21, i64* %20, align 8
  %22 = getelementptr inbounds { i64, i64 }, { i64, i64 }* %19, i32 0, i32 1
  %23 = extractvalue { i64, i64 } %17, 1
  store i64 %23, i64* %22, align 8
  %24 = load %"class.MARC::ThreadPool"**, %"class.MARC::ThreadPool"*** %6, align 8
  %25 = call dereferenceable(8) %"class.MARC::ThreadPool"** @_ZSt7forwardIPN4MARC10ThreadPoolEEOT_RNSt16remove_referenceIS3_E4typeE(%"class.MARC::ThreadPool"** dereferenceable(8) %24) #3
  %26 = load %"struct.std::atomic"**, %"struct.std::atomic"*** %7, align 8
  %27 = call dereferenceable(8) %"struct.std::atomic"** @_ZSt7forwardIPSt6atomicIbEEOT_RNSt16remove_referenceIS3_E4typeE(%"struct.std::atomic"** dereferenceable(8) %26) #3
  call void @_ZNSt12_Bind_simpleIFSt7_Mem_fnIMN4MARC10ThreadPoolEFvPSt6atomicIbEEEPS2_S5_EEC2IS8_JS9_S5_EEEOT_DpOT0_(%"struct.std::_Bind_simple"* %0, %"struct.std::_Mem_fn"* dereferenceable(16) %8, %"class.MARC::ThreadPool"** dereferenceable(8) %25, %"struct.std::atomic"** dereferenceable(8) %27)
  ret void
}

; Function Attrs: noinline nounwind uwtable
define linkonce_odr void @_ZNSt10unique_ptrINSt6thread6_StateESt14default_deleteIS1_EED2Ev(%"class.std::unique_ptr.35"*) unnamed_addr #5 comdat align 2 personality i8* bitcast (i32 (...)* @__gxx_personality_v0 to i8*) {
  %2 = alloca %"class.std::unique_ptr.35"*, align 8
  %3 = alloca %"struct.std::thread::_State"**, align 8
  store %"class.std::unique_ptr.35"* %0, %"class.std::unique_ptr.35"** %2, align 8
  %4 = load %"class.std::unique_ptr.35"*, %"class.std::unique_ptr.35"** %2, align 8
  %5 = getelementptr inbounds %"class.std::unique_ptr.35", %"class.std::unique_ptr.35"* %4, i32 0, i32 0
  %6 = call dereferenceable(8) %"struct.std::thread::_State"** @_ZSt3getILm0EJPNSt6thread6_StateESt14default_deleteIS1_EEERNSt13tuple_elementIXT_ESt5tupleIJDpT0_EEE4typeERS9_(%"class.std::tuple.36"* dereferenceable(8) %5) #3
  store %"struct.std::thread::_State"** %6, %"struct.std::thread::_State"*** %3, align 8
  %7 = load %"struct.std::thread::_State"**, %"struct.std::thread::_State"*** %3, align 8
  %8 = load %"struct.std::thread::_State"*, %"struct.std::thread::_State"** %7, align 8
  %9 = icmp ne %"struct.std::thread::_State"* %8, null
  br i1 %9, label %10, label %15

; <label>:10:                                     ; preds = %1
  %11 = call dereferenceable(1) %"struct.std::default_delete.40"* @_ZNSt10unique_ptrINSt6thread6_StateESt14default_deleteIS1_EE11get_deleterEv(%"class.std::unique_ptr.35"* %4) #3
  %12 = load %"struct.std::thread::_State"**, %"struct.std::thread::_State"*** %3, align 8
  %13 = load %"struct.std::thread::_State"*, %"struct.std::thread::_State"** %12, align 8
  invoke void @_ZNKSt14default_deleteINSt6thread6_StateEEclEPS1_(%"struct.std::default_delete.40"* %11, %"struct.std::thread::_State"* %13)
          to label %14 unwind label %17

; <label>:14:                                     ; preds = %10
  br label %15

; <label>:15:                                     ; preds = %14, %1
  %16 = load %"struct.std::thread::_State"**, %"struct.std::thread::_State"*** %3, align 8
  store %"struct.std::thread::_State"* null, %"struct.std::thread::_State"** %16, align 8
  ret void

; <label>:17:                                     ; preds = %10
  %18 = landingpad { i8*, i32 }
          catch i8* null
  %19 = extractvalue { i8*, i32 } %18, 0
  call void @__clang_call_terminate(i8* %19) #11
  unreachable
}

; Function Attrs: noinline nounwind uwtable
define linkonce_odr dereferenceable(32) %"struct.std::_Bind_simple"* @_ZSt7forwardISt12_Bind_simpleIFSt7_Mem_fnIMN4MARC10ThreadPoolEFvPSt6atomicIbEEEPS3_S6_EEEOT_RNSt16remove_referenceISD_E4typeE(%"struct.std::_Bind_simple"* dereferenceable(32)) #5 comdat {
  %2 = alloca %"struct.std::_Bind_simple"*, align 8
  store %"struct.std::_Bind_simple"* %0, %"struct.std::_Bind_simple"** %2, align 8
  %3 = load %"struct.std::_Bind_simple"*, %"struct.std::_Bind_simple"** %2, align 8
  ret %"struct.std::_Bind_simple"* %3
}

; Function Attrs: noinline nounwind uwtable
define linkonce_odr void @_ZNSt6thread11_State_implISt12_Bind_simpleIFSt7_Mem_fnIMN4MARC10ThreadPoolEFvPSt6atomicIbEEEPS4_S7_EEEC2EOSD_(%"struct.std::thread::_State_impl"*, %"struct.std::_Bind_simple"* dereferenceable(32)) unnamed_addr #5 comdat align 2 {
  %3 = alloca %"struct.std::thread::_State_impl"*, align 8
  %4 = alloca %"struct.std::_Bind_simple"*, align 8
  store %"struct.std::thread::_State_impl"* %0, %"struct.std::thread::_State_impl"** %3, align 8
  store %"struct.std::_Bind_simple"* %1, %"struct.std::_Bind_simple"** %4, align 8
  %5 = load %"struct.std::thread::_State_impl"*, %"struct.std::thread::_State_impl"** %3, align 8
  %6 = bitcast %"struct.std::thread::_State_impl"* %5 to %"struct.std::thread::_State"*
  call void @_ZNSt6thread6_StateC2Ev(%"struct.std::thread::_State"* %6) #3
  %7 = bitcast %"struct.std::thread::_State_impl"* %5 to i32 (...)***
  store i32 (...)** bitcast (i8** getelementptr inbounds ({ [5 x i8*] }, { [5 x i8*] }* @_ZTVNSt6thread11_State_implISt12_Bind_simpleIFSt7_Mem_fnIMN4MARC10ThreadPoolEFvPSt6atomicIbEEEPS4_S7_EEEE, i32 0, inrange i32 0, i32 2) to i32 (...)**), i32 (...)*** %7, align 8
  %8 = getelementptr inbounds %"struct.std::thread::_State_impl", %"struct.std::thread::_State_impl"* %5, i32 0, i32 1
  %9 = load %"struct.std::_Bind_simple"*, %"struct.std::_Bind_simple"** %4, align 8
  %10 = call dereferenceable(32) %"struct.std::_Bind_simple"* @_ZSt7forwardISt12_Bind_simpleIFSt7_Mem_fnIMN4MARC10ThreadPoolEFvPSt6atomicIbEEEPS3_S6_EEEOT_RNSt16remove_referenceISD_E4typeE(%"struct.std::_Bind_simple"* dereferenceable(32) %9) #3
  call void @_ZNSt12_Bind_simpleIFSt7_Mem_fnIMN4MARC10ThreadPoolEFvPSt6atomicIbEEEPS2_S5_EEC2EOSB_(%"struct.std::_Bind_simple"* %8, %"struct.std::_Bind_simple"* dereferenceable(32) %10) #3
  ret void
}

; Function Attrs: noinline nounwind uwtable
define linkonce_odr void @_ZNSt10unique_ptrINSt6thread6_StateESt14default_deleteIS1_EEC2EPS1_(%"class.std::unique_ptr.35"*, %"struct.std::thread::_State"*) unnamed_addr #5 comdat align 2 personality i8* bitcast (i32 (...)* @__gxx_personality_v0 to i8*) {
  %3 = alloca %"class.std::unique_ptr.35"*, align 8
  %4 = alloca %"struct.std::thread::_State"*, align 8
  store %"class.std::unique_ptr.35"* %0, %"class.std::unique_ptr.35"** %3, align 8
  store %"struct.std::thread::_State"* %1, %"struct.std::thread::_State"** %4, align 8
  %5 = load %"class.std::unique_ptr.35"*, %"class.std::unique_ptr.35"** %3, align 8
  %6 = getelementptr inbounds %"class.std::unique_ptr.35", %"class.std::unique_ptr.35"* %5, i32 0, i32 0
  invoke void @_ZNSt5tupleIJPNSt6thread6_StateESt14default_deleteIS1_EEEC2IS2_S4_Lb1EEEv(%"class.std::tuple.36"* %6)
          to label %7 unwind label %11

; <label>:7:                                      ; preds = %2
  %8 = load %"struct.std::thread::_State"*, %"struct.std::thread::_State"** %4, align 8
  %9 = getelementptr inbounds %"class.std::unique_ptr.35", %"class.std::unique_ptr.35"* %5, i32 0, i32 0
  %10 = call dereferenceable(8) %"struct.std::thread::_State"** @_ZSt3getILm0EJPNSt6thread6_StateESt14default_deleteIS1_EEERNSt13tuple_elementIXT_ESt5tupleIJDpT0_EEE4typeERS9_(%"class.std::tuple.36"* dereferenceable(8) %9) #3
  store %"struct.std::thread::_State"* %8, %"struct.std::thread::_State"** %10, align 8
  ret void

; <label>:11:                                     ; preds = %2
  %12 = landingpad { i8*, i32 }
          catch i8* null
  %13 = extractvalue { i8*, i32 } %12, 0
  call void @__clang_call_terminate(i8* %13) #11
  unreachable
}

; Function Attrs: noinline nounwind uwtable
define linkonce_odr void @_ZNSt6thread6_StateC2Ev(%"struct.std::thread::_State"*) unnamed_addr #5 comdat align 2 {
  %2 = alloca %"struct.std::thread::_State"*, align 8
  store %"struct.std::thread::_State"* %0, %"struct.std::thread::_State"** %2, align 8
  %3 = load %"struct.std::thread::_State"*, %"struct.std::thread::_State"** %2, align 8
  %4 = bitcast %"struct.std::thread::_State"* %3 to i32 (...)***
  store i32 (...)** bitcast (i8** getelementptr inbounds ({ [5 x i8*] }, { [5 x i8*] }* @_ZTVNSt6thread6_StateE, i32 0, inrange i32 0, i32 2) to i32 (...)**), i32 (...)*** %4, align 8
  ret void
}

; Function Attrs: noinline nounwind uwtable
define linkonce_odr void @_ZNSt12_Bind_simpleIFSt7_Mem_fnIMN4MARC10ThreadPoolEFvPSt6atomicIbEEEPS2_S5_EEC2EOSB_(%"struct.std::_Bind_simple"*, %"struct.std::_Bind_simple"* dereferenceable(32)) unnamed_addr #5 comdat align 2 {
  %3 = alloca %"struct.std::_Bind_simple"*, align 8
  %4 = alloca %"struct.std::_Bind_simple"*, align 8
  store %"struct.std::_Bind_simple"* %0, %"struct.std::_Bind_simple"** %3, align 8
  store %"struct.std::_Bind_simple"* %1, %"struct.std::_Bind_simple"** %4, align 8
  %5 = load %"struct.std::_Bind_simple"*, %"struct.std::_Bind_simple"** %3, align 8
  %6 = getelementptr inbounds %"struct.std::_Bind_simple", %"struct.std::_Bind_simple"* %5, i32 0, i32 0
  %7 = load %"struct.std::_Bind_simple"*, %"struct.std::_Bind_simple"** %4, align 8
  %8 = getelementptr inbounds %"struct.std::_Bind_simple", %"struct.std::_Bind_simple"* %7, i32 0, i32 0
  call void @_ZNSt5tupleIJSt7_Mem_fnIMN4MARC10ThreadPoolEFvPSt6atomicIbEEEPS2_S5_EEC2EOSA_(%"class.std::tuple.43"* %6, %"class.std::tuple.43"* dereferenceable(32) %8) #3
  ret void
}

; Function Attrs: noinline nounwind uwtable
define linkonce_odr void @_ZNSt6thread11_State_implISt12_Bind_simpleIFSt7_Mem_fnIMN4MARC10ThreadPoolEFvPSt6atomicIbEEEPS4_S7_EEED2Ev(%"struct.std::thread::_State_impl"*) unnamed_addr #5 comdat align 2 {
  %2 = alloca %"struct.std::thread::_State_impl"*, align 8
  store %"struct.std::thread::_State_impl"* %0, %"struct.std::thread::_State_impl"** %2, align 8
  %3 = load %"struct.std::thread::_State_impl"*, %"struct.std::thread::_State_impl"** %2, align 8
  %4 = bitcast %"struct.std::thread::_State_impl"* %3 to %"struct.std::thread::_State"*
  call void @_ZNSt6thread6_StateD2Ev(%"struct.std::thread::_State"* %4) #3
  ret void
}

; Function Attrs: noinline nounwind uwtable
define linkonce_odr void @_ZNSt6thread11_State_implISt12_Bind_simpleIFSt7_Mem_fnIMN4MARC10ThreadPoolEFvPSt6atomicIbEEEPS4_S7_EEED0Ev(%"struct.std::thread::_State_impl"*) unnamed_addr #5 comdat align 2 {
  %2 = alloca %"struct.std::thread::_State_impl"*, align 8
  store %"struct.std::thread::_State_impl"* %0, %"struct.std::thread::_State_impl"** %2, align 8
  %3 = load %"struct.std::thread::_State_impl"*, %"struct.std::thread::_State_impl"** %2, align 8
  call void @_ZNSt6thread11_State_implISt12_Bind_simpleIFSt7_Mem_fnIMN4MARC10ThreadPoolEFvPSt6atomicIbEEEPS4_S7_EEED2Ev(%"struct.std::thread::_State_impl"* %3) #3
  %4 = bitcast %"struct.std::thread::_State_impl"* %3 to i8*
  call void @_ZdlPv(i8* %4) #16
  ret void
}

; Function Attrs: noinline uwtable
define linkonce_odr void @_ZNSt6thread11_State_implISt12_Bind_simpleIFSt7_Mem_fnIMN4MARC10ThreadPoolEFvPSt6atomicIbEEEPS4_S7_EEE6_M_runEv(%"struct.std::thread::_State_impl"*) unnamed_addr #0 comdat align 2 {
  %2 = alloca %"struct.std::thread::_State_impl"*, align 8
  store %"struct.std::thread::_State_impl"* %0, %"struct.std::thread::_State_impl"** %2, align 8
  %3 = load %"struct.std::thread::_State_impl"*, %"struct.std::thread::_State_impl"** %2, align 8
  %4 = getelementptr inbounds %"struct.std::thread::_State_impl", %"struct.std::thread::_State_impl"* %3, i32 0, i32 1
  call void @_ZNSt12_Bind_simpleIFSt7_Mem_fnIMN4MARC10ThreadPoolEFvPSt6atomicIbEEEPS2_S5_EEclEv(%"struct.std::_Bind_simple"* %4)
  ret void
}

; Function Attrs: noinline nounwind uwtable
define linkonce_odr void @_ZNSt5tupleIJSt7_Mem_fnIMN4MARC10ThreadPoolEFvPSt6atomicIbEEEPS2_S5_EEC2EOSA_(%"class.std::tuple.43"*, %"class.std::tuple.43"* dereferenceable(32)) unnamed_addr #5 comdat align 2 {
  %3 = alloca %"class.std::tuple.43"*, align 8
  %4 = alloca %"class.std::tuple.43"*, align 8
  store %"class.std::tuple.43"* %0, %"class.std::tuple.43"** %3, align 8
  store %"class.std::tuple.43"* %1, %"class.std::tuple.43"** %4, align 8
  %5 = load %"class.std::tuple.43"*, %"class.std::tuple.43"** %3, align 8
  %6 = bitcast %"class.std::tuple.43"* %5 to %"struct.std::_Tuple_impl.44"*
  %7 = load %"class.std::tuple.43"*, %"class.std::tuple.43"** %4, align 8
  %8 = bitcast %"class.std::tuple.43"* %7 to %"struct.std::_Tuple_impl.44"*
  call void @_ZNSt11_Tuple_implILm0EJSt7_Mem_fnIMN4MARC10ThreadPoolEFvPSt6atomicIbEEEPS2_S5_EEC2EOSA_(%"struct.std::_Tuple_impl.44"* %6, %"struct.std::_Tuple_impl.44"* dereferenceable(32) %8) #3
  ret void
}

; Function Attrs: noinline nounwind uwtable
define linkonce_odr void @_ZNSt11_Tuple_implILm0EJSt7_Mem_fnIMN4MARC10ThreadPoolEFvPSt6atomicIbEEEPS2_S5_EEC2EOSA_(%"struct.std::_Tuple_impl.44"*, %"struct.std::_Tuple_impl.44"* dereferenceable(32)) unnamed_addr #5 comdat align 2 personality i8* bitcast (i32 (...)* @__gxx_personality_v0 to i8*) {
  %3 = alloca %"struct.std::_Tuple_impl.44"*, align 8
  %4 = alloca %"struct.std::_Tuple_impl.44"*, align 8
  store %"struct.std::_Tuple_impl.44"* %0, %"struct.std::_Tuple_impl.44"** %3, align 8
  store %"struct.std::_Tuple_impl.44"* %1, %"struct.std::_Tuple_impl.44"** %4, align 8
  %5 = load %"struct.std::_Tuple_impl.44"*, %"struct.std::_Tuple_impl.44"** %3, align 8
  %6 = bitcast %"struct.std::_Tuple_impl.44"* %5 to %"struct.std::_Tuple_impl.45"*
  %7 = load %"struct.std::_Tuple_impl.44"*, %"struct.std::_Tuple_impl.44"** %4, align 8
  %8 = call dereferenceable(16) %"struct.std::_Tuple_impl.45"* @_ZNSt11_Tuple_implILm0EJSt7_Mem_fnIMN4MARC10ThreadPoolEFvPSt6atomicIbEEEPS2_S5_EE7_M_tailERSA_(%"struct.std::_Tuple_impl.44"* dereferenceable(32) %7) #3
  %9 = call dereferenceable(16) %"struct.std::_Tuple_impl.45"* @_ZSt4moveIRSt11_Tuple_implILm1EJPN4MARC10ThreadPoolEPSt6atomicIbEEEEONSt16remove_referenceIT_E4typeEOSA_(%"struct.std::_Tuple_impl.45"* dereferenceable(16) %8) #3
  call void @_ZNSt11_Tuple_implILm1EJPN4MARC10ThreadPoolEPSt6atomicIbEEEC2EOS6_(%"struct.std::_Tuple_impl.45"* %6, %"struct.std::_Tuple_impl.45"* dereferenceable(16) %9) #3
  %10 = bitcast %"struct.std::_Tuple_impl.44"* %5 to i8*
  %11 = getelementptr inbounds i8, i8* %10, i64 16
  %12 = bitcast i8* %11 to %"struct.std::_Head_base.49"*
  %13 = load %"struct.std::_Tuple_impl.44"*, %"struct.std::_Tuple_impl.44"** %4, align 8
  %14 = call dereferenceable(16) %"struct.std::_Mem_fn"* @_ZNSt11_Tuple_implILm0EJSt7_Mem_fnIMN4MARC10ThreadPoolEFvPSt6atomicIbEEEPS2_S5_EE7_M_headERSA_(%"struct.std::_Tuple_impl.44"* dereferenceable(32) %13) #3
  %15 = call dereferenceable(16) %"struct.std::_Mem_fn"* @_ZSt7forwardISt7_Mem_fnIMN4MARC10ThreadPoolEFvPSt6atomicIbEEEEOT_RNSt16remove_referenceIS9_E4typeE(%"struct.std::_Mem_fn"* dereferenceable(16) %14) #3
  invoke void @_ZNSt10_Head_baseILm0ESt7_Mem_fnIMN4MARC10ThreadPoolEFvPSt6atomicIbEEELb0EEC2IS8_EEOT_(%"struct.std::_Head_base.49"* %12, %"struct.std::_Mem_fn"* dereferenceable(16) %15)
          to label %16 unwind label %17

; <label>:16:                                     ; preds = %2
  ret void

; <label>:17:                                     ; preds = %2
  %18 = landingpad { i8*, i32 }
          catch i8* null
  %19 = extractvalue { i8*, i32 } %18, 0
  call void @__clang_call_terminate(i8* %19) #11
  unreachable
}

; Function Attrs: noinline nounwind uwtable
define linkonce_odr dereferenceable(16) %"struct.std::_Tuple_impl.45"* @_ZSt4moveIRSt11_Tuple_implILm1EJPN4MARC10ThreadPoolEPSt6atomicIbEEEEONSt16remove_referenceIT_E4typeEOSA_(%"struct.std::_Tuple_impl.45"* dereferenceable(16)) #5 comdat {
  %2 = alloca %"struct.std::_Tuple_impl.45"*, align 8
  store %"struct.std::_Tuple_impl.45"* %0, %"struct.std::_Tuple_impl.45"** %2, align 8
  %3 = load %"struct.std::_Tuple_impl.45"*, %"struct.std::_Tuple_impl.45"** %2, align 8
  ret %"struct.std::_Tuple_impl.45"* %3
}

; Function Attrs: noinline nounwind uwtable
define linkonce_odr dereferenceable(16) %"struct.std::_Tuple_impl.45"* @_ZNSt11_Tuple_implILm0EJSt7_Mem_fnIMN4MARC10ThreadPoolEFvPSt6atomicIbEEEPS2_S5_EE7_M_tailERSA_(%"struct.std::_Tuple_impl.44"* dereferenceable(32)) #5 comdat align 2 {
  %2 = alloca %"struct.std::_Tuple_impl.44"*, align 8
  store %"struct.std::_Tuple_impl.44"* %0, %"struct.std::_Tuple_impl.44"** %2, align 8
  %3 = load %"struct.std::_Tuple_impl.44"*, %"struct.std::_Tuple_impl.44"** %2, align 8
  %4 = bitcast %"struct.std::_Tuple_impl.44"* %3 to %"struct.std::_Tuple_impl.45"*
  ret %"struct.std::_Tuple_impl.45"* %4
}

; Function Attrs: noinline nounwind uwtable
define linkonce_odr void @_ZNSt11_Tuple_implILm1EJPN4MARC10ThreadPoolEPSt6atomicIbEEEC2EOS6_(%"struct.std::_Tuple_impl.45"*, %"struct.std::_Tuple_impl.45"* dereferenceable(16)) unnamed_addr #5 comdat align 2 personality i8* bitcast (i32 (...)* @__gxx_personality_v0 to i8*) {
  %3 = alloca %"struct.std::_Tuple_impl.45"*, align 8
  %4 = alloca %"struct.std::_Tuple_impl.45"*, align 8
  store %"struct.std::_Tuple_impl.45"* %0, %"struct.std::_Tuple_impl.45"** %3, align 8
  store %"struct.std::_Tuple_impl.45"* %1, %"struct.std::_Tuple_impl.45"** %4, align 8
  %5 = load %"struct.std::_Tuple_impl.45"*, %"struct.std::_Tuple_impl.45"** %3, align 8
  %6 = bitcast %"struct.std::_Tuple_impl.45"* %5 to %"struct.std::_Tuple_impl.46"*
  %7 = load %"struct.std::_Tuple_impl.45"*, %"struct.std::_Tuple_impl.45"** %4, align 8
  %8 = call dereferenceable(8) %"struct.std::_Tuple_impl.46"* @_ZNSt11_Tuple_implILm1EJPN4MARC10ThreadPoolEPSt6atomicIbEEE7_M_tailERS6_(%"struct.std::_Tuple_impl.45"* dereferenceable(16) %7) #3
  %9 = call dereferenceable(8) %"struct.std::_Tuple_impl.46"* @_ZSt4moveIRSt11_Tuple_implILm2EJPSt6atomicIbEEEEONSt16remove_referenceIT_E4typeEOS7_(%"struct.std::_Tuple_impl.46"* dereferenceable(8) %8) #3
  call void @_ZNSt11_Tuple_implILm2EJPSt6atomicIbEEEC2EOS3_(%"struct.std::_Tuple_impl.46"* %6, %"struct.std::_Tuple_impl.46"* dereferenceable(8) %9) #3
  %10 = bitcast %"struct.std::_Tuple_impl.45"* %5 to i8*
  %11 = getelementptr inbounds i8, i8* %10, i64 8
  %12 = bitcast i8* %11 to %"struct.std::_Head_base.48"*
  %13 = load %"struct.std::_Tuple_impl.45"*, %"struct.std::_Tuple_impl.45"** %4, align 8
  %14 = call dereferenceable(8) %"class.MARC::ThreadPool"** @_ZNSt11_Tuple_implILm1EJPN4MARC10ThreadPoolEPSt6atomicIbEEE7_M_headERS6_(%"struct.std::_Tuple_impl.45"* dereferenceable(16) %13) #3
  %15 = call dereferenceable(8) %"class.MARC::ThreadPool"** @_ZSt7forwardIPN4MARC10ThreadPoolEEOT_RNSt16remove_referenceIS3_E4typeE(%"class.MARC::ThreadPool"** dereferenceable(8) %14) #3
  invoke void @_ZNSt10_Head_baseILm1EPN4MARC10ThreadPoolELb0EEC2IS2_EEOT_(%"struct.std::_Head_base.48"* %12, %"class.MARC::ThreadPool"** dereferenceable(8) %15)
          to label %16 unwind label %17

; <label>:16:                                     ; preds = %2
  ret void

; <label>:17:                                     ; preds = %2
  %18 = landingpad { i8*, i32 }
          catch i8* null
  %19 = extractvalue { i8*, i32 } %18, 0
  call void @__clang_call_terminate(i8* %19) #11
  unreachable
}

; Function Attrs: noinline nounwind uwtable
define linkonce_odr dereferenceable(16) %"struct.std::_Mem_fn"* @_ZSt7forwardISt7_Mem_fnIMN4MARC10ThreadPoolEFvPSt6atomicIbEEEEOT_RNSt16remove_referenceIS9_E4typeE(%"struct.std::_Mem_fn"* dereferenceable(16)) #5 comdat {
  %2 = alloca %"struct.std::_Mem_fn"*, align 8
  store %"struct.std::_Mem_fn"* %0, %"struct.std::_Mem_fn"** %2, align 8
  %3 = load %"struct.std::_Mem_fn"*, %"struct.std::_Mem_fn"** %2, align 8
  ret %"struct.std::_Mem_fn"* %3
}

; Function Attrs: noinline nounwind uwtable
define linkonce_odr dereferenceable(16) %"struct.std::_Mem_fn"* @_ZNSt11_Tuple_implILm0EJSt7_Mem_fnIMN4MARC10ThreadPoolEFvPSt6atomicIbEEEPS2_S5_EE7_M_headERSA_(%"struct.std::_Tuple_impl.44"* dereferenceable(32)) #5 comdat align 2 {
  %2 = alloca %"struct.std::_Tuple_impl.44"*, align 8
  store %"struct.std::_Tuple_impl.44"* %0, %"struct.std::_Tuple_impl.44"** %2, align 8
  %3 = load %"struct.std::_Tuple_impl.44"*, %"struct.std::_Tuple_impl.44"** %2, align 8
  %4 = bitcast %"struct.std::_Tuple_impl.44"* %3 to i8*
  %5 = getelementptr inbounds i8, i8* %4, i64 16
  %6 = bitcast i8* %5 to %"struct.std::_Head_base.49"*
  %7 = call dereferenceable(16) %"struct.std::_Mem_fn"* @_ZNSt10_Head_baseILm0ESt7_Mem_fnIMN4MARC10ThreadPoolEFvPSt6atomicIbEEELb0EE7_M_headERS9_(%"struct.std::_Head_base.49"* dereferenceable(16) %6) #3
  ret %"struct.std::_Mem_fn"* %7
}

; Function Attrs: noinline nounwind uwtable
define linkonce_odr void @_ZNSt10_Head_baseILm0ESt7_Mem_fnIMN4MARC10ThreadPoolEFvPSt6atomicIbEEELb0EEC2IS8_EEOT_(%"struct.std::_Head_base.49"*, %"struct.std::_Mem_fn"* dereferenceable(16)) unnamed_addr #5 comdat align 2 {
  %3 = alloca %"struct.std::_Head_base.49"*, align 8
  %4 = alloca %"struct.std::_Mem_fn"*, align 8
  store %"struct.std::_Head_base.49"* %0, %"struct.std::_Head_base.49"** %3, align 8
  store %"struct.std::_Mem_fn"* %1, %"struct.std::_Mem_fn"** %4, align 8
  %5 = load %"struct.std::_Head_base.49"*, %"struct.std::_Head_base.49"** %3, align 8
  %6 = getelementptr inbounds %"struct.std::_Head_base.49", %"struct.std::_Head_base.49"* %5, i32 0, i32 0
  %7 = load %"struct.std::_Mem_fn"*, %"struct.std::_Mem_fn"** %4, align 8
  %8 = call dereferenceable(16) %"struct.std::_Mem_fn"* @_ZSt7forwardISt7_Mem_fnIMN4MARC10ThreadPoolEFvPSt6atomicIbEEEEOT_RNSt16remove_referenceIS9_E4typeE(%"struct.std::_Mem_fn"* dereferenceable(16) %7) #3
  %9 = bitcast %"struct.std::_Mem_fn"* %6 to i8*
  %10 = bitcast %"struct.std::_Mem_fn"* %8 to i8*
  call void @llvm.memcpy.p0i8.p0i8.i64(i8* %9, i8* %10, i64 16, i32 8, i1 false)
  ret void
}

; Function Attrs: noinline nounwind uwtable
define linkonce_odr dereferenceable(8) %"struct.std::_Tuple_impl.46"* @_ZSt4moveIRSt11_Tuple_implILm2EJPSt6atomicIbEEEEONSt16remove_referenceIT_E4typeEOS7_(%"struct.std::_Tuple_impl.46"* dereferenceable(8)) #5 comdat {
  %2 = alloca %"struct.std::_Tuple_impl.46"*, align 8
  store %"struct.std::_Tuple_impl.46"* %0, %"struct.std::_Tuple_impl.46"** %2, align 8
  %3 = load %"struct.std::_Tuple_impl.46"*, %"struct.std::_Tuple_impl.46"** %2, align 8
  ret %"struct.std::_Tuple_impl.46"* %3
}

; Function Attrs: noinline nounwind uwtable
define linkonce_odr dereferenceable(8) %"struct.std::_Tuple_impl.46"* @_ZNSt11_Tuple_implILm1EJPN4MARC10ThreadPoolEPSt6atomicIbEEE7_M_tailERS6_(%"struct.std::_Tuple_impl.45"* dereferenceable(16)) #5 comdat align 2 {
  %2 = alloca %"struct.std::_Tuple_impl.45"*, align 8
  store %"struct.std::_Tuple_impl.45"* %0, %"struct.std::_Tuple_impl.45"** %2, align 8
  %3 = load %"struct.std::_Tuple_impl.45"*, %"struct.std::_Tuple_impl.45"** %2, align 8
  %4 = bitcast %"struct.std::_Tuple_impl.45"* %3 to %"struct.std::_Tuple_impl.46"*
  ret %"struct.std::_Tuple_impl.46"* %4
}

; Function Attrs: noinline nounwind uwtable
define linkonce_odr void @_ZNSt11_Tuple_implILm2EJPSt6atomicIbEEEC2EOS3_(%"struct.std::_Tuple_impl.46"*, %"struct.std::_Tuple_impl.46"* dereferenceable(8)) unnamed_addr #5 comdat align 2 personality i8* bitcast (i32 (...)* @__gxx_personality_v0 to i8*) {
  %3 = alloca %"struct.std::_Tuple_impl.46"*, align 8
  %4 = alloca %"struct.std::_Tuple_impl.46"*, align 8
  store %"struct.std::_Tuple_impl.46"* %0, %"struct.std::_Tuple_impl.46"** %3, align 8
  store %"struct.std::_Tuple_impl.46"* %1, %"struct.std::_Tuple_impl.46"** %4, align 8
  %5 = load %"struct.std::_Tuple_impl.46"*, %"struct.std::_Tuple_impl.46"** %3, align 8
  %6 = bitcast %"struct.std::_Tuple_impl.46"* %5 to %"struct.std::_Head_base.47"*
  %7 = load %"struct.std::_Tuple_impl.46"*, %"struct.std::_Tuple_impl.46"** %4, align 8
  %8 = call dereferenceable(8) %"struct.std::atomic"** @_ZNSt11_Tuple_implILm2EJPSt6atomicIbEEE7_M_headERS3_(%"struct.std::_Tuple_impl.46"* dereferenceable(8) %7) #3
  %9 = call dereferenceable(8) %"struct.std::atomic"** @_ZSt7forwardIPSt6atomicIbEEOT_RNSt16remove_referenceIS3_E4typeE(%"struct.std::atomic"** dereferenceable(8) %8) #3
  invoke void @_ZNSt10_Head_baseILm2EPSt6atomicIbELb0EEC2IS2_EEOT_(%"struct.std::_Head_base.47"* %6, %"struct.std::atomic"** dereferenceable(8) %9)
          to label %10 unwind label %11

; <label>:10:                                     ; preds = %2
  ret void

; <label>:11:                                     ; preds = %2
  %12 = landingpad { i8*, i32 }
          catch i8* null
  %13 = extractvalue { i8*, i32 } %12, 0
  call void @__clang_call_terminate(i8* %13) #11
  unreachable
}

; Function Attrs: noinline nounwind uwtable
define linkonce_odr dereferenceable(8) %"class.MARC::ThreadPool"** @_ZNSt11_Tuple_implILm1EJPN4MARC10ThreadPoolEPSt6atomicIbEEE7_M_headERS6_(%"struct.std::_Tuple_impl.45"* dereferenceable(16)) #5 comdat align 2 {
  %2 = alloca %"struct.std::_Tuple_impl.45"*, align 8
  store %"struct.std::_Tuple_impl.45"* %0, %"struct.std::_Tuple_impl.45"** %2, align 8
  %3 = load %"struct.std::_Tuple_impl.45"*, %"struct.std::_Tuple_impl.45"** %2, align 8
  %4 = bitcast %"struct.std::_Tuple_impl.45"* %3 to i8*
  %5 = getelementptr inbounds i8, i8* %4, i64 8
  %6 = bitcast i8* %5 to %"struct.std::_Head_base.48"*
  %7 = call dereferenceable(8) %"class.MARC::ThreadPool"** @_ZNSt10_Head_baseILm1EPN4MARC10ThreadPoolELb0EE7_M_headERS3_(%"struct.std::_Head_base.48"* dereferenceable(8) %6) #3
  ret %"class.MARC::ThreadPool"** %7
}

; Function Attrs: noinline nounwind uwtable
define linkonce_odr void @_ZNSt10_Head_baseILm1EPN4MARC10ThreadPoolELb0EEC2IS2_EEOT_(%"struct.std::_Head_base.48"*, %"class.MARC::ThreadPool"** dereferenceable(8)) unnamed_addr #5 comdat align 2 {
  %3 = alloca %"struct.std::_Head_base.48"*, align 8
  %4 = alloca %"class.MARC::ThreadPool"**, align 8
  store %"struct.std::_Head_base.48"* %0, %"struct.std::_Head_base.48"** %3, align 8
  store %"class.MARC::ThreadPool"** %1, %"class.MARC::ThreadPool"*** %4, align 8
  %5 = load %"struct.std::_Head_base.48"*, %"struct.std::_Head_base.48"** %3, align 8
  %6 = getelementptr inbounds %"struct.std::_Head_base.48", %"struct.std::_Head_base.48"* %5, i32 0, i32 0
  %7 = load %"class.MARC::ThreadPool"**, %"class.MARC::ThreadPool"*** %4, align 8
  %8 = call dereferenceable(8) %"class.MARC::ThreadPool"** @_ZSt7forwardIPN4MARC10ThreadPoolEEOT_RNSt16remove_referenceIS3_E4typeE(%"class.MARC::ThreadPool"** dereferenceable(8) %7) #3
  %9 = load %"class.MARC::ThreadPool"*, %"class.MARC::ThreadPool"** %8, align 8
  store %"class.MARC::ThreadPool"* %9, %"class.MARC::ThreadPool"** %6, align 8
  ret void
}

; Function Attrs: noinline nounwind uwtable
define linkonce_odr dereferenceable(8) %"struct.std::atomic"** @_ZNSt11_Tuple_implILm2EJPSt6atomicIbEEE7_M_headERS3_(%"struct.std::_Tuple_impl.46"* dereferenceable(8)) #5 comdat align 2 {
  %2 = alloca %"struct.std::_Tuple_impl.46"*, align 8
