; ModuleID = 'test_dswp.bc'
source_filename = "llvm-link"
target datalayout = "e-m:e-i64:64-f80:128-n8:16:32:64-S128"
target triple = "x86_64-unknown-linux-gnu"

%"class.std::ios_base::Init" = type { i8 }
%"class.std::basic_ostream" = type { i32 (...)**, %"class.std::basic_ios" }
%"class.std::basic_ios" = type { %"class.std::ios_base", %"class.std::basic_ostream"*, i8, i8, %"class.std::basic_streambuf"*, %"class.std::ctype"*, %"class.std::num_put"*, %"class.std::num_put"* }
%"class.std::ios_base" = type { i32 (...)**, i64, i64, i32, i32, i32, %"struct.std::ios_base::_Callback_list"*, %"struct.std::ios_base::_Words", [8 x %"struct.std::ios_base::_Words"], i32, %"struct.std::ios_base::_Words"*, %"class.std::locale" }
%"struct.std::ios_base::_Callback_list" = type { %"struct.std::ios_base::_Callback_list"*, void (i32, %"class.std::ios_base"*, i32)*, i32, i32 }
%"struct.std::ios_base::_Words" = type { i8*, i64 }
%"class.std::locale" = type { %"class.std::locale::_Impl"* }
%"class.std::locale::_Impl" = type { i32, %"class.std::locale::facet"**, i64, %"class.std::locale::facet"**, i8** }
%"class.std::locale::facet" = type <{ i32 (...)**, i32, [4 x i8] }>
%"class.std::basic_streambuf" = type { i32 (...)**, i8*, i8*, i8*, i8*, i8*, i8*, %"class.std::locale" }
%"class.std::ctype" = type <{ %"class.std::locale::facet.base", [4 x i8], %struct.__locale_struct*, i8, [7 x i8], i32*, i32*, i16*, i8, [256 x i8], [256 x i8], i8, [6 x i8] }>
%"class.std::locale::facet.base" = type <{ i32 (...)**, i32 }>
%struct.__locale_struct = type { [13 x %struct.__locale_data*], i16*, i32*, i32*, [13 x i8*] }
%struct.__locale_data = type opaque
%"class.std::num_put" = type { %"class.std::locale::facet.base", [4 x i8] }
%"class.std::basic_string" = type { %"struct.std::basic_string<char, std::char_traits<char>, std::allocator<char> >::_Alloc_hider" }
%"struct.std::basic_string<char, std::char_traits<char>, std::allocator<char> >::_Alloc_hider" = type { i8* }
%"struct.std::basic_string<char, std::char_traits<char>, std::allocator<char> >::_Rep" = type { %"struct.std::basic_string<char, std::char_traits<char>, std::allocator<char> >::_Rep_base" }
%"struct.std::basic_string<char, std::char_traits<char>, std::allocator<char> >::_Rep_base" = type { i64, i64, i32 }
%"class.MARC::ThreadSafeQueue" = type { %"struct.std::atomic", %"class.std::mutex", %"class.std::queue", %"class.std::condition_variable", %"class.std::condition_variable" }
%"struct.std::atomic" = type { %"class.std::ios_base::Init" }
%"class.std::mutex" = type { %"class.std::__mutex_base" }
%"class.std::__mutex_base" = type { %union.pthread_mutex_t }
%union.pthread_mutex_t = type { %"struct.(anonymous union)::__pthread_mutex_s" }
%"struct.(anonymous union)::__pthread_mutex_s" = type { i32, i32, i32, i32, i32, i16, i16, %struct.__pthread_internal_list }
%struct.__pthread_internal_list = type { %struct.__pthread_internal_list*, %struct.__pthread_internal_list* }
%"class.std::queue" = type { %"class.std::deque" }
%"class.std::deque" = type { %"class.std::_Deque_base" }
%"class.std::_Deque_base" = type { %"struct.std::_Deque_base<signed char, std::allocator<signed char> >::_Deque_impl" }
%"struct.std::_Deque_base<signed char, std::allocator<signed char> >::_Deque_impl" = type { i8**, i64, %"struct.std::_Deque_iterator", %"struct.std::_Deque_iterator" }
%"struct.std::_Deque_iterator" = type { i8*, i8*, i8*, i8** }
%"class.std::condition_variable" = type { %union.pthread_cond_t }
%union.pthread_cond_t = type { %struct.anon }
%struct.anon = type { i32, i32, i64, i64, i64, i8*, i32, i32 }
%"class.std::unique_lock" = type <{ %"class.std::mutex"*, i8, [7 x i8] }>
%"class.MARC::ThreadSafeQueue.3" = type { %"struct.std::atomic", %"class.std::mutex", %"class.std::queue.4", %"class.std::condition_variable", %"class.std::condition_variable" }
%"class.std::queue.4" = type { %"class.std::deque.5" }
%"class.std::deque.5" = type { %"class.std::_Deque_base.6" }
%"class.std::_Deque_base.6" = type { %"struct.std::_Deque_base<short, std::allocator<short> >::_Deque_impl" }
%"struct.std::_Deque_base<short, std::allocator<short> >::_Deque_impl" = type { i16**, i64, %"struct.std::_Deque_iterator.10", %"struct.std::_Deque_iterator.10" }
%"struct.std::_Deque_iterator.10" = type { i16*, i16*, i16*, i16** }
%"class.MARC::ThreadSafeQueue.11" = type { %"struct.std::atomic", %"class.std::mutex", %"class.std::queue.12", %"class.std::condition_variable", %"class.std::condition_variable" }
%"class.std::queue.12" = type { %"class.std::deque.13" }
%"class.std::deque.13" = type { %"class.std::_Deque_base.14" }
%"class.std::_Deque_base.14" = type { %"struct.std::_Deque_base<int, std::allocator<int> >::_Deque_impl" }
%"struct.std::_Deque_base<int, std::allocator<int> >::_Deque_impl" = type { i32**, i64, %"struct.std::_Deque_iterator.18", %"struct.std::_Deque_iterator.18" }
%"struct.std::_Deque_iterator.18" = type { i32*, i32*, i32*, i32** }
%"class.MARC::ThreadSafeQueue.19" = type { %"struct.std::atomic", %"class.std::mutex", %"class.std::queue.20", %"class.std::condition_variable", %"class.std::condition_variable" }
%"class.std::queue.20" = type { %"class.std::deque.21" }
%"class.std::deque.21" = type { %"class.std::_Deque_base.22" }
%"class.std::_Deque_base.22" = type { %"struct.std::_Deque_base<long, std::allocator<long> >::_Deque_impl" }
%"struct.std::_Deque_base<long, std::allocator<long> >::_Deque_impl" = type { i64**, i64, %"struct.std::_Deque_iterator.26", %"struct.std::_Deque_iterator.26" }
%"struct.std::_Deque_iterator.26" = type { i64*, i64*, i64*, i64** }
%"class.MARC::ThreadPool" = type { %"struct.std::atomic", %"class.MARC::ThreadSafeQueue.32", %"class.std::vector", %"struct.std::atomic"*, %"class.MARC::ThreadSafeQueue.45" }
%"class.MARC::ThreadSafeQueue.32" = type { %"struct.std::atomic", %"class.std::mutex", %"class.std::queue.33", %"class.std::condition_variable", %"class.std::condition_variable" }
%"class.std::queue.33" = type { %"class.std::deque.34" }
%"class.std::deque.34" = type { %"class.std::_Deque_base.35" }
%"class.std::_Deque_base.35" = type { %"struct.std::_Deque_base<std::unique_ptr<MARC::IThreadTask, std::default_delete<MARC::IThreadTask> >, std::allocator<std::unique_ptr<MARC::IThreadTask, std::default_delete<MARC::IThreadTask> > > >::_Deque_impl" }
%"struct.std::_Deque_base<std::unique_ptr<MARC::IThreadTask, std::default_delete<MARC::IThreadTask> >, std::allocator<std::unique_ptr<MARC::IThreadTask, std::default_delete<MARC::IThreadTask> > > >::_Deque_impl" = type { %"class.std::unique_ptr"**, i64, %"struct.std::_Deque_iterator.41", %"struct.std::_Deque_iterator.41" }
%"class.std::unique_ptr" = type { %"class.std::tuple" }
%"class.std::tuple" = type { %"struct.std::_Tuple_impl" }
%"struct.std::_Tuple_impl" = type { %"struct.std::_Head_base.40" }
%"struct.std::_Head_base.40" = type { %"class.MARC::IThreadTask"* }
%"class.MARC::IThreadTask" = type { i32 (...)** }
%"struct.std::_Deque_iterator.41" = type { %"class.std::unique_ptr"*, %"class.std::unique_ptr"*, %"class.std::unique_ptr"*, %"class.std::unique_ptr"** }
%"class.std::vector" = type { %"struct.std::_Vector_base" }
%"struct.std::_Vector_base" = type { %"struct.std::_Vector_base<std::thread, std::allocator<std::thread> >::_Vector_impl" }
%"struct.std::_Vector_base<std::thread, std::allocator<std::thread> >::_Vector_impl" = type { %"class.std::thread"*, %"class.std::thread"*, %"class.std::thread"* }
%"class.std::thread" = type { %"class.std::thread::id" }
%"class.std::thread::id" = type { i64 }
%"class.MARC::ThreadSafeQueue.45" = type { %"struct.std::atomic", %"class.std::mutex", %"class.std::queue.46", %"class.std::condition_variable", %"class.std::condition_variable" }
%"class.std::queue.46" = type { %"class.std::deque.47" }
%"class.std::deque.47" = type { %"class.std::_Deque_base.48" }
%"class.std::_Deque_base.48" = type { %"struct.std::_Deque_base<std::function<void ()>, std::allocator<std::function<void ()> > >::_Deque_impl" }
%"struct.std::_Deque_base<std::function<void ()>, std::allocator<std::function<void ()> > >::_Deque_impl" = type { %"class.std::function"**, i64, %"struct.std::_Deque_iterator.52", %"struct.std::_Deque_iterator.52" }
%"class.std::function" = type { %"class.std::_Function_base", void (%"union.std::_Any_data"*)* }
%"class.std::_Function_base" = type { %"union.std::_Any_data", i1 (%"union.std::_Any_data"*, %"union.std::_Any_data"*, i32)* }
%"union.std::_Any_data" = type { %"union.std::_Nocopy_types" }
%"union.std::_Nocopy_types" = type { { i64, i64 } }
%"struct.std::_Deque_iterator.52" = type { %"class.std::function"*, %"class.std::function"*, %"class.std::function"*, %"class.std::function"** }
%"class.std::vector.53" = type { %"struct.std::_Vector_base.54" }
%"struct.std::_Vector_base.54" = type { %"struct.std::_Vector_base<MARC::TaskFuture<void>, std::allocator<MARC::TaskFuture<void> > >::_Vector_impl" }
%"struct.std::_Vector_base<MARC::TaskFuture<void>, std::allocator<MARC::TaskFuture<void> > >::_Vector_impl" = type { %"class.MARC::TaskFuture"*, %"class.MARC::TaskFuture"*, %"class.MARC::TaskFuture"* }
%"class.MARC::TaskFuture" = type { %"class.std::future" }
%"class.std::future" = type { %"class.std::__basic_future" }
%"class.std::__basic_future" = type { %"class.std::shared_ptr" }
%"class.std::shared_ptr" = type { %"class.std::__shared_ptr" }
%"class.std::__shared_ptr" = type { %"class.std::__future_base::_State_baseV2"*, %"class.std::__shared_count" }
%"class.std::__future_base::_State_baseV2" = type <{ i32 (...)**, %"class.std::unique_ptr.58", %"class.std::__atomic_futex_unsigned", %"struct.std::atomic", [3 x i8], %"struct.std::__atomic_base.65", [4 x i8] }>
%"class.std::unique_ptr.58" = type { %"class.std::tuple.59" }
%"class.std::tuple.59" = type { %"struct.std::_Tuple_impl.60" }
%"struct.std::_Tuple_impl.60" = type { %"struct.std::_Head_base.63" }
%"struct.std::_Head_base.63" = type { %"struct.std::__future_base::_Result_base"* }
%"struct.std::__future_base::_Result_base" = type { i32 (...)**, %"struct.std::basic_string<char, std::char_traits<char>, std::allocator<char> >::_Alloc_hider" }
%"class.std::__atomic_futex_unsigned" = type { %"struct.std::atomic.64" }
%"struct.std::atomic.64" = type { %"struct.std::__atomic_base.65" }
%"struct.std::__atomic_base.65" = type { i32 }
%"class.std::__shared_count" = type { %"class.std::_Sp_counted_base"* }
%"class.std::_Sp_counted_base" = type { i32 (...)**, i32, i32 }
%"class.std::shared_ptr.121" = type { %"class.std::__shared_ptr.122" }
%"class.std::__shared_ptr.122" = type { %"struct.std::__future_base::_Task_state"*, %"class.std::__shared_count" }
%"struct.std::__future_base::_Task_state" = type { %"struct.std::__future_base::_Task_state_base", %"struct.std::__future_base::_Task_state<std::_Bind<void (*(void *, void *))(void *, void *)>, std::allocator<int>, void ()>::_Impl" }
%"struct.std::__future_base::_Task_state_base" = type { %"class.std::__future_base::_State_baseV2.base", %"class.std::unique_ptr.109" }
%"class.std::__future_base::_State_baseV2.base" = type <{ i32 (...)**, %"class.std::unique_ptr.58", %"class.std::__atomic_futex_unsigned", %"struct.std::atomic", [3 x i8], %"struct.std::__atomic_base.65" }>
%"class.std::unique_ptr.109" = type { %"class.std::tuple.110" }
%"class.std::tuple.110" = type { %"struct.std::_Tuple_impl.111" }
%"struct.std::_Tuple_impl.111" = type { %"struct.std::_Head_base.112" }
%"struct.std::_Head_base.112" = type { %"struct.std::__future_base::_Result"* }
%"struct.std::__future_base::_Result" = type { %"struct.std::__future_base::_Result_base" }
%"struct.std::__future_base::_Task_state<std::_Bind<void (*(void *, void *))(void *, void *)>, std::allocator<int>, void ()>::_Impl" = type { %"class.std::_Bind" }
%"class.std::_Bind" = type { void (i8*, i8*)*, %"class.std::tuple.102" }
%"class.std::tuple.102" = type { %"struct.std::_Tuple_impl.103" }
%"struct.std::_Tuple_impl.103" = type { %"class.std::basic_string", %"struct.std::basic_string<char, std::char_traits<char>, std::allocator<char> >::_Alloc_hider" }
%"class.std::packaged_task" = type { %"class.std::shared_ptr.107" }
%"class.std::shared_ptr.107" = type { %"class.std::__shared_ptr.108" }
%"class.std::__shared_ptr.108" = type { %"struct.std::__future_base::_Task_state_base"*, %"class.std::__shared_count" }
%"class.std::type_info" = type { i32 (...)**, i8* }
%"class.std::future_error" = type { %"class.std::logic_error", %"struct.std::error_code" }
%"class.std::logic_error" = type { %"class.MARC::IThreadTask", %"class.std::basic_string" }
%"struct.std::error_code" = type { i32, %"class.MARC::IThreadTask"* }
%"class.MARC::ThreadTask" = type { %"class.MARC::IThreadTask", %"class.std::packaged_task" }
%class.anon.135 = type { { i64, i64 }*, %"class.std::__future_base::_State_baseV2"**, %"class.std::function.133"**, i8** }
%"class.std::function.133" = type { %"class.std::_Function_base", void (%"class.std::unique_ptr.58"*, %"union.std::_Any_data"*)* }
%"struct.std::_Bind_simple.127" = type { %"class.std::tuple.128" }
%"class.std::tuple.128" = type { %"struct.std::_Tuple_impl.129" }
%"struct.std::_Tuple_impl.129" = type { %"struct.std::_Head_base.130" }
%"struct.std::_Head_base.130" = type { %"class.std::reference_wrapper" }
%"class.std::reference_wrapper" = type { %"class.std::_Bind"* }
%"class.std::_Sp_counted_ptr_inplace" = type { %"class.std::_Sp_counted_base", %"class.std::_Sp_counted_ptr_inplace<std::__future_base::_Task_state<std::_Bind<void (*(void *, void *))(void *, void *)>, std::allocator<int>, void ()>, std::allocator<int>, __gnu_cxx::_Lock_policy::_S_atomic>::_Impl" }
%"class.std::_Sp_counted_ptr_inplace<std::__future_base::_Task_state<std::_Bind<void (*(void *, void *))(void *, void *)>, std::allocator<int>, void ()>, std::allocator<int>, __gnu_cxx::_Lock_policy::_S_atomic>::_Impl" = type { %"struct.__gnu_cxx::__aligned_buffer" }
%"struct.__gnu_cxx::__aligned_buffer" = type { %"union.std::aligned_storage<64, 8>::type" }
%"union.std::aligned_storage<64, 8>::type" = type { [64 x i8] }
%"struct.std::__future_base::_Task_setter" = type { %"class.std::unique_ptr.109"*, %"struct.std::_Bind_simple.127"* }
%"struct.std::__future_base::_State_baseV2::_Make_ready" = type { %"struct.std::__at_thread_exit_elt", %"class.std::shared_ptr" }
%"struct.std::__at_thread_exit_elt" = type { %"struct.std::__at_thread_exit_elt"*, void (i8*)* }
%union.pthread_attr_t = type { i64, [48 x i8] }
%"struct.std::thread::_State_impl" = type { %"class.MARC::IThreadTask", %"struct.std::_Bind_simple" }
%"struct.std::_Bind_simple" = type { %"class.std::tuple.92" }
%"class.std::tuple.92" = type { %"struct.std::_Tuple_impl.93" }
%"struct.std::_Tuple_impl.93" = type { %"struct.std::_Tuple_impl.94", %"struct.std::_Head_base.98" }
%"struct.std::_Tuple_impl.94" = type { %"struct.std::_Tuple_impl.95", %"struct.std::_Head_base.97" }
%"struct.std::_Tuple_impl.95" = type { %"struct.std::_Head_base.96" }
%"struct.std::_Head_base.96" = type { %"struct.std::atomic"* }
%"struct.std::_Head_base.97" = type { %"class.MARC::ThreadPool"* }
%"struct.std::_Head_base.98" = type { %"union.std::_Any_data" }

$_ZSt4sqrtf = comdat any

$_ZN4MARC15ThreadSafeQueueIaE4pushEa = comdat any

$_ZNSt5dequeIaSaIaEE17_M_reallocate_mapEmb = comdat any

$_ZN4MARC15ThreadSafeQueueIaE7waitPopERa = comdat any

$_ZN4MARC15ThreadSafeQueueIsE4pushEs = comdat any

$_ZNSt5dequeIsSaIsEE17_M_reallocate_mapEmb = comdat any

$_ZN4MARC15ThreadSafeQueueIsE7waitPopERs = comdat any

$_ZN4MARC15ThreadSafeQueueIiE4pushEi = comdat any

$_ZNSt5dequeIiSaIiEE17_M_reallocate_mapEmb = comdat any

$_ZN4MARC15ThreadSafeQueueIiE7waitPopERi = comdat any

$_ZN4MARC15ThreadSafeQueueIlE4pushEl = comdat any

$_ZNSt5dequeIlSaIlEE17_M_reallocate_mapEmb = comdat any

$_ZN4MARC15ThreadSafeQueueIlE7waitPopERl = comdat any

$_ZN4MARC15ThreadSafeQueueIcE4pushEc = comdat any

$_ZNSt5dequeIcSaIcEE17_M_reallocate_mapEmb = comdat any

$_ZN4MARC15ThreadSafeQueueIcE7waitPopERc = comdat any

$_ZN4MARC10ThreadPoolC2EjSt8functionIFvvEE = comdat any

$_ZN4MARC15ThreadSafeQueueIaEC2Ev = comdat any

$_ZN4MARC15ThreadSafeQueueIsEC2Ev = comdat any

$_ZN4MARC15ThreadSafeQueueIiEC2Ev = comdat any

$_ZN4MARC15ThreadSafeQueueIlEC2Ev = comdat any

$__clang_call_terminate = comdat any

$_ZN4MARC10ThreadPool6submitIRPFvPvS2_EJRS2_S2_EEEDaOT_DpOT0_ = comdat any

$_ZNSt6vectorIN4MARC10TaskFutureIvEESaIS2_EE19_M_emplace_back_auxIJS2_EEEvDpOT_ = comdat any

$_ZNSt6futureIvE3getEv = comdat any

$_ZNSt14__basic_futureIvED2Ev = comdat any

$_ZNSt6vectorIN4MARC10TaskFutureIvEESaIS2_EED2Ev = comdat any

$_ZN4MARC10ThreadPoolD2Ev = comdat any

$_ZN4MARC15ThreadSafeQueueIaED2Ev = comdat any

$_ZN4MARC15ThreadSafeQueueIsED2Ev = comdat any

$_ZN4MARC15ThreadSafeQueueIiED2Ev = comdat any

$_ZN4MARC15ThreadSafeQueueIlED2Ev = comdat any

$_ZNSt5queueIlSt5dequeIlSaIlEEED2Ev = comdat any

$_ZNSt5queueIiSt5dequeIiSaIiEEED2Ev = comdat any

$_ZNSt5queueIsSt5dequeIsSaIsEEED2Ev = comdat any

$_ZNSt5queueIaSt5dequeIaSaIaEEED2Ev = comdat any

$_ZN4MARC10ThreadPool7destroyEv = comdat any

$_ZN4MARC15ThreadSafeQueueISt8functionIFvvEEED2Ev = comdat any

$_ZN4MARC15ThreadSafeQueueISt10unique_ptrINS_11IThreadTaskESt14default_deleteIS2_EEED2Ev = comdat any

$_ZNSt6vectorISt6threadSaIS0_EED2Ev = comdat any

$_ZNSt5dequeISt10unique_ptrIN4MARC11IThreadTaskESt14default_deleteIS2_EESaIS5_EED2Ev = comdat any

$_ZNSt5dequeISt8functionIFvvEESaIS2_EED2Ev = comdat any

$_ZNSt5dequeISt8functionIFvvEESaIS2_EE19_M_destroy_data_auxESt15_Deque_iteratorIS2_RS2_PS2_ES8_ = comdat any

$_ZNSt11_Deque_baseISt8functionIFvvEESaIS2_EED2Ev = comdat any

$_ZN4MARC15ThreadSafeQueueISt8functionIFvvEEE7waitPopERS3_ = comdat any

$_ZN4MARC15ThreadSafeQueueISt8functionIFvvEEE12internal_popERS3_ = comdat any

$_ZNKSt14__basic_futureIvE13_M_get_resultEv = comdat any

$_ZSt32__enable_shared_from_this_helperILN9__gnu_cxx12_Lock_policyE2EEvRKSt14__shared_countIXT_EEz = comdat any

$_ZNSt13packaged_taskIFvvEE10get_futureEv = comdat any

$_ZNSt5dequeISt10unique_ptrIN4MARC11IThreadTaskESt14default_deleteIS2_EESaIS5_EE17_M_reallocate_mapEmb = comdat any

$_ZNSt13packaged_taskIFvvEED2Ev = comdat any

$_ZNSt13__future_base13_State_baseV216_M_break_promiseESt10unique_ptrINS_12_Result_baseENS2_8_DeleterEE = comdat any

$_ZNSt10unique_ptrINSt13__future_base12_Result_baseENS1_8_DeleterEED2Ev = comdat any

$_ZNSt12__shared_ptrINSt13__future_base16_Task_state_baseIFvvEEELN9__gnu_cxx12_Lock_policyE2EED2Ev = comdat any

$_ZNSt12future_errorC2ESt10error_code = comdat any

$_ZSt18make_exception_ptrISt12future_errorENSt15__exception_ptr13exception_ptrET_ = comdat any

$_ZN4MARC10ThreadTaskISt13packaged_taskIFvvEEE7executeEv = comdat any

$_ZN4MARC10ThreadTaskISt13packaged_taskIFvvEEED2Ev = comdat any

$_ZN4MARC10ThreadTaskISt13packaged_taskIFvvEEED0Ev = comdat any

$_ZNSt13__future_base11_Task_stateISt5_BindIFPFvPvS2_ES2_S2_EESaIiEFvvEED2Ev = comdat any

$_ZNSt13__future_base11_Task_stateISt5_BindIFPFvPvS2_ES2_S2_EESaIiEFvvEED0Ev = comdat any

$_ZNSt13__future_base13_State_baseV217_M_complete_asyncEv = comdat any

$_ZNKSt13__future_base13_State_baseV221_M_is_deferred_futureEv = comdat any

$_ZNSt13__future_base11_Task_stateISt5_BindIFPFvPvS2_ES2_S2_EESaIiEFvvEE6_M_runEv = comdat any

$_ZNSt13__future_base11_Task_stateISt5_BindIFPFvPvS2_ES2_S2_EESaIiEFvvEE14_M_run_delayedESt8weak_ptrINS_13_State_baseV2EE = comdat any

$_ZNSt13__future_base11_Task_stateISt5_BindIFPFvPvS2_ES2_S2_EESaIiEFvvEE8_M_resetEv = comdat any

$_ZNSt23_Sp_counted_ptr_inplaceINSt13__future_base11_Task_stateISt5_BindIFPFvPvS3_ES3_S3_EESaIiEFvvEEES8_LN9__gnu_cxx12_Lock_policyE2EEC2IJS7_RKS8_EEES8_DpOT_ = comdat any

$_ZNSt17_Function_handlerIFSt10unique_ptrINSt13__future_base12_Result_baseENS2_8_DeleterEEvENS1_12_Task_setterIS0_INS1_7_ResultIvEES3_ESt12_Bind_simpleIFSt17reference_wrapperISt5_BindIFPFvPvSD_ESD_SD_EEEvEEvEEE9_M_invokeERKSt9_Any_data = comdat any

$_ZNSt14_Function_base13_Base_managerINSt13__future_base12_Task_setterISt10unique_ptrINS1_7_ResultIvEENS1_12_Result_base8_DeleterEESt12_Bind_simpleIFSt17reference_wrapperISt5_BindIFPFvPvSC_ESC_SC_EEEvEEvEEE10_M_managerERSt9_Any_dataRKSM_St18_Manager_operation = comdat any

$_ZNSt13__future_base13_State_baseV221_M_set_delayed_resultESt8functionIFSt10unique_ptrINS_12_Result_baseENS3_8_DeleterEEvEESt8weak_ptrIS0_E = comdat any

$_ZNSt13__future_base13_State_baseV29_M_do_setEPSt8functionIFSt10unique_ptrINS_12_Result_baseENS3_8_DeleterEEvEEPb = comdat any

$_ZZSt9call_onceIMNSt13__future_base13_State_baseV2EFvPSt8functionIFSt10unique_ptrINS0_12_Result_baseENS4_8_DeleterEEvEEPbEJPS1_S9_SA_EEvRSt9once_flagOT_DpOT0_ENUlvE0_8__invokeEv = comdat any

$_ZNKSt13__future_base12_Task_setterISt10unique_ptrINS_7_ResultIvEENS_12_Result_base8_DeleterEESt12_Bind_simpleIFSt17reference_wrapperISt5_BindIFPFvPvSA_ESA_SA_EEEvEEvEclEv = comdat any

$_ZNSt13__future_base7_ResultIvE10_M_destroyEv = comdat any

$_ZNSt13__future_base7_ResultIvED0Ev = comdat any

$_ZNSt13__future_base13_State_baseV2D2Ev = comdat any

$_ZNSt13__future_base13_State_baseV2D0Ev = comdat any

$_ZNSt13__future_base16_Task_state_baseIFvvEED2Ev = comdat any

$_ZNSt13__future_base16_Task_state_baseIFvvEED0Ev = comdat any

$_ZNSt23_Sp_counted_ptr_inplaceINSt13__future_base11_Task_stateISt5_BindIFPFvPvS3_ES3_S3_EESaIiEFvvEEES8_LN9__gnu_cxx12_Lock_policyE2EED2Ev = comdat any

$_ZNSt23_Sp_counted_ptr_inplaceINSt13__future_base11_Task_stateISt5_BindIFPFvPvS3_ES3_S3_EESaIiEFvvEEES8_LN9__gnu_cxx12_Lock_policyE2EED0Ev = comdat any

$_ZNSt23_Sp_counted_ptr_inplaceINSt13__future_base11_Task_stateISt5_BindIFPFvPvS3_ES3_S3_EESaIiEFvvEEES8_LN9__gnu_cxx12_Lock_policyE2EE10_M_disposeEv = comdat any

$_ZNSt23_Sp_counted_ptr_inplaceINSt13__future_base11_Task_stateISt5_BindIFPFvPvS3_ES3_S3_EESaIiEFvvEEES8_LN9__gnu_cxx12_Lock_policyE2EE10_M_destroyEv = comdat any

$_ZNSt23_Sp_counted_ptr_inplaceINSt13__future_base11_Task_stateISt5_BindIFPFvPvS3_ES3_S3_EESaIiEFvvEEES8_LN9__gnu_cxx12_Lock_policyE2EE14_M_get_deleterERKSt9type_info = comdat any

$_ZNSt11_Deque_baseIlSaIlEE17_M_initialize_mapEm = comdat any

$_ZNSt11_Deque_baseIiSaIiEE17_M_initialize_mapEm = comdat any

$_ZNSt11_Deque_baseIsSaIsEE17_M_initialize_mapEm = comdat any

$_ZNSt11_Deque_baseIaSaIaEE17_M_initialize_mapEm = comdat any

$_ZN4MARC15ThreadSafeQueueISt10unique_ptrINS_11IThreadTaskESt14default_deleteIS2_EEEC2Ev = comdat any

$_ZN4MARC15ThreadSafeQueueISt8functionIFvvEEEC2Ev = comdat any

$_ZN4MARC10ThreadPool6workerEPSt6atomicIbE = comdat any

$_ZN4MARC15ThreadSafeQueueISt8functionIFvvEEE4pushES3_ = comdat any

$_ZNSt5dequeISt8functionIFvvEESaIS2_EE17_M_reallocate_mapEmb = comdat any

$_ZNSt6vectorISt6threadSaIS0_EE19_M_emplace_back_auxIJMN4MARC10ThreadPoolEFvPSt6atomicIbEEPS5_S8_EEEvDpOT_ = comdat any

$_ZNSt6thread11_State_implISt12_Bind_simpleIFSt7_Mem_fnIMN4MARC10ThreadPoolEFvPSt6atomicIbEEEPS4_S7_EEED0Ev = comdat any

$_ZNSt6thread11_State_implISt12_Bind_simpleIFSt7_Mem_fnIMN4MARC10ThreadPoolEFvPSt6atomicIbEEEPS4_S7_EEE6_M_runEv = comdat any

$_ZN4MARC15ThreadSafeQueueISt10unique_ptrINS_11IThreadTaskESt14default_deleteIS2_EEE7waitPopERS5_ = comdat any

$_ZNSt11_Deque_baseISt8functionIFvvEESaIS2_EE17_M_initialize_mapEm = comdat any

$_ZNSt11_Deque_baseISt10unique_ptrIN4MARC11IThreadTaskESt14default_deleteIS2_EESaIS5_EE17_M_initialize_mapEm = comdat any

$_ZTVSt23_Sp_counted_ptr_inplaceINSt13__future_base11_Task_stateISt5_BindIFPFvPvS3_ES3_S3_EESaIiEFvvEEES8_LN9__gnu_cxx12_Lock_policyE2EE = comdat any

$_ZTVNSt13__future_base16_Task_state_baseIFvvEEE = comdat any

$_ZTVNSt13__future_base13_State_baseV2E = comdat any

$_ZTVNSt13__future_base7_ResultIvEE = comdat any

$_ZTVNSt13__future_base11_Task_stateISt5_BindIFPFvPvS2_ES2_S2_EESaIiEFvvEEE = comdat any

$_ZTISt19_Sp_make_shared_tag = comdat any

$_ZTVN4MARC10ThreadTaskISt13packaged_taskIFvvEEEE = comdat any

$_ZTIN4MARC10ThreadTaskISt13packaged_taskIFvvEEEE = comdat any

$_ZTSN4MARC10ThreadTaskISt13packaged_taskIFvvEEEE = comdat any

$_ZTIN4MARC11IThreadTaskE = comdat any

$_ZTSN4MARC11IThreadTaskE = comdat any

$_ZTSSt19_Sp_make_shared_tag = comdat any

$_ZTINSt13__future_base11_Task_stateISt5_BindIFPFvPvS2_ES2_S2_EESaIiEFvvEEE = comdat any

$_ZTINSt13__future_base12_Task_setterISt10unique_ptrINS_7_ResultIvEENS_12_Result_base8_DeleterEESt12_Bind_simpleIFSt17reference_wrapperISt5_BindIFPFvPvSA_ESA_SA_EEEvEEvEE = comdat any

$_ZTSNSt13__future_base12_Task_setterISt10unique_ptrINS_7_ResultIvEENS_12_Result_base8_DeleterEESt12_Bind_simpleIFSt17reference_wrapperISt5_BindIFPFvPvSA_ESA_SA_EEEvEEvEE = comdat any

$_ZTSNSt13__future_base11_Task_stateISt5_BindIFPFvPvS2_ES2_S2_EESaIiEFvvEEE = comdat any

$_ZTINSt13__future_base16_Task_state_baseIFvvEEE = comdat any

$_ZTSNSt13__future_base16_Task_state_baseIFvvEEE = comdat any

$_ZTINSt13__future_base13_State_baseV2E = comdat any

$_ZTSNSt13__future_base13_State_baseV2E = comdat any

$_ZTINSt13__future_base7_ResultIvEE = comdat any

$_ZTSNSt13__future_base7_ResultIvEE = comdat any

$_ZTISt23_Sp_counted_ptr_inplaceINSt13__future_base11_Task_stateISt5_BindIFPFvPvS3_ES3_S3_EESaIiEFvvEEES8_LN9__gnu_cxx12_Lock_policyE2EE = comdat any

$_ZTSSt23_Sp_counted_ptr_inplaceINSt13__future_base11_Task_stateISt5_BindIFPFvPvS3_ES3_S3_EESaIiEFvvEEES8_LN9__gnu_cxx12_Lock_policyE2EE = comdat any

$_ZTISt16_Sp_counted_baseILN9__gnu_cxx12_Lock_policyE2EE = comdat any

$_ZTSSt16_Sp_counted_baseILN9__gnu_cxx12_Lock_policyE2EE = comdat any

$_ZTISt11_Mutex_baseILN9__gnu_cxx12_Lock_policyE2EE = comdat any

$_ZTSSt11_Mutex_baseILN9__gnu_cxx12_Lock_policyE2EE = comdat any

$_ZTVNSt6thread11_State_implISt12_Bind_simpleIFSt7_Mem_fnIMN4MARC10ThreadPoolEFvPSt6atomicIbEEEPS4_S7_EEEE = comdat any

$_ZTINSt6thread11_State_implISt12_Bind_simpleIFSt7_Mem_fnIMN4MARC10ThreadPoolEFvPSt6atomicIbEEEPS4_S7_EEEE = comdat any

$_ZTSNSt6thread11_State_implISt12_Bind_simpleIFSt7_Mem_fnIMN4MARC10ThreadPoolEFvPSt6atomicIbEEEPS4_S7_EEEE = comdat any

@.str = private unnamed_addr constant [4 x i8] c"%f\0A\00", align 1
@llvm.global_ctors = appending global [1 x { i32, void ()*, i8* }] [{ i32, void ()*, i8* } { i32 65535, void ()* @_GLOBAL__sub_I_DSWP_utils.cpp, i8* null }]
@_ZStL8__ioinit = internal global %"class.std::ios_base::Init" zeroinitializer, align 1
@__dso_handle = external hidden global i8
@_ZNSs4_Rep20_S_empty_rep_storageE = external global [0 x i64], align 8
@.str.1 = private unnamed_addr constant [10 x i8] c"Reached: \00", align 1
@.str.2 = private unnamed_addr constant [13 x i8] c"Reached: %d\0A\00", align 1
@str = private unnamed_addr constant [13 x i8] c"Spurious pop\00"
@_ZSt4cerr = external global %"class.std::basic_ostream", align 8
@.str.4 = private unnamed_addr constant [23 x i8] c"QUEUE SIZE INCORRECT!\0A\00", align 1
@_ZTVSt23_Sp_counted_ptr_inplaceINSt13__future_base11_Task_stateISt5_BindIFPFvPvS3_ES3_S3_EESaIiEFvvEEES8_LN9__gnu_cxx12_Lock_policyE2EE = linkonce_odr unnamed_addr constant { [7 x i8*] } { [7 x i8*] [i8* null, i8* bitcast ({ i8*, i8*, i8* }* @_ZTISt23_Sp_counted_ptr_inplaceINSt13__future_base11_Task_stateISt5_BindIFPFvPvS3_ES3_S3_EESaIiEFvvEEES8_LN9__gnu_cxx12_Lock_policyE2EE to i8*), i8* bitcast (void (%"class.std::_Sp_counted_ptr_inplace"*)* @_ZNSt23_Sp_counted_ptr_inplaceINSt13__future_base11_Task_stateISt5_BindIFPFvPvS3_ES3_S3_EESaIiEFvvEEES8_LN9__gnu_cxx12_Lock_policyE2EED2Ev to i8*), i8* bitcast (void (%"class.std::_Sp_counted_ptr_inplace"*)* @_ZNSt23_Sp_counted_ptr_inplaceINSt13__future_base11_Task_stateISt5_BindIFPFvPvS3_ES3_S3_EESaIiEFvvEEES8_LN9__gnu_cxx12_Lock_policyE2EED0Ev to i8*), i8* bitcast (void (%"class.std::_Sp_counted_ptr_inplace"*)* @_ZNSt23_Sp_counted_ptr_inplaceINSt13__future_base11_Task_stateISt5_BindIFPFvPvS3_ES3_S3_EESaIiEFvvEEES8_LN9__gnu_cxx12_Lock_policyE2EE10_M_disposeEv to i8*), i8* bitcast (void (%"class.std::_Sp_counted_ptr_inplace"*)* @_ZNSt23_Sp_counted_ptr_inplaceINSt13__future_base11_Task_stateISt5_BindIFPFvPvS3_ES3_S3_EESaIiEFvvEEES8_LN9__gnu_cxx12_Lock_policyE2EE10_M_destroyEv to i8*), i8* bitcast (i8* (%"class.std::_Sp_counted_ptr_inplace"*, %"class.std::type_info"*)* @_ZNSt23_Sp_counted_ptr_inplaceINSt13__future_base11_Task_stateISt5_BindIFPFvPvS3_ES3_S3_EESaIiEFvvEEES8_LN9__gnu_cxx12_Lock_policyE2EE14_M_get_deleterERKSt9type_info to i8*)] }, comdat, align 8
@_ZTVNSt13__future_base16_Task_state_baseIFvvEEE = linkonce_odr unnamed_addr constant { [9 x i8*] } { [9 x i8*] [i8* null, i8* bitcast ({ i8*, i8*, i8* }* @_ZTINSt13__future_base16_Task_state_baseIFvvEEE to i8*), i8* bitcast (void (%"struct.std::__future_base::_Task_state_base"*)* @_ZNSt13__future_base16_Task_state_baseIFvvEED2Ev to i8*), i8* bitcast (void (%"struct.std::__future_base::_Task_state_base"*)* @_ZNSt13__future_base16_Task_state_baseIFvvEED0Ev to i8*), i8* bitcast (void (%"class.std::__future_base::_State_baseV2"*)* @_ZNSt13__future_base13_State_baseV217_M_complete_asyncEv to i8*), i8* bitcast (i1 (%"class.std::__future_base::_State_baseV2"*)* @_ZNKSt13__future_base13_State_baseV221_M_is_deferred_futureEv to i8*), i8* bitcast (void ()* @__cxa_pure_virtual to i8*), i8* bitcast (void ()* @__cxa_pure_virtual to i8*), i8* bitcast (void ()* @__cxa_pure_virtual to i8*)] }, comdat, align 8
@_ZTVNSt13__future_base13_State_baseV2E = linkonce_odr unnamed_addr constant { [6 x i8*] } { [6 x i8*] [i8* null, i8* bitcast ({ i8*, i8* }* @_ZTINSt13__future_base13_State_baseV2E to i8*), i8* bitcast (void (%"class.std::__future_base::_State_baseV2"*)* @_ZNSt13__future_base13_State_baseV2D2Ev to i8*), i8* bitcast (void (%"class.std::__future_base::_State_baseV2"*)* @_ZNSt13__future_base13_State_baseV2D0Ev to i8*), i8* bitcast (void (%"class.std::__future_base::_State_baseV2"*)* @_ZNSt13__future_base13_State_baseV217_M_complete_asyncEv to i8*), i8* bitcast (i1 (%"class.std::__future_base::_State_baseV2"*)* @_ZNKSt13__future_base13_State_baseV221_M_is_deferred_futureEv to i8*)] }, comdat, align 8
@_ZTVNSt13__future_base7_ResultIvEE = linkonce_odr unnamed_addr constant { [5 x i8*] } { [5 x i8*] [i8* null, i8* bitcast ({ i8*, i8*, i8* }* @_ZTINSt13__future_base7_ResultIvEE to i8*), i8* bitcast (void (%"struct.std::__future_base::_Result"*)* @_ZNSt13__future_base7_ResultIvE10_M_destroyEv to i8*), i8* bitcast (void (%"struct.std::__future_base::_Result_base"*)* @_ZNSt13__future_base12_Result_baseD2Ev to i8*), i8* bitcast (void (%"struct.std::__future_base::_Result"*)* @_ZNSt13__future_base7_ResultIvED0Ev to i8*)] }, comdat, align 8
@_ZTVNSt13__future_base11_Task_stateISt5_BindIFPFvPvS2_ES2_S2_EESaIiEFvvEEE = linkonce_odr unnamed_addr constant { [9 x i8*] } { [9 x i8*] [i8* null, i8* bitcast ({ i8*, i8*, i8* }* @_ZTINSt13__future_base11_Task_stateISt5_BindIFPFvPvS2_ES2_S2_EESaIiEFvvEEE to i8*), i8* bitcast (void (%"struct.std::__future_base::_Task_state"*)* @_ZNSt13__future_base11_Task_stateISt5_BindIFPFvPvS2_ES2_S2_EESaIiEFvvEED2Ev to i8*), i8* bitcast (void (%"struct.std::__future_base::_Task_state"*)* @_ZNSt13__future_base11_Task_stateISt5_BindIFPFvPvS2_ES2_S2_EESaIiEFvvEED0Ev to i8*), i8* bitcast (void (%"class.std::__future_base::_State_baseV2"*)* @_ZNSt13__future_base13_State_baseV217_M_complete_asyncEv to i8*), i8* bitcast (i1 (%"class.std::__future_base::_State_baseV2"*)* @_ZNKSt13__future_base13_State_baseV221_M_is_deferred_futureEv to i8*), i8* bitcast (void (%"struct.std::__future_base::_Task_state"*)* @_ZNSt13__future_base11_Task_stateISt5_BindIFPFvPvS2_ES2_S2_EESaIiEFvvEE6_M_runEv to i8*), i8* bitcast (void (%"struct.std::__future_base::_Task_state"*, %"class.std::shared_ptr"*)* @_ZNSt13__future_base11_Task_stateISt5_BindIFPFvPvS2_ES2_S2_EESaIiEFvvEE14_M_run_delayedESt8weak_ptrINS_13_State_baseV2EE to i8*), i8* bitcast (void (%"class.std::shared_ptr.107"*, %"struct.std::__future_base::_Task_state"*)* @_ZNSt13__future_base11_Task_stateISt5_BindIFPFvPvS2_ES2_S2_EESaIiEFvvEE8_M_resetEv to i8*)] }, comdat, align 8
@_ZTISt19_Sp_make_shared_tag = linkonce_odr constant { i8*, i8* } { i8* bitcast (i8** getelementptr inbounds (i8*, i8** @_ZTVN10__cxxabiv117__class_type_infoE, i64 2) to i8*), i8* getelementptr inbounds ([24 x i8], [24 x i8]* @_ZTSSt19_Sp_make_shared_tag, i32 0, i32 0) }, comdat
@_ZTVN4MARC10ThreadTaskISt13packaged_taskIFvvEEEE = linkonce_odr unnamed_addr constant { [5 x i8*] } { [5 x i8*] [i8* null, i8* bitcast ({ i8*, i8*, i8* }* @_ZTIN4MARC10ThreadTaskISt13packaged_taskIFvvEEEE to i8*), i8* bitcast (void (%"class.MARC::ThreadTask"*)* @_ZN4MARC10ThreadTaskISt13packaged_taskIFvvEEE7executeEv to i8*), i8* bitcast (void (%"class.MARC::ThreadTask"*)* @_ZN4MARC10ThreadTaskISt13packaged_taskIFvvEEED2Ev to i8*), i8* bitcast (void (%"class.MARC::ThreadTask"*)* @_ZN4MARC10ThreadTaskISt13packaged_taskIFvvEEED0Ev to i8*)] }, comdat, align 8
@_ZTVSt11logic_error = external unnamed_addr constant { [5 x i8*] }, align 8
@_ZTVSt12future_error = external unnamed_addr constant { [5 x i8*] }, align 8
@_ZTISt12future_error = external constant i8*
@.str.6 = private unnamed_addr constant [20 x i8] c"std::future_error: \00", align 1
@_ZTIN4MARC10ThreadTaskISt13packaged_taskIFvvEEEE = linkonce_odr constant { i8*, i8*, i8* } { i8* bitcast (i8** getelementptr inbounds (i8*, i8** @_ZTVN10__cxxabiv120__si_class_type_infoE, i64 2) to i8*), i8* getelementptr inbounds ([45 x i8], [45 x i8]* @_ZTSN4MARC10ThreadTaskISt13packaged_taskIFvvEEEE, i32 0, i32 0), i8* bitcast ({ i8*, i8* }* @_ZTIN4MARC11IThreadTaskE to i8*) }, comdat
@_ZTVN10__cxxabiv120__si_class_type_infoE = external global i8*
@_ZTSN4MARC10ThreadTaskISt13packaged_taskIFvvEEEE = linkonce_odr constant [45 x i8] c"N4MARC10ThreadTaskISt13packaged_taskIFvvEEEE\00", comdat
@_ZTIN4MARC11IThreadTaskE = linkonce_odr constant { i8*, i8* } { i8* bitcast (i8** getelementptr inbounds (i8*, i8** @_ZTVN10__cxxabiv117__class_type_infoE, i64 2) to i8*), i8* getelementptr inbounds ([21 x i8], [21 x i8]* @_ZTSN4MARC11IThreadTaskE, i32 0, i32 0) }, comdat
@_ZTVN10__cxxabiv117__class_type_infoE = external global i8*
@_ZTSN4MARC11IThreadTaskE = linkonce_odr constant [21 x i8] c"N4MARC11IThreadTaskE\00", comdat
@_ZTSSt19_Sp_make_shared_tag = linkonce_odr constant [24 x i8] c"St19_Sp_make_shared_tag\00", comdat
@_ZTINSt13__future_base11_Task_stateISt5_BindIFPFvPvS2_ES2_S2_EESaIiEFvvEEE = linkonce_odr constant { i8*, i8*, i8* } { i8* bitcast (i8** getelementptr inbounds (i8*, i8** @_ZTVN10__cxxabiv120__si_class_type_infoE, i64 2) to i8*), i8* getelementptr inbounds ([71 x i8], [71 x i8]* @_ZTSNSt13__future_base11_Task_stateISt5_BindIFPFvPvS2_ES2_S2_EESaIiEFvvEEE, i32 0, i32 0), i8* bitcast ({ i8*, i8*, i8* }* @_ZTINSt13__future_base16_Task_state_baseIFvvEEE to i8*) }, comdat
@_ZSt15__once_callable = external thread_local local_unnamed_addr global i8*, align 8
@_ZSt11__once_call = external thread_local local_unnamed_addr global void ()*, align 8
@_ZTINSt13__future_base12_Task_setterISt10unique_ptrINS_7_ResultIvEENS_12_Result_base8_DeleterEESt12_Bind_simpleIFSt17reference_wrapperISt5_BindIFPFvPvSA_ESA_SA_EEEvEEvEE = linkonce_odr constant { i8*, i8* } { i8* bitcast (i8** getelementptr inbounds (i8*, i8** @_ZTVN10__cxxabiv117__class_type_infoE, i64 2) to i8*), i8* getelementptr inbounds ([166 x i8], [166 x i8]* @_ZTSNSt13__future_base12_Task_setterISt10unique_ptrINS_7_ResultIvEENS_12_Result_base8_DeleterEESt12_Bind_simpleIFSt17reference_wrapperISt5_BindIFPFvPvSA_ESA_SA_EEEvEEvEE, i32 0, i32 0) }, comdat
@_ZTSNSt13__future_base12_Task_setterISt10unique_ptrINS_7_ResultIvEENS_12_Result_base8_DeleterEESt12_Bind_simpleIFSt17reference_wrapperISt5_BindIFPFvPvSA_ESA_SA_EEEvEEvEE = linkonce_odr constant [166 x i8] c"NSt13__future_base12_Task_setterISt10unique_ptrINS_7_ResultIvEENS_12_Result_base8_DeleterEESt12_Bind_simpleIFSt17reference_wrapperISt5_BindIFPFvPvSA_ESA_SA_EEEvEEvEE\00", comdat
@_ZTIN10__cxxabiv115__forced_unwindE = external constant i8*
@_ZTSNSt13__future_base11_Task_stateISt5_BindIFPFvPvS2_ES2_S2_EESaIiEFvvEEE = linkonce_odr constant [71 x i8] c"NSt13__future_base11_Task_stateISt5_BindIFPFvPvS2_ES2_S2_EESaIiEFvvEEE\00", comdat
@_ZTINSt13__future_base16_Task_state_baseIFvvEEE = linkonce_odr constant { i8*, i8*, i8* } { i8* bitcast (i8** getelementptr inbounds (i8*, i8** @_ZTVN10__cxxabiv120__si_class_type_infoE, i64 2) to i8*), i8* getelementptr inbounds ([44 x i8], [44 x i8]* @_ZTSNSt13__future_base16_Task_state_baseIFvvEEE, i32 0, i32 0), i8* bitcast ({ i8*, i8* }* @_ZTINSt13__future_base13_State_baseV2E to i8*) }, comdat
@_ZTSNSt13__future_base16_Task_state_baseIFvvEEE = linkonce_odr constant [44 x i8] c"NSt13__future_base16_Task_state_baseIFvvEEE\00", comdat
@_ZTINSt13__future_base13_State_baseV2E = linkonce_odr constant { i8*, i8* } { i8* bitcast (i8** getelementptr inbounds (i8*, i8** @_ZTVN10__cxxabiv117__class_type_infoE, i64 2) to i8*), i8* getelementptr inbounds ([35 x i8], [35 x i8]* @_ZTSNSt13__future_base13_State_baseV2E, i32 0, i32 0) }, comdat
@_ZTSNSt13__future_base13_State_baseV2E = linkonce_odr constant [35 x i8] c"NSt13__future_base13_State_baseV2E\00", comdat
@_ZTINSt13__future_base7_ResultIvEE = linkonce_odr constant { i8*, i8*, i8* } { i8* bitcast (i8** getelementptr inbounds (i8*, i8** @_ZTVN10__cxxabiv120__si_class_type_infoE, i64 2) to i8*), i8* getelementptr inbounds ([31 x i8], [31 x i8]* @_ZTSNSt13__future_base7_ResultIvEE, i32 0, i32 0), i8* bitcast (i8** @_ZTINSt13__future_base12_Result_baseE to i8*) }, comdat
@_ZTSNSt13__future_base7_ResultIvEE = linkonce_odr constant [31 x i8] c"NSt13__future_base7_ResultIvEE\00", comdat
@_ZTINSt13__future_base12_Result_baseE = external constant i8*
@_ZTISt23_Sp_counted_ptr_inplaceINSt13__future_base11_Task_stateISt5_BindIFPFvPvS3_ES3_S3_EESaIiEFvvEEES8_LN9__gnu_cxx12_Lock_policyE2EE = linkonce_odr constant { i8*, i8*, i8* } { i8* bitcast (i8** getelementptr inbounds (i8*, i8** @_ZTVN10__cxxabiv120__si_class_type_infoE, i64 2) to i8*), i8* getelementptr inbounds ([132 x i8], [132 x i8]* @_ZTSSt23_Sp_counted_ptr_inplaceINSt13__future_base11_Task_stateISt5_BindIFPFvPvS3_ES3_S3_EESaIiEFvvEEES8_LN9__gnu_cxx12_Lock_policyE2EE, i32 0, i32 0), i8* bitcast ({ i8*, i8*, i8* }* @_ZTISt16_Sp_counted_baseILN9__gnu_cxx12_Lock_policyE2EE to i8*) }, comdat
@_ZTSSt23_Sp_counted_ptr_inplaceINSt13__future_base11_Task_stateISt5_BindIFPFvPvS3_ES3_S3_EESaIiEFvvEEES8_LN9__gnu_cxx12_Lock_policyE2EE = linkonce_odr constant [132 x i8] c"St23_Sp_counted_ptr_inplaceINSt13__future_base11_Task_stateISt5_BindIFPFvPvS3_ES3_S3_EESaIiEFvvEEES8_LN9__gnu_cxx12_Lock_policyE2EE\00", comdat
@_ZTISt16_Sp_counted_baseILN9__gnu_cxx12_Lock_policyE2EE = linkonce_odr constant { i8*, i8*, i8* } { i8* bitcast (i8** getelementptr inbounds (i8*, i8** @_ZTVN10__cxxabiv120__si_class_type_infoE, i64 2) to i8*), i8* getelementptr inbounds ([52 x i8], [52 x i8]* @_ZTSSt16_Sp_counted_baseILN9__gnu_cxx12_Lock_policyE2EE, i32 0, i32 0), i8* bitcast ({ i8*, i8* }* @_ZTISt11_Mutex_baseILN9__gnu_cxx12_Lock_policyE2EE to i8*) }, comdat
@_ZTSSt16_Sp_counted_baseILN9__gnu_cxx12_Lock_policyE2EE = linkonce_odr constant [52 x i8] c"St16_Sp_counted_baseILN9__gnu_cxx12_Lock_policyE2EE\00", comdat
@_ZTISt11_Mutex_baseILN9__gnu_cxx12_Lock_policyE2EE = linkonce_odr constant { i8*, i8* } { i8* bitcast (i8** getelementptr inbounds (i8*, i8** @_ZTVN10__cxxabiv117__class_type_infoE, i64 2) to i8*), i8* getelementptr inbounds ([47 x i8], [47 x i8]* @_ZTSSt11_Mutex_baseILN9__gnu_cxx12_Lock_policyE2EE, i32 0, i32 0) }, comdat
@_ZTSSt11_Mutex_baseILN9__gnu_cxx12_Lock_policyE2EE = linkonce_odr constant [47 x i8] c"St11_Mutex_baseILN9__gnu_cxx12_Lock_policyE2EE\00", comdat
@_ZTVNSt6thread11_State_implISt12_Bind_simpleIFSt7_Mem_fnIMN4MARC10ThreadPoolEFvPSt6atomicIbEEEPS4_S7_EEEE = linkonce_odr unnamed_addr constant { [5 x i8*] } { [5 x i8*] [i8* null, i8* bitcast ({ i8*, i8*, i8* }* @_ZTINSt6thread11_State_implISt12_Bind_simpleIFSt7_Mem_fnIMN4MARC10ThreadPoolEFvPSt6atomicIbEEEPS4_S7_EEEE to i8*), i8* bitcast (void (%"class.MARC::IThreadTask"*)* @_ZNSt6thread6_StateD2Ev to i8*), i8* bitcast (void (%"struct.std::thread::_State_impl"*)* @_ZNSt6thread11_State_implISt12_Bind_simpleIFSt7_Mem_fnIMN4MARC10ThreadPoolEFvPSt6atomicIbEEEPS4_S7_EEED0Ev to i8*), i8* bitcast (void (%"struct.std::thread::_State_impl"*)* @_ZNSt6thread11_State_implISt12_Bind_simpleIFSt7_Mem_fnIMN4MARC10ThreadPoolEFvPSt6atomicIbEEEPS4_S7_EEE6_M_runEv to i8*)] }, comdat, align 8
@_ZTINSt6thread11_State_implISt12_Bind_simpleIFSt7_Mem_fnIMN4MARC10ThreadPoolEFvPSt6atomicIbEEEPS4_S7_EEEE = linkonce_odr constant { i8*, i8*, i8* } { i8* bitcast (i8** getelementptr inbounds (i8*, i8** @_ZTVN10__cxxabiv120__si_class_type_infoE, i64 2) to i8*), i8* getelementptr inbounds ([102 x i8], [102 x i8]* @_ZTSNSt6thread11_State_implISt12_Bind_simpleIFSt7_Mem_fnIMN4MARC10ThreadPoolEFvPSt6atomicIbEEEPS4_S7_EEEE, i32 0, i32 0), i8* bitcast (i8** @_ZTINSt6thread6_StateE to i8*) }, comdat
@_ZTSNSt6thread11_State_implISt12_Bind_simpleIFSt7_Mem_fnIMN4MARC10ThreadPoolEFvPSt6atomicIbEEEPS4_S7_EEEE = linkonce_odr constant [102 x i8] c"NSt6thread11_State_implISt12_Bind_simpleIFSt7_Mem_fnIMN4MARC10ThreadPoolEFvPSt6atomicIbEEEPS4_S7_EEEE\00", comdat
@_ZTINSt6thread6_StateE = external constant i8*
@0 = internal unnamed_addr global i1 false

; Function Attrs: noinline uwtable
define float @_Z16heavyComputationff(float, float) local_unnamed_addr #0 {
  %3 = alloca [4 x i8*], align 8
  %4 = alloca float, align 4
  %5 = bitcast [4 x i8*]* %3 to float**
  store float* %4, float** %5, align 8
  %6 = alloca float, align 4
  %7 = getelementptr inbounds [4 x i8*], [4 x i8*]* %3, i64 0, i64 1
  %8 = bitcast i8** %7 to float**
  store float* %6, float** %8, align 8
  %9 = alloca float, align 4
  %10 = getelementptr inbounds [4 x i8*], [4 x i8*]* %3, i64 0, i64 2
  %11 = bitcast i8** %10 to float**
  store float* %9, float** %11, align 8
  %12 = alloca i32, align 4
  %13 = getelementptr inbounds [4 x i8*], [4 x i8*]* %3, i64 0, i64 3
  %14 = bitcast i8** %13 to i32**
  store i32* %12, i32** %14, align 8
  %15 = alloca [11 x i8*], align 16
  %16 = bitcast [11 x i8*]* %15 to <2 x void (i8*, i8*)*>*
  store <2 x void (i8*, i8*)*> <void (i8*, i8*)* @1, void (i8*, i8*)* @2>, <2 x void (i8*, i8*)*>* %16, align 16
  %17 = getelementptr inbounds [11 x i8*], [11 x i8*]* %15, i64 0, i64 2
  %18 = bitcast i8** %17 to <2 x void (i8*, i8*)*>*
  store <2 x void (i8*, i8*)*> <void (i8*, i8*)* @3, void (i8*, i8*)* @4>, <2 x void (i8*, i8*)*>* %18, align 16
  %19 = getelementptr inbounds [11 x i8*], [11 x i8*]* %15, i64 0, i64 4
  %20 = bitcast i8** %19 to <2 x void (i8*, i8*)*>*
  store <2 x void (i8*, i8*)*> <void (i8*, i8*)* @5, void (i8*, i8*)* @6>, <2 x void (i8*, i8*)*>* %20, align 16
  %21 = getelementptr inbounds [11 x i8*], [11 x i8*]* %15, i64 0, i64 6
  %22 = bitcast i8** %21 to <2 x void (i8*, i8*)*>*
  store <2 x void (i8*, i8*)*> <void (i8*, i8*)* @7, void (i8*, i8*)* @8>, <2 x void (i8*, i8*)*>* %22, align 16
  %23 = getelementptr inbounds [11 x i8*], [11 x i8*]* %15, i64 0, i64 8
  %24 = bitcast i8** %23 to <2 x void (i8*, i8*)*>*
  store <2 x void (i8*, i8*)*> <void (i8*, i8*)* @9, void (i8*, i8*)* @10>, <2 x void (i8*, i8*)*>* %24, align 16
  %25 = getelementptr inbounds [11 x i8*], [11 x i8*]* %15, i64 0, i64 10
  %26 = bitcast i8** %25 to void (i8*, i8*)**
  store void (i8*, i8*)* @11, void (i8*, i8*)** %26, align 16
  %27 = alloca [65 x i64], align 16
  %28 = bitcast [65 x i64]* %27 to <2 x i64>*
  store <2 x i64> <i64 32, i64 1>, <2 x i64>* %28, align 16
  %29 = getelementptr inbounds [65 x i64], [65 x i64]* %27, i64 0, i64 2
  %30 = bitcast i64* %29 to <2 x i64>*
  store <2 x i64> <i64 1, i64 1>, <2 x i64>* %30, align 16
  %31 = getelementptr inbounds [65 x i64], [65 x i64]* %27, i64 0, i64 4
  %32 = bitcast i64* %31 to <2 x i64>*
  store <2 x i64> <i64 32, i64 32>, <2 x i64>* %32, align 16
  %33 = getelementptr inbounds [65 x i64], [65 x i64]* %27, i64 0, i64 6
  %34 = bitcast i64* %33 to <2 x i64>*
  store <2 x i64> <i64 32, i64 1>, <2 x i64>* %34, align 16
  %35 = getelementptr inbounds [65 x i64], [65 x i64]* %27, i64 0, i64 8
  %36 = bitcast i64* %35 to <2 x i64>*
  store <2 x i64> <i64 1, i64 1>, <2 x i64>* %36, align 16
  %37 = getelementptr inbounds [65 x i64], [65 x i64]* %27, i64 0, i64 10
  %38 = bitcast i64* %37 to <2 x i64>*
  store <2 x i64> <i64 1, i64 1>, <2 x i64>* %38, align 16
  %39 = getelementptr inbounds [65 x i64], [65 x i64]* %27, i64 0, i64 12
  %40 = bitcast i64* %39 to <2 x i64>*
  store <2 x i64> <i64 1, i64 1>, <2 x i64>* %40, align 16
  %41 = getelementptr inbounds [65 x i64], [65 x i64]* %27, i64 0, i64 14
  %42 = bitcast i64* %41 to <2 x i64>*
  store <2 x i64> <i64 1, i64 1>, <2 x i64>* %42, align 16
  %43 = getelementptr inbounds [65 x i64], [65 x i64]* %27, i64 0, i64 16
  %44 = bitcast i64* %43 to <2 x i64>*
  store <2 x i64> <i64 1, i64 1>, <2 x i64>* %44, align 16
  %45 = getelementptr inbounds [65 x i64], [65 x i64]* %27, i64 0, i64 18
  %46 = bitcast i64* %45 to <2 x i64>*
  store <2 x i64> <i64 1, i64 1>, <2 x i64>* %46, align 16
  %47 = getelementptr inbounds [65 x i64], [65 x i64]* %27, i64 0, i64 20
  %48 = bitcast i64* %47 to <2 x i64>*
  store <2 x i64> <i64 1, i64 1>, <2 x i64>* %48, align 16
  %49 = getelementptr inbounds [65 x i64], [65 x i64]* %27, i64 0, i64 22
  %50 = bitcast i64* %49 to <2 x i64>*
  store <2 x i64> <i64 1, i64 1>, <2 x i64>* %50, align 16
  %51 = getelementptr inbounds [65 x i64], [65 x i64]* %27, i64 0, i64 24
  %52 = bitcast i64* %51 to <2 x i64>*
  store <2 x i64> <i64 1, i64 1>, <2 x i64>* %52, align 16
  %53 = getelementptr inbounds [65 x i64], [65 x i64]* %27, i64 0, i64 26
  %54 = bitcast i64* %53 to <2 x i64>*
  store <2 x i64> <i64 1, i64 1>, <2 x i64>* %54, align 16
  %55 = getelementptr inbounds [65 x i64], [65 x i64]* %27, i64 0, i64 28
  %56 = bitcast i64* %55 to <2 x i64>*
  store <2 x i64> <i64 1, i64 1>, <2 x i64>* %56, align 16
  %57 = getelementptr inbounds [65 x i64], [65 x i64]* %27, i64 0, i64 30
  %58 = bitcast i64* %57 to <2 x i64>*
  store <2 x i64> <i64 1, i64 1>, <2 x i64>* %58, align 16
  %59 = getelementptr inbounds [65 x i64], [65 x i64]* %27, i64 0, i64 32
  %60 = bitcast i64* %59 to <2 x i64>*
  store <2 x i64> <i64 1, i64 1>, <2 x i64>* %60, align 16
  %61 = getelementptr inbounds [65 x i64], [65 x i64]* %27, i64 0, i64 34
  %62 = bitcast i64* %61 to <2 x i64>*
  store <2 x i64> <i64 1, i64 1>, <2 x i64>* %62, align 16
  %63 = getelementptr inbounds [65 x i64], [65 x i64]* %27, i64 0, i64 36
  %64 = bitcast i64* %63 to <2 x i64>*
  store <2 x i64> <i64 1, i64 1>, <2 x i64>* %64, align 16
  %65 = getelementptr inbounds [65 x i64], [65 x i64]* %27, i64 0, i64 38
  %66 = bitcast i64* %65 to <2 x i64>*
  store <2 x i64> <i64 1, i64 1>, <2 x i64>* %66, align 16
  %67 = getelementptr inbounds [65 x i64], [65 x i64]* %27, i64 0, i64 40
  %68 = bitcast i64* %67 to <2 x i64>*
  store <2 x i64> <i64 1, i64 1>, <2 x i64>* %68, align 16
  %69 = getelementptr inbounds [65 x i64], [65 x i64]* %27, i64 0, i64 42
  %70 = bitcast i64* %69 to <2 x i64>*
  store <2 x i64> <i64 1, i64 1>, <2 x i64>* %70, align 16
  %71 = getelementptr inbounds [65 x i64], [65 x i64]* %27, i64 0, i64 44
  %72 = bitcast i64* %71 to <2 x i64>*
  store <2 x i64> <i64 1, i64 1>, <2 x i64>* %72, align 16
  %73 = getelementptr inbounds [65 x i64], [65 x i64]* %27, i64 0, i64 46
  %74 = bitcast i64* %73 to <2 x i64>*
  store <2 x i64> <i64 1, i64 1>, <2 x i64>* %74, align 16
  %75 = getelementptr inbounds [65 x i64], [65 x i64]* %27, i64 0, i64 48
  %76 = bitcast i64* %75 to <2 x i64>*
  store <2 x i64> <i64 1, i64 1>, <2 x i64>* %76, align 16
  %77 = getelementptr inbounds [65 x i64], [65 x i64]* %27, i64 0, i64 50
  %78 = bitcast i64* %77 to <2 x i64>*
  store <2 x i64> <i64 1, i64 1>, <2 x i64>* %78, align 16
  %79 = getelementptr inbounds [65 x i64], [65 x i64]* %27, i64 0, i64 52
  %80 = bitcast i64* %79 to <2 x i64>*
  store <2 x i64> <i64 1, i64 1>, <2 x i64>* %80, align 16
  %81 = getelementptr inbounds [65 x i64], [65 x i64]* %27, i64 0, i64 54
  %82 = bitcast i64* %81 to <2 x i64>*
  store <2 x i64> <i64 1, i64 1>, <2 x i64>* %82, align 16
  %83 = getelementptr inbounds [65 x i64], [65 x i64]* %27, i64 0, i64 56
  %84 = bitcast i64* %83 to <2 x i64>*
  store <2 x i64> <i64 1, i64 1>, <2 x i64>* %84, align 16
  %85 = getelementptr inbounds [65 x i64], [65 x i64]* %27, i64 0, i64 58
  %86 = bitcast i64* %85 to <2 x i64>*
  store <2 x i64> <i64 1, i64 1>, <2 x i64>* %86, align 16
  %87 = getelementptr inbounds [65 x i64], [65 x i64]* %27, i64 0, i64 60
  %88 = bitcast i64* %87 to <2 x i64>*
  store <2 x i64> <i64 1, i64 1>, <2 x i64>* %88, align 16
  %89 = getelementptr inbounds [65 x i64], [65 x i64]* %27, i64 0, i64 62
  %90 = bitcast i64* %89 to <2 x i64>*
  store <2 x i64> <i64 1, i64 1>, <2 x i64>* %90, align 16
  %91 = getelementptr inbounds [65 x i64], [65 x i64]* %27, i64 0, i64 64
  store i64 1, i64* %91, align 16
  %.b = load i1, i1* @0, align 1
  br i1 %.b, label %.preheader.preheader, label %178

.preheader.preheader:                             ; preds = %2
  br label %.preheader

.preheader:                                       ; preds = %.preheader.backedge, %.preheader.preheader
  %.016 = phi float [ %0, %.preheader.preheader ], [ %.016.be, %.preheader.backedge ]
  %.0115 = phi float [ %1, %.preheader.preheader ], [ %.0115.be, %.preheader.backedge ]
  %.0414 = phi i32 [ 0, %.preheader.preheader ], [ %.0414.be, %.preheader.backedge ]
  %92 = icmp ugt i32 %.0414, 3
  br i1 %92, label %.loopexit918, label %.loopexit.thread

.loopexit918:                                     ; preds = %.preheader
  %93 = fpext float %.016 to double
  %94 = fadd double %93, 1.430000e-01
  %95 = fptrunc double %94 to float
  %96 = tail call float @_ZSt4sqrtf(float %95)
  %97 = tail call float @_ZSt4sqrtf(float %96)
  %98 = tail call float @_ZSt4sqrtf(float %97)
  %99 = fpext float %98 to double
  %100 = fadd double %99, 1.430000e-01
  %101 = fptrunc double %100 to float
  %102 = tail call float @_ZSt4sqrtf(float %101)
  %103 = tail call float @_ZSt4sqrtf(float %102)
  %104 = tail call float @_ZSt4sqrtf(float %103)
  %105 = fpext float %104 to double
  %106 = fadd double %105, 1.430000e-01
  %107 = fptrunc double %106 to float
  %108 = tail call float @_ZSt4sqrtf(float %107)
  %109 = tail call float @_ZSt4sqrtf(float %108)
  %110 = tail call float @_ZSt4sqrtf(float %109)
  %111 = fpext float %110 to double
  %112 = fadd double %111, 1.430000e-01
  %113 = fptrunc double %112 to float
  %114 = tail call float @_ZSt4sqrtf(float %113)
  %115 = tail call float @_ZSt4sqrtf(float %114)
  %116 = tail call float @_ZSt4sqrtf(float %115)
  %117 = fpext float %116 to double
  %118 = fadd double %117, 1.430000e-01
  %119 = fptrunc double %118 to float
  %120 = tail call float @_ZSt4sqrtf(float %119)
  %121 = tail call float @_ZSt4sqrtf(float %120)
  %122 = tail call float @_ZSt4sqrtf(float %121)
  %123 = fpext float %122 to double
  %124 = fadd double %123, 1.430000e-01
  %125 = fptrunc double %124 to float
  %126 = tail call float @_ZSt4sqrtf(float %125)
  %127 = tail call float @_ZSt4sqrtf(float %126)
  %128 = tail call float @_ZSt4sqrtf(float %127)
  %129 = fpext float %128 to double
  %130 = fadd double %129, 1.430000e-01
  %131 = fptrunc double %130 to float
  %132 = tail call float @_ZSt4sqrtf(float %131)
  %133 = tail call float @_ZSt4sqrtf(float %132)
  %134 = tail call float @_ZSt4sqrtf(float %133)
  %135 = fpext float %134 to double
  %136 = fadd double %135, 1.430000e-01
  %137 = fptrunc double %136 to float
  %138 = tail call float @_ZSt4sqrtf(float %137)
  %139 = tail call float @_ZSt4sqrtf(float %138)
  %140 = tail call float @_ZSt4sqrtf(float %139)
  %141 = fpext float %140 to double
  %142 = fadd double %141, 1.430000e-01
  %143 = fptrunc double %142 to float
  %144 = tail call float @_ZSt4sqrtf(float %143)
  %145 = tail call float @_ZSt4sqrtf(float %144)
  %146 = tail call float @_ZSt4sqrtf(float %145)
  %147 = fpext float %146 to double
  %148 = fadd double %147, 1.430000e-01
  %149 = fptrunc double %148 to float
  %150 = tail call float @_ZSt4sqrtf(float %149)
  %151 = tail call float @_ZSt4sqrtf(float %150)
  %152 = tail call float @_ZSt4sqrtf(float %151)
  %153 = icmp eq i32 %.0414, 9
  %154 = fadd float %.0115, %152
  %..01 = select i1 %153, float %154, float %.0115
  %155 = icmp ult i32 %.0414, 7
  br i1 %155, label %.loopexit.thread, label %.loopexit

.loopexit.thread:                                 ; preds = %.loopexit918, %.preheader
  %..015 = phi float [ %..01, %.loopexit918 ], [ %.0115, %.preheader ]
  %.24 = phi float [ %152, %.loopexit918 ], [ %.016, %.preheader ]
  %156 = fpext float %..015 to double
  %157 = fadd double %156, -1.980000e-01
  %158 = fptrunc double %157 to float
  %159 = tail call float @_ZSt4sqrtf(float %158)
  %160 = fpext float %159 to double
  %161 = fadd double %160, -1.980000e-01
  %162 = fptrunc double %161 to float
  %163 = tail call float @_ZSt4sqrtf(float %162)
  %164 = fpext float %163 to double
  %165 = fadd double %164, -1.980000e-01
  %166 = fptrunc double %165 to float
  %167 = tail call float @_ZSt4sqrtf(float %166)
  %168 = fpext float %167 to double
  %169 = fadd double %168, -1.980000e-01
  %170 = fptrunc double %169 to float
  %171 = tail call float @_ZSt4sqrtf(float %170)
  %172 = fpext float %171 to double
  %173 = fadd double %172, -1.980000e-01
  %174 = fptrunc double %173 to float
  %175 = tail call float @_ZSt4sqrtf(float %174)
  %176 = add nuw nsw i32 %.0414, 1
  br label %.preheader.backedge

.loopexit:                                        ; preds = %.loopexit918
  %177 = add nuw nsw i32 %.0414, 1
  %exitcond12 = icmp eq i32 %177, 10
  br i1 %exitcond12, label %.loopexit6, label %.preheader.backedge

.preheader.backedge:                              ; preds = %.loopexit, %.loopexit.thread
  %.016.be = phi float [ %152, %.loopexit ], [ %.24, %.loopexit.thread ]
  %.0115.be = phi float [ %..01, %.loopexit ], [ %175, %.loopexit.thread ]
  %.0414.be = phi i32 [ %177, %.loopexit ], [ %176, %.loopexit.thread ]
  br label %.preheader

.loopexit6:                                       ; preds = %.loopexit, %178
  %.0.lcssa = phi float [ %183, %178 ], [ %152, %.loopexit ]
  ret float %.0.lcssa

; <label>:178:                                    ; preds = %2
  %179 = getelementptr inbounds [65 x i64], [65 x i64]* %27, i64 0, i64 0
  %180 = bitcast [11 x i8*]* %15 to i8*
  store i1 true, i1* @0, align 1
  store float %1, float* %6, align 4
  store float %0, float* %9, align 4
  %181 = bitcast [4 x i8*]* %3 to i8*
  call void @stageDispatcher(i8* nonnull %181, i8* undef, i64* nonnull %179, i8* nonnull %180, i64 11, i64 65)
  %182 = load float*, float** %5, align 8
  %183 = load float, float* %182, align 4
  store i1 false, i1* @0, align 1
  br label %.loopexit6
}

; Function Attrs: noinline nounwind uwtable
define linkonce_odr float @_ZSt4sqrtf(float) local_unnamed_addr #1 comdat {
  %2 = tail call float @sqrtf(float %0) #21
  ret float %2
}

; Function Attrs: nounwind readnone
declare float @sqrtf(float) local_unnamed_addr #2

; Function Attrs: noinline norecurse uwtable
define i32 @main() local_unnamed_addr #3 {
  %1 = tail call float @_Z16heavyComputationff(float 0x4041A66660000000, float 0x4038B33340000000)
  %2 = fpext float %1 to double
  %3 = tail call i32 (i8*, ...) @printf(i8* getelementptr inbounds ([4 x i8], [4 x i8]* @.str, i64 0, i64 0), double %2)
  ret i32 0
}

; Function Attrs: nounwind
declare i32 @printf(i8* nocapture readonly, ...) local_unnamed_addr #4

; Function Attrs: uwtable
define internal void @_GLOBAL__sub_I_DSWP_utils.cpp() #5 section ".text.startup" {
  tail call void @_ZNSt8ios_base4InitC1Ev(%"class.std::ios_base::Init"* nonnull @_ZStL8__ioinit)
  %1 = tail call i32 @__cxa_atexit(void (i8*)* bitcast (void (%"class.std::ios_base::Init"*)* @_ZNSt8ios_base4InitD1Ev to void (i8*)*), i8* getelementptr inbounds (%"class.std::ios_base::Init", %"class.std::ios_base::Init"* @_ZStL8__ioinit, i64 0, i32 0), i8* nonnull @__dso_handle) #8
  ret void
}

declare void @_ZNSt8ios_base4InitC1Ev(%"class.std::ios_base::Init"*) unnamed_addr #6

; Function Attrs: nounwind
declare void @_ZNSt8ios_base4InitD1Ev(%"class.std::ios_base::Init"*) unnamed_addr #7

; Function Attrs: nounwind
declare i32 @__cxa_atexit(void (i8*)*, i8*, i8*) local_unnamed_addr #8

; Function Attrs: uwtable
define void @printReachedS(%"class.std::basic_string"*) local_unnamed_addr #5 personality i8* bitcast (i32 (...)* @__gxx_personality_v0 to i8*) {
  %2 = alloca %"class.std::ios_base::Init", align 1
  %3 = alloca %"class.std::ios_base::Init", align 1
  %4 = alloca %"class.std::basic_string", align 8
  %5 = bitcast %"class.std::basic_string"* %4 to i8*
  call void @llvm.lifetime.start.p0i8(i64 8, i8* nonnull %5) #8
  %6 = getelementptr inbounds %"class.std::basic_string", %"class.std::basic_string"* %4, i64 0, i32 0, i32 0
  store i8* bitcast (i64* getelementptr inbounds ([0 x i64], [0 x i64]* @_ZNSs4_Rep20_S_empty_rep_storageE, i64 0, i64 3) to i8*), i8** %6, align 8, !tbaa !2, !alias.scope !7
  %7 = getelementptr inbounds %"class.std::basic_string", %"class.std::basic_string"* %0, i64 0, i32 0, i32 0
  %8 = load i8*, i8** %7, align 8, !tbaa !10, !noalias !7
  %9 = getelementptr inbounds i8, i8* %8, i64 -24
  %10 = bitcast i8* %9 to i64*
  %11 = load i64, i64* %10, align 8, !tbaa !12, !noalias !7
  %12 = add i64 %11, 9
  invoke void @_ZNSs7reserveEm(%"class.std::basic_string"* nonnull %4, i64 %12)
          to label %13 unwind label %17

; <label>:13:                                     ; preds = %1
  %14 = invoke dereferenceable(8) %"class.std::basic_string"* @_ZNSs6appendEPKcm(%"class.std::basic_string"* nonnull %4, i8* getelementptr inbounds ([10 x i8], [10 x i8]* @.str.1, i64 0, i64 0), i64 9)
          to label %15 unwind label %17

; <label>:15:                                     ; preds = %13
  %16 = invoke dereferenceable(8) %"class.std::basic_string"* @_ZNSs6appendERKSs(%"class.std::basic_string"* nonnull %4, %"class.std::basic_string"* nonnull dereferenceable(8) %0)
          to label %37 unwind label %17

; <label>:17:                                     ; preds = %15, %13, %1
  %18 = landingpad { i8*, i32 }
          cleanup
  %19 = load i8*, i8** %6, align 8, !tbaa !10, !alias.scope !7
  %20 = getelementptr inbounds i8, i8* %19, i64 -24
  %21 = bitcast i8* %20 to %"struct.std::basic_string<char, std::char_traits<char>, std::allocator<char> >::_Rep"*
  %22 = getelementptr inbounds %"class.std::ios_base::Init", %"class.std::ios_base::Init"* %3, i64 0, i32 0
  call void @llvm.lifetime.start.p0i8(i64 1, i8* nonnull %22) #8, !noalias !7
  %23 = icmp eq i8* %20, bitcast ([0 x i64]* @_ZNSs4_Rep20_S_empty_rep_storageE to i8*)
  br i1 %23, label %36, label %24, !prof !16

; <label>:24:                                     ; preds = %17
  %25 = getelementptr inbounds i8, i8* %19, i64 -8
  %26 = bitcast i8* %25 to i32*
  br i1 icmp ne (i8* bitcast (i32 (i32*, void (i8*)*)* @__pthread_key_create to i8*), i8* null), label %27, label %29

; <label>:27:                                     ; preds = %24
  %28 = atomicrmw volatile add i32* %26, i32 -1 acq_rel
  br label %32

; <label>:29:                                     ; preds = %24
  %30 = load i32, i32* %26, align 4, !tbaa !17
  %31 = add nsw i32 %30, -1
  store i32 %31, i32* %26, align 4, !tbaa !17
  br label %32

; <label>:32:                                     ; preds = %29, %27
  %33 = phi i32 [ %28, %27 ], [ %30, %29 ]
  %34 = icmp slt i32 %33, 1
  br i1 %34, label %35, label %36

; <label>:35:                                     ; preds = %32
  call void @_ZNSs4_Rep10_M_destroyERKSaIcE(%"struct.std::basic_string<char, std::char_traits<char>, std::allocator<char> >::_Rep"* %21, %"class.std::ios_base::Init"* nonnull dereferenceable(1) %3) #8
  br label %36

; <label>:36:                                     ; preds = %35, %32, %17
  call void @llvm.lifetime.end.p0i8(i64 1, i8* nonnull %22) #8, !noalias !7
  resume { i8*, i32 } %18

; <label>:37:                                     ; preds = %15
  %38 = load i8*, i8** %6, align 8, !tbaa !10
  %39 = call i32 @puts(i8* %38)
  %40 = load i8*, i8** %6, align 8, !tbaa !10
  %41 = getelementptr inbounds i8, i8* %40, i64 -24
  %42 = bitcast i8* %41 to %"struct.std::basic_string<char, std::char_traits<char>, std::allocator<char> >::_Rep"*
  %43 = getelementptr inbounds %"class.std::ios_base::Init", %"class.std::ios_base::Init"* %2, i64 0, i32 0
  call void @llvm.lifetime.start.p0i8(i64 1, i8* nonnull %43) #8
  %44 = icmp eq i8* %41, bitcast ([0 x i64]* @_ZNSs4_Rep20_S_empty_rep_storageE to i8*)
  br i1 %44, label %57, label %45, !prof !16

; <label>:45:                                     ; preds = %37
  %46 = getelementptr inbounds i8, i8* %40, i64 -8
  %47 = bitcast i8* %46 to i32*
  br i1 icmp ne (i8* bitcast (i32 (i32*, void (i8*)*)* @__pthread_key_create to i8*), i8* null), label %48, label %50

; <label>:48:                                     ; preds = %45
  %49 = atomicrmw volatile add i32* %47, i32 -1 acq_rel
  br label %53

; <label>:50:                                     ; preds = %45
  %51 = load i32, i32* %47, align 4, !tbaa !17
  %52 = add nsw i32 %51, -1
  store i32 %52, i32* %47, align 4, !tbaa !17
  br label %53

; <label>:53:                                     ; preds = %50, %48
  %54 = phi i32 [ %49, %48 ], [ %51, %50 ]
  %55 = icmp slt i32 %54, 1
  br i1 %55, label %56, label %57

; <label>:56:                                     ; preds = %53
  call void @_ZNSs4_Rep10_M_destroyERKSaIcE(%"struct.std::basic_string<char, std::char_traits<char>, std::allocator<char> >::_Rep"* %42, %"class.std::ios_base::Init"* nonnull dereferenceable(1) %2) #8
  br label %57

; <label>:57:                                     ; preds = %37, %53, %56
  call void @llvm.lifetime.end.p0i8(i64 1, i8* nonnull %43) #8
  call void @llvm.lifetime.end.p0i8(i64 8, i8* nonnull %5) #8
  ret void
}

declare i32 @__gxx_personality_v0(...)

; Function Attrs: argmemonly nounwind
declare void @llvm.lifetime.start.p0i8(i64, i8* nocapture) #9

declare void @_ZNSs7reserveEm(%"class.std::basic_string"*, i64) local_unnamed_addr #6

declare dereferenceable(8) %"class.std::basic_string"* @_ZNSs6appendEPKcm(%"class.std::basic_string"*, i8*, i64) local_unnamed_addr #6

declare dereferenceable(8) %"class.std::basic_string"* @_ZNSs6appendERKSs(%"class.std::basic_string"*, %"class.std::basic_string"* dereferenceable(8)) local_unnamed_addr #6

; Function Attrs: nounwind
declare extern_weak i32 @__pthread_key_create(i32*, void (i8*)*) #7

; Function Attrs: nounwind
declare void @_ZNSs4_Rep10_M_destroyERKSaIcE(%"struct.std::basic_string<char, std::char_traits<char>, std::allocator<char> >::_Rep"*, %"class.std::ios_base::Init"* dereferenceable(1)) local_unnamed_addr #7

; Function Attrs: argmemonly nounwind
declare void @llvm.lifetime.end.p0i8(i64, i8* nocapture) #9

; Function Attrs: nounwind
declare i32 @puts(i8* nocapture readonly) local_unnamed_addr #8

; Function Attrs: nounwind uwtable
define void @printReachedI(i32) local_unnamed_addr #10 {
  %2 = tail call i32 (i8*, ...) @printf(i8* getelementptr inbounds ([13 x i8], [13 x i8]* @.str.2, i64 0, i64 0), i32 %0)
  ret void
}

; Function Attrs: uwtable
define void @queuePush8(%"class.MARC::ThreadSafeQueue"*, i8* nocapture readonly) local_unnamed_addr #5 {
  %3 = load i8, i8* %1, align 1, !tbaa !18
  tail call void @_ZN4MARC15ThreadSafeQueueIaE4pushEa(%"class.MARC::ThreadSafeQueue"* %0, i8 signext %3)
  ret void
}

; Function Attrs: uwtable
define linkonce_odr void @_ZN4MARC15ThreadSafeQueueIaE4pushEa(%"class.MARC::ThreadSafeQueue"*, i8 signext) local_unnamed_addr #5 comdat align 2 personality i8* bitcast (i32 (...)* @__gxx_personality_v0 to i8*) {
  %3 = getelementptr inbounds %"class.MARC::ThreadSafeQueue", %"class.MARC::ThreadSafeQueue"* %0, i64 0, i32 1
  br i1 icmp ne (i8* bitcast (i32 (i32*, void (i8*)*)* @__pthread_key_create to i8*), i8* null), label %4, label %9

; <label>:4:                                      ; preds = %2
  %5 = getelementptr inbounds %"class.std::mutex", %"class.std::mutex"* %3, i64 0, i32 0, i32 0
  %6 = tail call i32 @pthread_mutex_lock(%union.pthread_mutex_t* nonnull %5) #8
  %7 = icmp eq i32 %6, 0
  br i1 %7, label %9, label %8

; <label>:8:                                      ; preds = %4
  tail call void @_ZSt20__throw_system_errori(i32 %6) #23
  unreachable

; <label>:9:                                      ; preds = %2, %4
  %10 = getelementptr inbounds %"class.MARC::ThreadSafeQueue", %"class.MARC::ThreadSafeQueue"* %0, i64 0, i32 2
  %11 = getelementptr inbounds %"class.std::queue", %"class.std::queue"* %10, i64 0, i32 0
  %12 = getelementptr inbounds %"class.MARC::ThreadSafeQueue", %"class.MARC::ThreadSafeQueue"* %0, i64 0, i32 2, i32 0, i32 0, i32 0, i32 3, i32 0
  %13 = load i8*, i8** %12, align 8, !tbaa !19
  %14 = getelementptr inbounds %"class.MARC::ThreadSafeQueue", %"class.MARC::ThreadSafeQueue"* %0, i64 0, i32 2, i32 0, i32 0, i32 0, i32 3, i32 2
  %15 = load i8*, i8** %14, align 8, !tbaa !23
  %16 = getelementptr inbounds i8, i8* %15, i64 -1
  %17 = icmp eq i8* %13, %16
  br i1 %17, label %21, label %18

; <label>:18:                                     ; preds = %9
  store i8 %1, i8* %13, align 1, !tbaa !18
  %19 = load i8*, i8** %12, align 8, !tbaa !19
  %20 = getelementptr inbounds i8, i8* %19, i64 1
  store i8* %20, i8** %12, align 8, !tbaa !19
  br label %49

; <label>:21:                                     ; preds = %9
  %22 = getelementptr inbounds %"class.MARC::ThreadSafeQueue", %"class.MARC::ThreadSafeQueue"* %0, i64 0, i32 2, i32 0, i32 0, i32 0, i32 1
  %23 = load i64, i64* %22, align 8, !tbaa !24
  %24 = getelementptr inbounds %"class.MARC::ThreadSafeQueue", %"class.MARC::ThreadSafeQueue"* %0, i64 0, i32 2, i32 0, i32 0, i32 0, i32 3, i32 3
  %25 = bitcast i8*** %24 to i64*
  %26 = load i64, i64* %25, align 8, !tbaa !25
  %27 = bitcast %"class.std::queue"* %10 to i64*
  %28 = load i64, i64* %27, align 8, !tbaa !26
  %29 = sub i64 %26, %28
  %30 = ashr exact i64 %29, 3
  %31 = sub i64 %23, %30
  %32 = icmp ult i64 %31, 2
  br i1 %32, label %33, label %34

; <label>:33:                                     ; preds = %21
  invoke void @_ZNSt5dequeIaSaIaEE17_M_reallocate_mapEmb(%"class.std::deque"* nonnull %11, i64 1, i1 zeroext false)
          to label %34 unwind label %55

; <label>:34:                                     ; preds = %33, %21
  %35 = invoke i8* @_Znwm(i64 512)
          to label %36 unwind label %55

; <label>:36:                                     ; preds = %34
  %37 = getelementptr inbounds %"class.MARC::ThreadSafeQueue", %"class.MARC::ThreadSafeQueue"* %0, i64 0, i32 2, i32 0, i32 0, i32 0, i32 3
  %38 = load i8**, i8*** %24, align 8, !tbaa !25
  %39 = getelementptr inbounds i8*, i8** %38, i64 1
  store i8* %35, i8** %39, align 8, !tbaa !27
  %40 = getelementptr inbounds %"struct.std::_Deque_iterator", %"struct.std::_Deque_iterator"* %37, i64 0, i32 0
  %41 = load i8*, i8** %40, align 8, !tbaa !19
  store i8 %1, i8* %41, align 1, !tbaa !18
  %42 = load i8**, i8*** %24, align 8, !tbaa !25
  %43 = getelementptr inbounds i8*, i8** %42, i64 1
  store i8** %43, i8*** %24, align 8, !tbaa !28
  %44 = load i8*, i8** %43, align 8, !tbaa !27
  %45 = getelementptr inbounds %"class.MARC::ThreadSafeQueue", %"class.MARC::ThreadSafeQueue"* %0, i64 0, i32 2, i32 0, i32 0, i32 0, i32 3, i32 1
  store i8* %44, i8** %45, align 8, !tbaa !29
  %46 = getelementptr inbounds i8, i8* %44, i64 512
  store i8* %46, i8** %14, align 8, !tbaa !30
  %47 = ptrtoint i8* %44 to i64
  %48 = bitcast %"struct.std::_Deque_iterator"* %37 to i64*
  store i64 %47, i64* %48, align 8, !tbaa !19
  br label %49

; <label>:49:                                     ; preds = %36, %18
  %50 = getelementptr inbounds %"class.MARC::ThreadSafeQueue", %"class.MARC::ThreadSafeQueue"* %0, i64 0, i32 3
  tail call void @_ZNSt18condition_variable10notify_oneEv(%"class.std::condition_variable"* %50) #8
  br i1 icmp ne (i8* bitcast (i32 (i32*, void (i8*)*)* @__pthread_key_create to i8*), i8* null), label %51, label %54

; <label>:51:                                     ; preds = %49
  %52 = getelementptr inbounds %"class.std::mutex", %"class.std::mutex"* %3, i64 0, i32 0, i32 0
  %53 = tail call i32 @pthread_mutex_unlock(%union.pthread_mutex_t* %52) #8
  br label %54

; <label>:54:                                     ; preds = %49, %51
  ret void

; <label>:55:                                     ; preds = %34, %33
  %56 = landingpad { i8*, i32 }
          cleanup
  br i1 icmp ne (i8* bitcast (i32 (i32*, void (i8*)*)* @__pthread_key_create to i8*), i8* null), label %57, label %60

; <label>:57:                                     ; preds = %55
  %58 = getelementptr inbounds %"class.std::mutex", %"class.std::mutex"* %3, i64 0, i32 0, i32 0
  %59 = tail call i32 @pthread_mutex_unlock(%union.pthread_mutex_t* %58) #8
  br label %60

; <label>:60:                                     ; preds = %55, %57
  resume { i8*, i32 } %56
}

; Function Attrs: nounwind
declare extern_weak i32 @pthread_mutex_lock(%union.pthread_mutex_t*) local_unnamed_addr #7

; Function Attrs: noreturn
declare void @_ZSt20__throw_system_errori(i32) local_unnamed_addr #11

; Function Attrs: uwtable
define linkonce_odr void @_ZNSt5dequeIaSaIaEE17_M_reallocate_mapEmb(%"class.std::deque"*, i64, i1 zeroext) local_unnamed_addr #5 comdat align 2 personality i32 (...)* @__gxx_personality_v0 {
  %4 = getelementptr inbounds %"class.std::deque", %"class.std::deque"* %0, i64 0, i32 0, i32 0, i32 3, i32 3
  %5 = load i8**, i8*** %4, align 8, !tbaa !25
  %6 = getelementptr inbounds %"class.std::deque", %"class.std::deque"* %0, i64 0, i32 0, i32 0, i32 2, i32 3
  %7 = load i8**, i8*** %6, align 8, !tbaa !31
  %8 = ptrtoint i8** %5 to i64
  %9 = ptrtoint i8** %7 to i64
  %10 = sub i64 %8, %9
  %11 = ashr exact i64 %10, 3
  %12 = add nsw i64 %11, 1
  %13 = add i64 %12, %1
  %14 = getelementptr inbounds %"class.std::deque", %"class.std::deque"* %0, i64 0, i32 0, i32 0, i32 1
  %15 = load i64, i64* %14, align 8, !tbaa !24
  %16 = shl i64 %13, 1
  %17 = icmp ugt i64 %15, %16
  br i1 %17, label %18, label %44

; <label>:18:                                     ; preds = %3
  %19 = getelementptr inbounds %"class.std::deque", %"class.std::deque"* %0, i64 0, i32 0, i32 0, i32 0
  %20 = load i8**, i8*** %19, align 8, !tbaa !26
  %21 = sub i64 %15, %13
  %22 = lshr i64 %21, 1
  %23 = getelementptr inbounds i8*, i8** %20, i64 %22
  %24 = select i1 %2, i64 %1, i64 0
  %25 = getelementptr inbounds i8*, i8** %23, i64 %24
  %26 = icmp ult i8** %25, %7
  %27 = getelementptr inbounds i8*, i8** %5, i64 1
  %28 = ptrtoint i8** %27 to i64
  %29 = sub i64 %28, %9
  br i1 %26, label %30, label %35

; <label>:30:                                     ; preds = %18
  %31 = icmp eq i64 %29, 0
  br i1 %31, label %73, label %32

; <label>:32:                                     ; preds = %30
  %33 = bitcast i8** %25 to i8*
  %34 = bitcast i8** %7 to i8*
  tail call void @llvm.memmove.p0i8.p0i8.i64(i8* %33, i8* %34, i64 %29, i32 8, i1 false) #8
  br label %73

; <label>:35:                                     ; preds = %18
  %36 = ashr exact i64 %29, 3
  %37 = icmp eq i64 %36, 0
  br i1 %37, label %73, label %38

; <label>:38:                                     ; preds = %35
  %39 = getelementptr inbounds i8*, i8** %25, i64 %12
  %40 = sub nsw i64 0, %36
  %41 = getelementptr inbounds i8*, i8** %39, i64 %40
  %42 = bitcast i8** %41 to i8*
  %43 = bitcast i8** %7 to i8*
  tail call void @llvm.memmove.p0i8.p0i8.i64(i8* %42, i8* %43, i64 %29, i32 8, i1 false) #8
  br label %73

; <label>:44:                                     ; preds = %3
  %45 = icmp ult i64 %15, %1
  %46 = select i1 %45, i64 %1, i64 %15
  %47 = add i64 %15, 2
  %48 = add i64 %47, %46
  %49 = icmp ugt i64 %48, 2305843009213693951
  br i1 %49, label %50, label %51

; <label>:50:                                     ; preds = %44
  tail call void @_ZSt17__throw_bad_allocv() #23
  unreachable

; <label>:51:                                     ; preds = %44
  %52 = shl i64 %48, 3
  %53 = tail call i8* @_Znwm(i64 %52)
  %54 = bitcast i8* %53 to i8**
  %55 = sub i64 %48, %13
  %56 = lshr i64 %55, 1
  %57 = getelementptr inbounds i8*, i8** %54, i64 %56
  %58 = select i1 %2, i64 %1, i64 0
  %59 = getelementptr inbounds i8*, i8** %57, i64 %58
  %60 = load i8**, i8*** %6, align 8, !tbaa !31
  %61 = load i8**, i8*** %4, align 8, !tbaa !25
  %62 = getelementptr inbounds i8*, i8** %61, i64 1
  %63 = ptrtoint i8** %62 to i64
  %64 = ptrtoint i8** %60 to i64
  %65 = sub i64 %63, %64
  %66 = icmp eq i64 %65, 0
  br i1 %66, label %70, label %67

; <label>:67:                                     ; preds = %51
  %68 = bitcast i8** %59 to i8*
  %69 = bitcast i8** %60 to i8*
  tail call void @llvm.memmove.p0i8.p0i8.i64(i8* %68, i8* %69, i64 %65, i32 8, i1 false) #8
  br label %70

; <label>:70:                                     ; preds = %51, %67
  %71 = bitcast %"class.std::deque"* %0 to i8**
  %72 = load i8*, i8** %71, align 8, !tbaa !26
  tail call void @_ZdlPv(i8* %72) #8
  store i8* %53, i8** %71, align 8, !tbaa !26
  store i64 %48, i64* %14, align 8, !tbaa !24
  br label %73

; <label>:73:                                     ; preds = %38, %35, %32, %30, %70
  %74 = phi i8** [ %59, %70 ], [ %25, %30 ], [ %25, %32 ], [ %25, %35 ], [ %25, %38 ]
  store i8** %74, i8*** %6, align 8, !tbaa !28
  %75 = load i8*, i8** %74, align 8, !tbaa !27
  %76 = getelementptr inbounds %"class.std::deque", %"class.std::deque"* %0, i64 0, i32 0, i32 0, i32 2, i32 1
  store i8* %75, i8** %76, align 8, !tbaa !29
  %77 = getelementptr inbounds i8, i8* %75, i64 512
  %78 = getelementptr inbounds %"class.std::deque", %"class.std::deque"* %0, i64 0, i32 0, i32 0, i32 2, i32 2
  store i8* %77, i8** %78, align 8, !tbaa !30
  %79 = getelementptr inbounds i8*, i8** %74, i64 %11
  store i8** %79, i8*** %4, align 8, !tbaa !28
  %80 = load i8*, i8** %79, align 8, !tbaa !27
  %81 = getelementptr inbounds %"class.std::deque", %"class.std::deque"* %0, i64 0, i32 0, i32 0, i32 3, i32 1
  store i8* %80, i8** %81, align 8, !tbaa !29
  %82 = getelementptr inbounds i8, i8* %80, i64 512
  %83 = getelementptr inbounds %"class.std::deque", %"class.std::deque"* %0, i64 0, i32 0, i32 0, i32 3, i32 2
  store i8* %82, i8** %83, align 8, !tbaa !30
  ret void
}

; Function Attrs: nobuiltin
declare noalias nonnull i8* @_Znwm(i64) local_unnamed_addr #12

; Function Attrs: nounwind
declare void @_ZNSt18condition_variable10notify_oneEv(%"class.std::condition_variable"*) local_unnamed_addr #7

; Function Attrs: nounwind
declare extern_weak i32 @pthread_mutex_unlock(%union.pthread_mutex_t*) local_unnamed_addr #7

; Function Attrs: argmemonly nounwind
declare void @llvm.memmove.p0i8.p0i8.i64(i8* nocapture, i8* nocapture readonly, i64, i32, i1) #9

; Function Attrs: noreturn
declare void @_ZSt17__throw_bad_allocv() local_unnamed_addr #11

; Function Attrs: nobuiltin nounwind
declare void @_ZdlPv(i8*) local_unnamed_addr #13

; Function Attrs: uwtable
define void @queuePop8(%"class.MARC::ThreadSafeQueue"*, i8*) local_unnamed_addr #5 {
  %3 = tail call zeroext i1 @_ZN4MARC15ThreadSafeQueueIaE7waitPopERa(%"class.MARC::ThreadSafeQueue"* %0, i8* dereferenceable(1) %1)
  ret void
}

; Function Attrs: uwtable
define linkonce_odr zeroext i1 @_ZN4MARC15ThreadSafeQueueIaE7waitPopERa(%"class.MARC::ThreadSafeQueue"*, i8* dereferenceable(1)) local_unnamed_addr #5 comdat align 2 personality i8* bitcast (i32 (...)* @__gxx_personality_v0 to i8*) {
  %3 = alloca %"class.std::unique_lock", align 8
  %4 = bitcast %"class.std::unique_lock"* %3 to i8*
  call void @llvm.lifetime.start.p0i8(i64 16, i8* nonnull %4) #8
  %5 = getelementptr inbounds %"class.MARC::ThreadSafeQueue", %"class.MARC::ThreadSafeQueue"* %0, i64 0, i32 1
  %6 = getelementptr inbounds %"class.std::unique_lock", %"class.std::unique_lock"* %3, i64 0, i32 0
  store %"class.std::mutex"* %5, %"class.std::mutex"** %6, align 8, !tbaa !32
  %7 = getelementptr inbounds %"class.std::unique_lock", %"class.std::unique_lock"* %3, i64 0, i32 1
  store i8 0, i8* %7, align 8, !tbaa !35
  br i1 icmp ne (i8* bitcast (i32 (i32*, void (i8*)*)* @__pthread_key_create to i8*), i8* null), label %8, label %13

; <label>:8:                                      ; preds = %2
  %9 = getelementptr inbounds %"class.std::mutex", %"class.std::mutex"* %5, i64 0, i32 0, i32 0
  %10 = tail call i32 @pthread_mutex_lock(%union.pthread_mutex_t* nonnull %9) #8
  %11 = icmp eq i32 %10, 0
  br i1 %11, label %13, label %12

; <label>:12:                                     ; preds = %8
  tail call void @_ZSt20__throw_system_errori(i32 %10) #23
  unreachable

; <label>:13:                                     ; preds = %2, %8
  store i8 1, i8* %7, align 8, !tbaa !35
  %14 = getelementptr inbounds %"class.MARC::ThreadSafeQueue", %"class.MARC::ThreadSafeQueue"* %0, i64 0, i32 0, i32 0, i32 0
  %15 = load atomic i8, i8* %14 seq_cst, align 1
  %16 = and i8 %15, 1
  %17 = icmp eq i8 %16, 0
  br i1 %17, label %60, label %18

; <label>:18:                                     ; preds = %13
  %19 = getelementptr inbounds %"class.MARC::ThreadSafeQueue", %"class.MARC::ThreadSafeQueue"* %0, i64 0, i32 2, i32 0, i32 0, i32 0, i32 3, i32 0
  %20 = load i8*, i8** %19, align 8, !tbaa !36
  %21 = getelementptr inbounds %"class.MARC::ThreadSafeQueue", %"class.MARC::ThreadSafeQueue"* %0, i64 0, i32 2, i32 0, i32 0, i32 0, i32 2, i32 0
  %22 = load i8*, i8** %21, align 8, !tbaa !36
  %23 = icmp eq i8* %20, %22
  br i1 %23, label %24, label %.loopexit

; <label>:24:                                     ; preds = %18
  %25 = getelementptr inbounds %"class.MARC::ThreadSafeQueue", %"class.MARC::ThreadSafeQueue"* %0, i64 0, i32 3
  br label %26

; <label>:26:                                     ; preds = %30, %24
  %27 = load atomic i8, i8* %14 seq_cst, align 1
  %28 = and i8 %27, 1
  %29 = icmp eq i8 %28, 0
  br i1 %29, label %.loopexit, label %30

; <label>:30:                                     ; preds = %26
  call void @_ZNSt18condition_variable4waitERSt11unique_lockISt5mutexE(%"class.std::condition_variable"* nonnull %25, %"class.std::unique_lock"* nonnull dereferenceable(16) %3) #8
  %31 = load i8*, i8** %19, align 8, !tbaa !36
  %32 = load i8*, i8** %21, align 8, !tbaa !36
  %33 = icmp eq i8* %31, %32
  br i1 %33, label %26, label %.loopexit

.loopexit:                                        ; preds = %30, %26, %18
  %34 = load atomic i8, i8* %14 seq_cst, align 1
  %35 = and i8 %34, 1
  %36 = icmp eq i8 %35, 0
  br i1 %36, label %60, label %37

; <label>:37:                                     ; preds = %.loopexit
  %38 = load i8*, i8** %21, align 8, !tbaa !36, !noalias !37
  %39 = load i8, i8* %38, align 1, !tbaa !18
  store i8 %39, i8* %1, align 1, !tbaa !18
  %40 = load i8*, i8** %21, align 8, !tbaa !40
  %41 = getelementptr inbounds %"class.MARC::ThreadSafeQueue", %"class.MARC::ThreadSafeQueue"* %0, i64 0, i32 2, i32 0, i32 0, i32 0, i32 2, i32 2
  %42 = load i8*, i8** %41, align 8, !tbaa !41
  %43 = getelementptr inbounds i8, i8* %42, i64 -1
  %44 = icmp eq i8* %40, %43
  br i1 %44, label %47, label %45

; <label>:45:                                     ; preds = %37
  %46 = getelementptr inbounds i8, i8* %40, i64 1
  store i8* %46, i8** %21, align 8, !tbaa !40
  br label %58

; <label>:47:                                     ; preds = %37
  %48 = getelementptr inbounds %"class.MARC::ThreadSafeQueue", %"class.MARC::ThreadSafeQueue"* %0, i64 0, i32 2, i32 0, i32 0, i32 0, i32 2
  %49 = getelementptr inbounds %"class.MARC::ThreadSafeQueue", %"class.MARC::ThreadSafeQueue"* %0, i64 0, i32 2, i32 0, i32 0, i32 0, i32 2, i32 1
  %50 = load i8*, i8** %49, align 8, !tbaa !42
  call void @_ZdlPv(i8* %50) #8
  %51 = getelementptr inbounds %"class.MARC::ThreadSafeQueue", %"class.MARC::ThreadSafeQueue"* %0, i64 0, i32 2, i32 0, i32 0, i32 0, i32 2, i32 3
  %52 = load i8**, i8*** %51, align 8, !tbaa !31
  %53 = getelementptr inbounds i8*, i8** %52, i64 1
  store i8** %53, i8*** %51, align 8, !tbaa !28
  %54 = load i8*, i8** %53, align 8, !tbaa !27
  store i8* %54, i8** %49, align 8, !tbaa !29
  %55 = getelementptr inbounds i8, i8* %54, i64 512
  store i8* %55, i8** %41, align 8, !tbaa !30
  %56 = ptrtoint i8* %54 to i64
  %57 = bitcast %"struct.std::_Deque_iterator"* %48 to i64*
  store i64 %56, i64* %57, align 8, !tbaa !40
  br label %58

; <label>:58:                                     ; preds = %45, %47
  %59 = getelementptr inbounds %"class.MARC::ThreadSafeQueue", %"class.MARC::ThreadSafeQueue"* %0, i64 0, i32 4
  call void @_ZNSt18condition_variable10notify_oneEv(%"class.std::condition_variable"* %59) #8
  br label %60

; <label>:60:                                     ; preds = %.loopexit, %13, %58
  %61 = phi i1 [ false, %13 ], [ false, %.loopexit ], [ true, %58 ]
  %62 = load i8, i8* %7, align 8, !tbaa !35, !range !43
  %63 = icmp eq i8 %62, 0
  br i1 %63, label %72, label %64

; <label>:64:                                     ; preds = %60
  %65 = load %"class.std::mutex"*, %"class.std::mutex"** %6, align 8, !tbaa !32
  %66 = icmp eq %"class.std::mutex"* %65, null
  br i1 %66, label %72, label %67

; <label>:67:                                     ; preds = %64
  br i1 icmp ne (i8* bitcast (i32 (i32*, void (i8*)*)* @__pthread_key_create to i8*), i8* null), label %68, label %71

; <label>:68:                                     ; preds = %67
  %69 = getelementptr inbounds %"class.std::mutex", %"class.std::mutex"* %65, i64 0, i32 0, i32 0
  %70 = call i32 @pthread_mutex_unlock(%union.pthread_mutex_t* %69) #8
  br label %71

; <label>:71:                                     ; preds = %68, %67
  store i8 0, i8* %7, align 8, !tbaa !35
  br label %72

; <label>:72:                                     ; preds = %60, %64, %71
  call void @llvm.lifetime.end.p0i8(i64 16, i8* nonnull %4) #8
  ret i1 %61
}

; Function Attrs: nounwind
declare void @_ZNSt18condition_variable4waitERSt11unique_lockISt5mutexE(%"class.std::condition_variable"*, %"class.std::unique_lock"* dereferenceable(16)) local_unnamed_addr #7

; Function Attrs: uwtable
define void @queuePush16(%"class.MARC::ThreadSafeQueue.3"*, i16* nocapture readonly) local_unnamed_addr #5 {
  %3 = load i16, i16* %1, align 2, !tbaa !44
  tail call void @_ZN4MARC15ThreadSafeQueueIsE4pushEs(%"class.MARC::ThreadSafeQueue.3"* %0, i16 signext %3)
  ret void
}

; Function Attrs: uwtable
define linkonce_odr void @_ZN4MARC15ThreadSafeQueueIsE4pushEs(%"class.MARC::ThreadSafeQueue.3"*, i16 signext) local_unnamed_addr #5 comdat align 2 personality i8* bitcast (i32 (...)* @__gxx_personality_v0 to i8*) {
  %3 = getelementptr inbounds %"class.MARC::ThreadSafeQueue.3", %"class.MARC::ThreadSafeQueue.3"* %0, i64 0, i32 1
  br i1 icmp ne (i8* bitcast (i32 (i32*, void (i8*)*)* @__pthread_key_create to i8*), i8* null), label %4, label %9

; <label>:4:                                      ; preds = %2
  %5 = getelementptr inbounds %"class.std::mutex", %"class.std::mutex"* %3, i64 0, i32 0, i32 0
  %6 = tail call i32 @pthread_mutex_lock(%union.pthread_mutex_t* nonnull %5) #8
  %7 = icmp eq i32 %6, 0
  br i1 %7, label %9, label %8

; <label>:8:                                      ; preds = %4
  tail call void @_ZSt20__throw_system_errori(i32 %6) #23
  unreachable

; <label>:9:                                      ; preds = %2, %4
  %10 = getelementptr inbounds %"class.MARC::ThreadSafeQueue.3", %"class.MARC::ThreadSafeQueue.3"* %0, i64 0, i32 2
  %11 = getelementptr inbounds %"class.std::queue.4", %"class.std::queue.4"* %10, i64 0, i32 0
  %12 = getelementptr inbounds %"class.MARC::ThreadSafeQueue.3", %"class.MARC::ThreadSafeQueue.3"* %0, i64 0, i32 2, i32 0, i32 0, i32 0, i32 3, i32 0
  %13 = load i16*, i16** %12, align 8, !tbaa !46
  %14 = getelementptr inbounds %"class.MARC::ThreadSafeQueue.3", %"class.MARC::ThreadSafeQueue.3"* %0, i64 0, i32 2, i32 0, i32 0, i32 0, i32 3, i32 2
  %15 = load i16*, i16** %14, align 8, !tbaa !50
  %16 = getelementptr inbounds i16, i16* %15, i64 -1
  %17 = icmp eq i16* %13, %16
  br i1 %17, label %20, label %18

; <label>:18:                                     ; preds = %9
  store i16 %1, i16* %13, align 2, !tbaa !44
  %19 = getelementptr inbounds i16, i16* %13, i64 1
  store i16* %19, i16** %12, align 8, !tbaa !46
  br label %49

; <label>:20:                                     ; preds = %9
  %21 = getelementptr inbounds %"class.MARC::ThreadSafeQueue.3", %"class.MARC::ThreadSafeQueue.3"* %0, i64 0, i32 2, i32 0, i32 0, i32 0, i32 1
  %22 = load i64, i64* %21, align 8, !tbaa !51
  %23 = getelementptr inbounds %"class.MARC::ThreadSafeQueue.3", %"class.MARC::ThreadSafeQueue.3"* %0, i64 0, i32 2, i32 0, i32 0, i32 0, i32 3, i32 3
  %24 = bitcast i16*** %23 to i64*
  %25 = load i64, i64* %24, align 8, !tbaa !52
  %26 = bitcast %"class.std::queue.4"* %10 to i64*
  %27 = load i64, i64* %26, align 8, !tbaa !53
  %28 = sub i64 %25, %27
  %29 = ashr exact i64 %28, 3
  %30 = sub i64 %22, %29
  %31 = icmp ult i64 %30, 2
  br i1 %31, label %32, label %33

; <label>:32:                                     ; preds = %20
  invoke void @_ZNSt5dequeIsSaIsEE17_M_reallocate_mapEmb(%"class.std::deque.5"* nonnull %11, i64 1, i1 zeroext false)
          to label %33 unwind label %55

; <label>:33:                                     ; preds = %32, %20
  %34 = invoke i8* @_Znwm(i64 512)
          to label %35 unwind label %55

; <label>:35:                                     ; preds = %33
  %36 = getelementptr inbounds %"class.MARC::ThreadSafeQueue.3", %"class.MARC::ThreadSafeQueue.3"* %0, i64 0, i32 2, i32 0, i32 0, i32 0, i32 3
  %37 = load i16**, i16*** %23, align 8, !tbaa !52
  %38 = getelementptr inbounds i16*, i16** %37, i64 1
  %39 = bitcast i16** %38 to i8**
  store i8* %34, i8** %39, align 8, !tbaa !27
  %40 = getelementptr inbounds %"struct.std::_Deque_iterator.10", %"struct.std::_Deque_iterator.10"* %36, i64 0, i32 0
  %41 = load i16*, i16** %40, align 8, !tbaa !46
  store i16 %1, i16* %41, align 2, !tbaa !44
  %42 = load i16**, i16*** %23, align 8, !tbaa !52
  %43 = getelementptr inbounds i16*, i16** %42, i64 1
  store i16** %43, i16*** %23, align 8, !tbaa !54
  %44 = load i16*, i16** %43, align 8, !tbaa !27
  %45 = getelementptr inbounds %"class.MARC::ThreadSafeQueue.3", %"class.MARC::ThreadSafeQueue.3"* %0, i64 0, i32 2, i32 0, i32 0, i32 0, i32 3, i32 1
  store i16* %44, i16** %45, align 8, !tbaa !55
  %46 = getelementptr inbounds i16, i16* %44, i64 256
  store i16* %46, i16** %14, align 8, !tbaa !56
  %47 = ptrtoint i16* %44 to i64
  %48 = bitcast %"struct.std::_Deque_iterator.10"* %36 to i64*
  store i64 %47, i64* %48, align 8, !tbaa !46
  br label %49

; <label>:49:                                     ; preds = %35, %18
  %50 = getelementptr inbounds %"class.MARC::ThreadSafeQueue.3", %"class.MARC::ThreadSafeQueue.3"* %0, i64 0, i32 3
  tail call void @_ZNSt18condition_variable10notify_oneEv(%"class.std::condition_variable"* %50) #8
  br i1 icmp ne (i8* bitcast (i32 (i32*, void (i8*)*)* @__pthread_key_create to i8*), i8* null), label %51, label %54

; <label>:51:                                     ; preds = %49
  %52 = getelementptr inbounds %"class.std::mutex", %"class.std::mutex"* %3, i64 0, i32 0, i32 0
  %53 = tail call i32 @pthread_mutex_unlock(%union.pthread_mutex_t* %52) #8
  br label %54

; <label>:54:                                     ; preds = %49, %51
  ret void

; <label>:55:                                     ; preds = %33, %32
  %56 = landingpad { i8*, i32 }
          cleanup
  br i1 icmp ne (i8* bitcast (i32 (i32*, void (i8*)*)* @__pthread_key_create to i8*), i8* null), label %57, label %60

; <label>:57:                                     ; preds = %55
  %58 = getelementptr inbounds %"class.std::mutex", %"class.std::mutex"* %3, i64 0, i32 0, i32 0
  %59 = tail call i32 @pthread_mutex_unlock(%union.pthread_mutex_t* %58) #8
  br label %60

; <label>:60:                                     ; preds = %55, %57
  resume { i8*, i32 } %56
}

; Function Attrs: uwtable
define linkonce_odr void @_ZNSt5dequeIsSaIsEE17_M_reallocate_mapEmb(%"class.std::deque.5"*, i64, i1 zeroext) local_unnamed_addr #5 comdat align 2 personality i32 (...)* @__gxx_personality_v0 {
  %4 = getelementptr inbounds %"class.std::deque.5", %"class.std::deque.5"* %0, i64 0, i32 0, i32 0, i32 3, i32 3
  %5 = load i16**, i16*** %4, align 8, !tbaa !52
  %6 = getelementptr inbounds %"class.std::deque.5", %"class.std::deque.5"* %0, i64 0, i32 0, i32 0, i32 2, i32 3
  %7 = load i16**, i16*** %6, align 8, !tbaa !57
  %8 = ptrtoint i16** %5 to i64
  %9 = ptrtoint i16** %7 to i64
  %10 = sub i64 %8, %9
  %11 = ashr exact i64 %10, 3
  %12 = add nsw i64 %11, 1
  %13 = add i64 %12, %1
  %14 = getelementptr inbounds %"class.std::deque.5", %"class.std::deque.5"* %0, i64 0, i32 0, i32 0, i32 1
  %15 = load i64, i64* %14, align 8, !tbaa !51
  %16 = shl i64 %13, 1
  %17 = icmp ugt i64 %15, %16
  br i1 %17, label %18, label %44

; <label>:18:                                     ; preds = %3
  %19 = getelementptr inbounds %"class.std::deque.5", %"class.std::deque.5"* %0, i64 0, i32 0, i32 0, i32 0
  %20 = load i16**, i16*** %19, align 8, !tbaa !53
  %21 = sub i64 %15, %13
  %22 = lshr i64 %21, 1
  %23 = getelementptr inbounds i16*, i16** %20, i64 %22
  %24 = select i1 %2, i64 %1, i64 0
  %25 = getelementptr inbounds i16*, i16** %23, i64 %24
  %26 = icmp ult i16** %25, %7
  %27 = getelementptr inbounds i16*, i16** %5, i64 1
  %28 = ptrtoint i16** %27 to i64
  %29 = sub i64 %28, %9
  br i1 %26, label %30, label %35

; <label>:30:                                     ; preds = %18
  %31 = icmp eq i64 %29, 0
  br i1 %31, label %73, label %32

; <label>:32:                                     ; preds = %30
  %33 = bitcast i16** %25 to i8*
  %34 = bitcast i16** %7 to i8*
  tail call void @llvm.memmove.p0i8.p0i8.i64(i8* %33, i8* %34, i64 %29, i32 8, i1 false) #8
  br label %73

; <label>:35:                                     ; preds = %18
  %36 = ashr exact i64 %29, 3
  %37 = icmp eq i64 %36, 0
  br i1 %37, label %73, label %38

; <label>:38:                                     ; preds = %35
  %39 = getelementptr inbounds i16*, i16** %25, i64 %12
  %40 = sub nsw i64 0, %36
  %41 = getelementptr inbounds i16*, i16** %39, i64 %40
  %42 = bitcast i16** %41 to i8*
  %43 = bitcast i16** %7 to i8*
  tail call void @llvm.memmove.p0i8.p0i8.i64(i8* %42, i8* %43, i64 %29, i32 8, i1 false) #8
  br label %73

; <label>:44:                                     ; preds = %3
  %45 = icmp ult i64 %15, %1
  %46 = select i1 %45, i64 %1, i64 %15
  %47 = add i64 %15, 2
  %48 = add i64 %47, %46
  %49 = icmp ugt i64 %48, 2305843009213693951
  br i1 %49, label %50, label %51

; <label>:50:                                     ; preds = %44
  tail call void @_ZSt17__throw_bad_allocv() #23
  unreachable

; <label>:51:                                     ; preds = %44
  %52 = shl i64 %48, 3
  %53 = tail call i8* @_Znwm(i64 %52)
  %54 = bitcast i8* %53 to i16**
  %55 = sub i64 %48, %13
  %56 = lshr i64 %55, 1
  %57 = getelementptr inbounds i16*, i16** %54, i64 %56
  %58 = select i1 %2, i64 %1, i64 0
  %59 = getelementptr inbounds i16*, i16** %57, i64 %58
  %60 = load i16**, i16*** %6, align 8, !tbaa !57
  %61 = load i16**, i16*** %4, align 8, !tbaa !52
  %62 = getelementptr inbounds i16*, i16** %61, i64 1
  %63 = ptrtoint i16** %62 to i64
  %64 = ptrtoint i16** %60 to i64
  %65 = sub i64 %63, %64
  %66 = icmp eq i64 %65, 0
  br i1 %66, label %70, label %67

; <label>:67:                                     ; preds = %51
  %68 = bitcast i16** %59 to i8*
  %69 = bitcast i16** %60 to i8*
  tail call void @llvm.memmove.p0i8.p0i8.i64(i8* %68, i8* %69, i64 %65, i32 8, i1 false) #8
  br label %70

; <label>:70:                                     ; preds = %51, %67
  %71 = bitcast %"class.std::deque.5"* %0 to i8**
  %72 = load i8*, i8** %71, align 8, !tbaa !53
  tail call void @_ZdlPv(i8* %72) #8
  store i8* %53, i8** %71, align 8, !tbaa !53
  store i64 %48, i64* %14, align 8, !tbaa !51
  br label %73

; <label>:73:                                     ; preds = %38, %35, %32, %30, %70
  %74 = phi i16** [ %59, %70 ], [ %25, %30 ], [ %25, %32 ], [ %25, %35 ], [ %25, %38 ]
  store i16** %74, i16*** %6, align 8, !tbaa !54
  %75 = load i16*, i16** %74, align 8, !tbaa !27
  %76 = getelementptr inbounds %"class.std::deque.5", %"class.std::deque.5"* %0, i64 0, i32 0, i32 0, i32 2, i32 1
  store i16* %75, i16** %76, align 8, !tbaa !55
  %77 = getelementptr inbounds i16, i16* %75, i64 256
  %78 = getelementptr inbounds %"class.std::deque.5", %"class.std::deque.5"* %0, i64 0, i32 0, i32 0, i32 2, i32 2
  store i16* %77, i16** %78, align 8, !tbaa !56
  %79 = getelementptr inbounds i16*, i16** %74, i64 %11
  store i16** %79, i16*** %4, align 8, !tbaa !54
  %80 = load i16*, i16** %79, align 8, !tbaa !27
  %81 = getelementptr inbounds %"class.std::deque.5", %"class.std::deque.5"* %0, i64 0, i32 0, i32 0, i32 3, i32 1
  store i16* %80, i16** %81, align 8, !tbaa !55
  %82 = getelementptr inbounds i16, i16* %80, i64 256
  %83 = getelementptr inbounds %"class.std::deque.5", %"class.std::deque.5"* %0, i64 0, i32 0, i32 0, i32 3, i32 2
  store i16* %82, i16** %83, align 8, !tbaa !56
  ret void
}

; Function Attrs: uwtable
define void @queuePop16(%"class.MARC::ThreadSafeQueue.3"*, i16*) local_unnamed_addr #5 {
  %3 = tail call zeroext i1 @_ZN4MARC15ThreadSafeQueueIsE7waitPopERs(%"class.MARC::ThreadSafeQueue.3"* %0, i16* dereferenceable(2) %1)
  ret void
}

; Function Attrs: uwtable
define linkonce_odr zeroext i1 @_ZN4MARC15ThreadSafeQueueIsE7waitPopERs(%"class.MARC::ThreadSafeQueue.3"*, i16* dereferenceable(2)) local_unnamed_addr #5 comdat align 2 personality i8* bitcast (i32 (...)* @__gxx_personality_v0 to i8*) {
  %3 = alloca %"class.std::unique_lock", align 8
  %4 = bitcast %"class.std::unique_lock"* %3 to i8*
  call void @llvm.lifetime.start.p0i8(i64 16, i8* nonnull %4) #8
  %5 = getelementptr inbounds %"class.MARC::ThreadSafeQueue.3", %"class.MARC::ThreadSafeQueue.3"* %0, i64 0, i32 1
  %6 = getelementptr inbounds %"class.std::unique_lock", %"class.std::unique_lock"* %3, i64 0, i32 0
  store %"class.std::mutex"* %5, %"class.std::mutex"** %6, align 8, !tbaa !32
  %7 = getelementptr inbounds %"class.std::unique_lock", %"class.std::unique_lock"* %3, i64 0, i32 1
  store i8 0, i8* %7, align 8, !tbaa !35
  br i1 icmp ne (i8* bitcast (i32 (i32*, void (i8*)*)* @__pthread_key_create to i8*), i8* null), label %8, label %13

; <label>:8:                                      ; preds = %2
  %9 = getelementptr inbounds %"class.std::mutex", %"class.std::mutex"* %5, i64 0, i32 0, i32 0
  %10 = tail call i32 @pthread_mutex_lock(%union.pthread_mutex_t* nonnull %9) #8
  %11 = icmp eq i32 %10, 0
  br i1 %11, label %13, label %12

; <label>:12:                                     ; preds = %8
  tail call void @_ZSt20__throw_system_errori(i32 %10) #23
  unreachable

; <label>:13:                                     ; preds = %2, %8
  store i8 1, i8* %7, align 8, !tbaa !35
  %14 = getelementptr inbounds %"class.MARC::ThreadSafeQueue.3", %"class.MARC::ThreadSafeQueue.3"* %0, i64 0, i32 0, i32 0, i32 0
  %15 = load atomic i8, i8* %14 seq_cst, align 1
  %16 = and i8 %15, 1
  %17 = icmp eq i8 %16, 0
  br i1 %17, label %60, label %18

; <label>:18:                                     ; preds = %13
  %19 = getelementptr inbounds %"class.MARC::ThreadSafeQueue.3", %"class.MARC::ThreadSafeQueue.3"* %0, i64 0, i32 2, i32 0, i32 0, i32 0, i32 3, i32 0
  %20 = load i16*, i16** %19, align 8, !tbaa !58
  %21 = getelementptr inbounds %"class.MARC::ThreadSafeQueue.3", %"class.MARC::ThreadSafeQueue.3"* %0, i64 0, i32 2, i32 0, i32 0, i32 0, i32 2, i32 0
  %22 = load i16*, i16** %21, align 8, !tbaa !58
  %23 = icmp eq i16* %20, %22
  br i1 %23, label %24, label %.loopexit

; <label>:24:                                     ; preds = %18
  %25 = getelementptr inbounds %"class.MARC::ThreadSafeQueue.3", %"class.MARC::ThreadSafeQueue.3"* %0, i64 0, i32 3
  br label %26

; <label>:26:                                     ; preds = %30, %24
  %27 = load atomic i8, i8* %14 seq_cst, align 1
  %28 = and i8 %27, 1
  %29 = icmp eq i8 %28, 0
  br i1 %29, label %.loopexit, label %30

; <label>:30:                                     ; preds = %26
  call void @_ZNSt18condition_variable4waitERSt11unique_lockISt5mutexE(%"class.std::condition_variable"* nonnull %25, %"class.std::unique_lock"* nonnull dereferenceable(16) %3) #8
  %31 = load i16*, i16** %19, align 8, !tbaa !58
  %32 = load i16*, i16** %21, align 8, !tbaa !58
  %33 = icmp eq i16* %31, %32
  br i1 %33, label %26, label %.loopexit

.loopexit:                                        ; preds = %30, %26, %18
  %34 = load atomic i8, i8* %14 seq_cst, align 1
  %35 = and i8 %34, 1
  %36 = icmp eq i8 %35, 0
  br i1 %36, label %60, label %37

; <label>:37:                                     ; preds = %.loopexit
  %38 = load i16*, i16** %21, align 8, !tbaa !58, !noalias !59
  %39 = load i16, i16* %38, align 2, !tbaa !44
  store i16 %39, i16* %1, align 2, !tbaa !44
  %40 = getelementptr inbounds %"class.MARC::ThreadSafeQueue.3", %"class.MARC::ThreadSafeQueue.3"* %0, i64 0, i32 2, i32 0, i32 0, i32 0, i32 2, i32 2
  %41 = load i16*, i16** %40, align 8, !tbaa !62
  %42 = getelementptr inbounds i16, i16* %41, i64 -1
  %43 = icmp eq i16* %38, %42
  br i1 %43, label %46, label %44

; <label>:44:                                     ; preds = %37
  %45 = getelementptr inbounds i16, i16* %38, i64 1
  store i16* %45, i16** %21, align 8, !tbaa !63
  br label %58

; <label>:46:                                     ; preds = %37
  %47 = getelementptr inbounds %"class.MARC::ThreadSafeQueue.3", %"class.MARC::ThreadSafeQueue.3"* %0, i64 0, i32 2, i32 0, i32 0, i32 0, i32 2
  %48 = getelementptr inbounds %"class.MARC::ThreadSafeQueue.3", %"class.MARC::ThreadSafeQueue.3"* %0, i64 0, i32 2, i32 0, i32 0, i32 0, i32 2, i32 1
  %49 = bitcast i16** %48 to i8**
  %50 = load i8*, i8** %49, align 8, !tbaa !64
  call void @_ZdlPv(i8* %50) #8
  %51 = getelementptr inbounds %"class.MARC::ThreadSafeQueue.3", %"class.MARC::ThreadSafeQueue.3"* %0, i64 0, i32 2, i32 0, i32 0, i32 0, i32 2, i32 3
  %52 = load i16**, i16*** %51, align 8, !tbaa !57
  %53 = getelementptr inbounds i16*, i16** %52, i64 1
  store i16** %53, i16*** %51, align 8, !tbaa !54
  %54 = load i16*, i16** %53, align 8, !tbaa !27
  store i16* %54, i16** %48, align 8, !tbaa !55
  %55 = getelementptr inbounds i16, i16* %54, i64 256
  store i16* %55, i16** %40, align 8, !tbaa !56
  %56 = ptrtoint i16* %54 to i64
  %57 = bitcast %"struct.std::_Deque_iterator.10"* %47 to i64*
  store i64 %56, i64* %57, align 8, !tbaa !63
  br label %58

; <label>:58:                                     ; preds = %44, %46
  %59 = getelementptr inbounds %"class.MARC::ThreadSafeQueue.3", %"class.MARC::ThreadSafeQueue.3"* %0, i64 0, i32 4
  call void @_ZNSt18condition_variable10notify_oneEv(%"class.std::condition_variable"* %59) #8
  br label %60

; <label>:60:                                     ; preds = %.loopexit, %13, %58
  %61 = phi i1 [ false, %13 ], [ false, %.loopexit ], [ true, %58 ]
  %62 = load i8, i8* %7, align 8, !tbaa !35, !range !43
  %63 = icmp eq i8 %62, 0
  br i1 %63, label %72, label %64

; <label>:64:                                     ; preds = %60
  %65 = load %"class.std::mutex"*, %"class.std::mutex"** %6, align 8, !tbaa !32
  %66 = icmp eq %"class.std::mutex"* %65, null
  br i1 %66, label %72, label %67

; <label>:67:                                     ; preds = %64
  br i1 icmp ne (i8* bitcast (i32 (i32*, void (i8*)*)* @__pthread_key_create to i8*), i8* null), label %68, label %71

; <label>:68:                                     ; preds = %67
  %69 = getelementptr inbounds %"class.std::mutex", %"class.std::mutex"* %65, i64 0, i32 0, i32 0
  %70 = call i32 @pthread_mutex_unlock(%union.pthread_mutex_t* %69) #8
  br label %71

; <label>:71:                                     ; preds = %68, %67
  store i8 0, i8* %7, align 8, !tbaa !35
  br label %72

; <label>:72:                                     ; preds = %60, %64, %71
  call void @llvm.lifetime.end.p0i8(i64 16, i8* nonnull %4) #8
  ret i1 %61
}

; Function Attrs: uwtable
define void @queuePush32(%"class.MARC::ThreadSafeQueue.11"*, i32* nocapture readonly) local_unnamed_addr #5 {
  %3 = load i32, i32* %1, align 4, !tbaa !17
  tail call void @_ZN4MARC15ThreadSafeQueueIiE4pushEi(%"class.MARC::ThreadSafeQueue.11"* %0, i32 %3)
  ret void
}

; Function Attrs: uwtable
define linkonce_odr void @_ZN4MARC15ThreadSafeQueueIiE4pushEi(%"class.MARC::ThreadSafeQueue.11"*, i32) local_unnamed_addr #5 comdat align 2 personality i8* bitcast (i32 (...)* @__gxx_personality_v0 to i8*) {
  %3 = getelementptr inbounds %"class.MARC::ThreadSafeQueue.11", %"class.MARC::ThreadSafeQueue.11"* %0, i64 0, i32 1
  br i1 icmp ne (i8* bitcast (i32 (i32*, void (i8*)*)* @__pthread_key_create to i8*), i8* null), label %4, label %9

; <label>:4:                                      ; preds = %2
  %5 = getelementptr inbounds %"class.std::mutex", %"class.std::mutex"* %3, i64 0, i32 0, i32 0
  %6 = tail call i32 @pthread_mutex_lock(%union.pthread_mutex_t* nonnull %5) #8
  %7 = icmp eq i32 %6, 0
  br i1 %7, label %9, label %8

; <label>:8:                                      ; preds = %4
  tail call void @_ZSt20__throw_system_errori(i32 %6) #23
  unreachable

; <label>:9:                                      ; preds = %2, %4
  %10 = getelementptr inbounds %"class.MARC::ThreadSafeQueue.11", %"class.MARC::ThreadSafeQueue.11"* %0, i64 0, i32 2
  %11 = getelementptr inbounds %"class.std::queue.12", %"class.std::queue.12"* %10, i64 0, i32 0
  %12 = getelementptr inbounds %"class.MARC::ThreadSafeQueue.11", %"class.MARC::ThreadSafeQueue.11"* %0, i64 0, i32 2, i32 0, i32 0, i32 0, i32 3, i32 0
  %13 = load i32*, i32** %12, align 8, !tbaa !65
  %14 = getelementptr inbounds %"class.MARC::ThreadSafeQueue.11", %"class.MARC::ThreadSafeQueue.11"* %0, i64 0, i32 2, i32 0, i32 0, i32 0, i32 3, i32 2
  %15 = load i32*, i32** %14, align 8, !tbaa !69
  %16 = getelementptr inbounds i32, i32* %15, i64 -1
  %17 = icmp eq i32* %13, %16
  br i1 %17, label %20, label %18

; <label>:18:                                     ; preds = %9
  store i32 %1, i32* %13, align 4, !tbaa !17
  %19 = getelementptr inbounds i32, i32* %13, i64 1
  store i32* %19, i32** %12, align 8, !tbaa !65
  br label %49

; <label>:20:                                     ; preds = %9
  %21 = getelementptr inbounds %"class.MARC::ThreadSafeQueue.11", %"class.MARC::ThreadSafeQueue.11"* %0, i64 0, i32 2, i32 0, i32 0, i32 0, i32 1
  %22 = load i64, i64* %21, align 8, !tbaa !70
  %23 = getelementptr inbounds %"class.MARC::ThreadSafeQueue.11", %"class.MARC::ThreadSafeQueue.11"* %0, i64 0, i32 2, i32 0, i32 0, i32 0, i32 3, i32 3
  %24 = bitcast i32*** %23 to i64*
  %25 = load i64, i64* %24, align 8, !tbaa !71
  %26 = bitcast %"class.std::queue.12"* %10 to i64*
  %27 = load i64, i64* %26, align 8, !tbaa !72
  %28 = sub i64 %25, %27
  %29 = ashr exact i64 %28, 3
  %30 = sub i64 %22, %29
  %31 = icmp ult i64 %30, 2
  br i1 %31, label %32, label %33

; <label>:32:                                     ; preds = %20
  invoke void @_ZNSt5dequeIiSaIiEE17_M_reallocate_mapEmb(%"class.std::deque.13"* nonnull %11, i64 1, i1 zeroext false)
          to label %33 unwind label %55

; <label>:33:                                     ; preds = %32, %20
  %34 = invoke i8* @_Znwm(i64 512)
          to label %35 unwind label %55

; <label>:35:                                     ; preds = %33
  %36 = getelementptr inbounds %"class.MARC::ThreadSafeQueue.11", %"class.MARC::ThreadSafeQueue.11"* %0, i64 0, i32 2, i32 0, i32 0, i32 0, i32 3
  %37 = load i32**, i32*** %23, align 8, !tbaa !71
  %38 = getelementptr inbounds i32*, i32** %37, i64 1
  %39 = bitcast i32** %38 to i8**
  store i8* %34, i8** %39, align 8, !tbaa !27
  %40 = getelementptr inbounds %"struct.std::_Deque_iterator.18", %"struct.std::_Deque_iterator.18"* %36, i64 0, i32 0
  %41 = load i32*, i32** %40, align 8, !tbaa !65
  store i32 %1, i32* %41, align 4, !tbaa !17
  %42 = load i32**, i32*** %23, align 8, !tbaa !71
  %43 = getelementptr inbounds i32*, i32** %42, i64 1
  store i32** %43, i32*** %23, align 8, !tbaa !73
  %44 = load i32*, i32** %43, align 8, !tbaa !27
  %45 = getelementptr inbounds %"class.MARC::ThreadSafeQueue.11", %"class.MARC::ThreadSafeQueue.11"* %0, i64 0, i32 2, i32 0, i32 0, i32 0, i32 3, i32 1
  store i32* %44, i32** %45, align 8, !tbaa !74
  %46 = getelementptr inbounds i32, i32* %44, i64 128
  store i32* %46, i32** %14, align 8, !tbaa !75
  %47 = ptrtoint i32* %44 to i64
  %48 = bitcast %"struct.std::_Deque_iterator.18"* %36 to i64*
  store i64 %47, i64* %48, align 8, !tbaa !65
  br label %49

; <label>:49:                                     ; preds = %35, %18
  %50 = getelementptr inbounds %"class.MARC::ThreadSafeQueue.11", %"class.MARC::ThreadSafeQueue.11"* %0, i64 0, i32 3
  tail call void @_ZNSt18condition_variable10notify_oneEv(%"class.std::condition_variable"* %50) #8
  br i1 icmp ne (i8* bitcast (i32 (i32*, void (i8*)*)* @__pthread_key_create to i8*), i8* null), label %51, label %54

; <label>:51:                                     ; preds = %49
  %52 = getelementptr inbounds %"class.std::mutex", %"class.std::mutex"* %3, i64 0, i32 0, i32 0
  %53 = tail call i32 @pthread_mutex_unlock(%union.pthread_mutex_t* %52) #8
  br label %54

; <label>:54:                                     ; preds = %49, %51
  ret void

; <label>:55:                                     ; preds = %33, %32
  %56 = landingpad { i8*, i32 }
          cleanup
  br i1 icmp ne (i8* bitcast (i32 (i32*, void (i8*)*)* @__pthread_key_create to i8*), i8* null), label %57, label %60

; <label>:57:                                     ; preds = %55
  %58 = getelementptr inbounds %"class.std::mutex", %"class.std::mutex"* %3, i64 0, i32 0, i32 0
  %59 = tail call i32 @pthread_mutex_unlock(%union.pthread_mutex_t* %58) #8
  br label %60

; <label>:60:                                     ; preds = %55, %57
  resume { i8*, i32 } %56
}

; Function Attrs: uwtable
define linkonce_odr void @_ZNSt5dequeIiSaIiEE17_M_reallocate_mapEmb(%"class.std::deque.13"*, i64, i1 zeroext) local_unnamed_addr #5 comdat align 2 personality i32 (...)* @__gxx_personality_v0 {
  %4 = getelementptr inbounds %"class.std::deque.13", %"class.std::deque.13"* %0, i64 0, i32 0, i32 0, i32 3, i32 3
  %5 = load i32**, i32*** %4, align 8, !tbaa !71
  %6 = getelementptr inbounds %"class.std::deque.13", %"class.std::deque.13"* %0, i64 0, i32 0, i32 0, i32 2, i32 3
  %7 = load i32**, i32*** %6, align 8, !tbaa !76
  %8 = ptrtoint i32** %5 to i64
  %9 = ptrtoint i32** %7 to i64
  %10 = sub i64 %8, %9
  %11 = ashr exact i64 %10, 3
  %12 = add nsw i64 %11, 1
  %13 = add i64 %12, %1
  %14 = getelementptr inbounds %"class.std::deque.13", %"class.std::deque.13"* %0, i64 0, i32 0, i32 0, i32 1
  %15 = load i64, i64* %14, align 8, !tbaa !70
  %16 = shl i64 %13, 1
  %17 = icmp ugt i64 %15, %16
  br i1 %17, label %18, label %44

; <label>:18:                                     ; preds = %3
  %19 = getelementptr inbounds %"class.std::deque.13", %"class.std::deque.13"* %0, i64 0, i32 0, i32 0, i32 0
  %20 = load i32**, i32*** %19, align 8, !tbaa !72
  %21 = sub i64 %15, %13
  %22 = lshr i64 %21, 1
  %23 = getelementptr inbounds i32*, i32** %20, i64 %22
  %24 = select i1 %2, i64 %1, i64 0
  %25 = getelementptr inbounds i32*, i32** %23, i64 %24
  %26 = icmp ult i32** %25, %7
  %27 = getelementptr inbounds i32*, i32** %5, i64 1
  %28 = ptrtoint i32** %27 to i64
  %29 = sub i64 %28, %9
  br i1 %26, label %30, label %35

; <label>:30:                                     ; preds = %18
  %31 = icmp eq i64 %29, 0
  br i1 %31, label %73, label %32

; <label>:32:                                     ; preds = %30
  %33 = bitcast i32** %25 to i8*
  %34 = bitcast i32** %7 to i8*
  tail call void @llvm.memmove.p0i8.p0i8.i64(i8* %33, i8* %34, i64 %29, i32 8, i1 false) #8
  br label %73

; <label>:35:                                     ; preds = %18
  %36 = ashr exact i64 %29, 3
  %37 = icmp eq i64 %36, 0
  br i1 %37, label %73, label %38

; <label>:38:                                     ; preds = %35
  %39 = getelementptr inbounds i32*, i32** %25, i64 %12
  %40 = sub nsw i64 0, %36
  %41 = getelementptr inbounds i32*, i32** %39, i64 %40
  %42 = bitcast i32** %41 to i8*
  %43 = bitcast i32** %7 to i8*
  tail call void @llvm.memmove.p0i8.p0i8.i64(i8* %42, i8* %43, i64 %29, i32 8, i1 false) #8
  br label %73

; <label>:44:                                     ; preds = %3
  %45 = icmp ult i64 %15, %1
  %46 = select i1 %45, i64 %1, i64 %15
  %47 = add i64 %15, 2
  %48 = add i64 %47, %46
  %49 = icmp ugt i64 %48, 2305843009213693951
  br i1 %49, label %50, label %51

; <label>:50:                                     ; preds = %44
  tail call void @_ZSt17__throw_bad_allocv() #23
  unreachable

; <label>:51:                                     ; preds = %44
  %52 = shl i64 %48, 3
  %53 = tail call i8* @_Znwm(i64 %52)
  %54 = bitcast i8* %53 to i32**
  %55 = sub i64 %48, %13
  %56 = lshr i64 %55, 1
  %57 = getelementptr inbounds i32*, i32** %54, i64 %56
  %58 = select i1 %2, i64 %1, i64 0
  %59 = getelementptr inbounds i32*, i32** %57, i64 %58
  %60 = load i32**, i32*** %6, align 8, !tbaa !76
  %61 = load i32**, i32*** %4, align 8, !tbaa !71
  %62 = getelementptr inbounds i32*, i32** %61, i64 1
  %63 = ptrtoint i32** %62 to i64
  %64 = ptrtoint i32** %60 to i64
  %65 = sub i64 %63, %64
  %66 = icmp eq i64 %65, 0
  br i1 %66, label %70, label %67

; <label>:67:                                     ; preds = %51
  %68 = bitcast i32** %59 to i8*
  %69 = bitcast i32** %60 to i8*
  tail call void @llvm.memmove.p0i8.p0i8.i64(i8* %68, i8* %69, i64 %65, i32 8, i1 false) #8
  br label %70

; <label>:70:                                     ; preds = %51, %67
  %71 = bitcast %"class.std::deque.13"* %0 to i8**
  %72 = load i8*, i8** %71, align 8, !tbaa !72
  tail call void @_ZdlPv(i8* %72) #8
  store i8* %53, i8** %71, align 8, !tbaa !72
  store i64 %48, i64* %14, align 8, !tbaa !70
  br label %73

; <label>:73:                                     ; preds = %38, %35, %32, %30, %70
  %74 = phi i32** [ %59, %70 ], [ %25, %30 ], [ %25, %32 ], [ %25, %35 ], [ %25, %38 ]
  store i32** %74, i32*** %6, align 8, !tbaa !73
  %75 = load i32*, i32** %74, align 8, !tbaa !27
  %76 = getelementptr inbounds %"class.std::deque.13", %"class.std::deque.13"* %0, i64 0, i32 0, i32 0, i32 2, i32 1
  store i32* %75, i32** %76, align 8, !tbaa !74
  %77 = getelementptr inbounds i32, i32* %75, i64 128
  %78 = getelementptr inbounds %"class.std::deque.13", %"class.std::deque.13"* %0, i64 0, i32 0, i32 0, i32 2, i32 2
  store i32* %77, i32** %78, align 8, !tbaa !75
  %79 = getelementptr inbounds i32*, i32** %74, i64 %11
  store i32** %79, i32*** %4, align 8, !tbaa !73
  %80 = load i32*, i32** %79, align 8, !tbaa !27
  %81 = getelementptr inbounds %"class.std::deque.13", %"class.std::deque.13"* %0, i64 0, i32 0, i32 0, i32 3, i32 1
  store i32* %80, i32** %81, align 8, !tbaa !74
  %82 = getelementptr inbounds i32, i32* %80, i64 128
  %83 = getelementptr inbounds %"class.std::deque.13", %"class.std::deque.13"* %0, i64 0, i32 0, i32 0, i32 3, i32 2
  store i32* %82, i32** %83, align 8, !tbaa !75
  ret void
}

; Function Attrs: uwtable
define void @queuePop32(%"class.MARC::ThreadSafeQueue.11"*, i32*) local_unnamed_addr #5 {
  %3 = tail call zeroext i1 @_ZN4MARC15ThreadSafeQueueIiE7waitPopERi(%"class.MARC::ThreadSafeQueue.11"* %0, i32* dereferenceable(4) %1)
  ret void
}

; Function Attrs: uwtable
define linkonce_odr zeroext i1 @_ZN4MARC15ThreadSafeQueueIiE7waitPopERi(%"class.MARC::ThreadSafeQueue.11"*, i32* dereferenceable(4)) local_unnamed_addr #5 comdat align 2 personality i8* bitcast (i32 (...)* @__gxx_personality_v0 to i8*) {
  %3 = alloca %"class.std::unique_lock", align 8
  %4 = bitcast %"class.std::unique_lock"* %3 to i8*
  call void @llvm.lifetime.start.p0i8(i64 16, i8* nonnull %4) #8
  %5 = getelementptr inbounds %"class.MARC::ThreadSafeQueue.11", %"class.MARC::ThreadSafeQueue.11"* %0, i64 0, i32 1
  %6 = getelementptr inbounds %"class.std::unique_lock", %"class.std::unique_lock"* %3, i64 0, i32 0
  store %"class.std::mutex"* %5, %"class.std::mutex"** %6, align 8, !tbaa !32
  %7 = getelementptr inbounds %"class.std::unique_lock", %"class.std::unique_lock"* %3, i64 0, i32 1
  store i8 0, i8* %7, align 8, !tbaa !35
  br i1 icmp ne (i8* bitcast (i32 (i32*, void (i8*)*)* @__pthread_key_create to i8*), i8* null), label %8, label %13

; <label>:8:                                      ; preds = %2
  %9 = getelementptr inbounds %"class.std::mutex", %"class.std::mutex"* %5, i64 0, i32 0, i32 0
  %10 = tail call i32 @pthread_mutex_lock(%union.pthread_mutex_t* nonnull %9) #8
  %11 = icmp eq i32 %10, 0
  br i1 %11, label %13, label %12

; <label>:12:                                     ; preds = %8
  tail call void @_ZSt20__throw_system_errori(i32 %10) #23
  unreachable

; <label>:13:                                     ; preds = %2, %8
  store i8 1, i8* %7, align 8, !tbaa !35
  %14 = getelementptr inbounds %"class.MARC::ThreadSafeQueue.11", %"class.MARC::ThreadSafeQueue.11"* %0, i64 0, i32 0, i32 0, i32 0
  %15 = load atomic i8, i8* %14 seq_cst, align 1
  %16 = and i8 %15, 1
  %17 = icmp eq i8 %16, 0
  br i1 %17, label %60, label %18

; <label>:18:                                     ; preds = %13
  %19 = getelementptr inbounds %"class.MARC::ThreadSafeQueue.11", %"class.MARC::ThreadSafeQueue.11"* %0, i64 0, i32 2, i32 0, i32 0, i32 0, i32 3, i32 0
  %20 = load i32*, i32** %19, align 8, !tbaa !77
  %21 = getelementptr inbounds %"class.MARC::ThreadSafeQueue.11", %"class.MARC::ThreadSafeQueue.11"* %0, i64 0, i32 2, i32 0, i32 0, i32 0, i32 2, i32 0
  %22 = load i32*, i32** %21, align 8, !tbaa !77
  %23 = icmp eq i32* %20, %22
  br i1 %23, label %24, label %.loopexit

; <label>:24:                                     ; preds = %18
  %25 = getelementptr inbounds %"class.MARC::ThreadSafeQueue.11", %"class.MARC::ThreadSafeQueue.11"* %0, i64 0, i32 3
  br label %26

; <label>:26:                                     ; preds = %30, %24
  %27 = load atomic i8, i8* %14 seq_cst, align 1
  %28 = and i8 %27, 1
  %29 = icmp eq i8 %28, 0
  br i1 %29, label %.loopexit, label %30

; <label>:30:                                     ; preds = %26
  call void @_ZNSt18condition_variable4waitERSt11unique_lockISt5mutexE(%"class.std::condition_variable"* nonnull %25, %"class.std::unique_lock"* nonnull dereferenceable(16) %3) #8
  %31 = load i32*, i32** %19, align 8, !tbaa !77
  %32 = load i32*, i32** %21, align 8, !tbaa !77
  %33 = icmp eq i32* %31, %32
  br i1 %33, label %26, label %.loopexit

.loopexit:                                        ; preds = %30, %26, %18
  %34 = load atomic i8, i8* %14 seq_cst, align 1
  %35 = and i8 %34, 1
  %36 = icmp eq i8 %35, 0
  br i1 %36, label %60, label %37

; <label>:37:                                     ; preds = %.loopexit
  %38 = load i32*, i32** %21, align 8, !tbaa !77, !noalias !78
  %39 = load i32, i32* %38, align 4, !tbaa !17
  store i32 %39, i32* %1, align 4, !tbaa !17
  %40 = getelementptr inbounds %"class.MARC::ThreadSafeQueue.11", %"class.MARC::ThreadSafeQueue.11"* %0, i64 0, i32 2, i32 0, i32 0, i32 0, i32 2, i32 2
  %41 = load i32*, i32** %40, align 8, !tbaa !81
  %42 = getelementptr inbounds i32, i32* %41, i64 -1
  %43 = icmp eq i32* %38, %42
  br i1 %43, label %46, label %44

; <label>:44:                                     ; preds = %37
  %45 = getelementptr inbounds i32, i32* %38, i64 1
  store i32* %45, i32** %21, align 8, !tbaa !82
  br label %58

; <label>:46:                                     ; preds = %37
  %47 = getelementptr inbounds %"class.MARC::ThreadSafeQueue.11", %"class.MARC::ThreadSafeQueue.11"* %0, i64 0, i32 2, i32 0, i32 0, i32 0, i32 2
  %48 = getelementptr inbounds %"class.MARC::ThreadSafeQueue.11", %"class.MARC::ThreadSafeQueue.11"* %0, i64 0, i32 2, i32 0, i32 0, i32 0, i32 2, i32 1
  %49 = bitcast i32** %48 to i8**
  %50 = load i8*, i8** %49, align 8, !tbaa !83
  call void @_ZdlPv(i8* %50) #8
  %51 = getelementptr inbounds %"class.MARC::ThreadSafeQueue.11", %"class.MARC::ThreadSafeQueue.11"* %0, i64 0, i32 2, i32 0, i32 0, i32 0, i32 2, i32 3
  %52 = load i32**, i32*** %51, align 8, !tbaa !76
  %53 = getelementptr inbounds i32*, i32** %52, i64 1
  store i32** %53, i32*** %51, align 8, !tbaa !73
  %54 = load i32*, i32** %53, align 8, !tbaa !27
  store i32* %54, i32** %48, align 8, !tbaa !74
  %55 = getelementptr inbounds i32, i32* %54, i64 128
  store i32* %55, i32** %40, align 8, !tbaa !75
  %56 = ptrtoint i32* %54 to i64
  %57 = bitcast %"struct.std::_Deque_iterator.18"* %47 to i64*
  store i64 %56, i64* %57, align 8, !tbaa !82
  br label %58

; <label>:58:                                     ; preds = %44, %46
  %59 = getelementptr inbounds %"class.MARC::ThreadSafeQueue.11", %"class.MARC::ThreadSafeQueue.11"* %0, i64 0, i32 4
  call void @_ZNSt18condition_variable10notify_oneEv(%"class.std::condition_variable"* %59) #8
  br label %60

; <label>:60:                                     ; preds = %.loopexit, %13, %58
  %61 = phi i1 [ false, %13 ], [ false, %.loopexit ], [ true, %58 ]
  %62 = load i8, i8* %7, align 8, !tbaa !35, !range !43
  %63 = icmp eq i8 %62, 0
  br i1 %63, label %72, label %64

; <label>:64:                                     ; preds = %60
  %65 = load %"class.std::mutex"*, %"class.std::mutex"** %6, align 8, !tbaa !32
  %66 = icmp eq %"class.std::mutex"* %65, null
  br i1 %66, label %72, label %67

; <label>:67:                                     ; preds = %64
  br i1 icmp ne (i8* bitcast (i32 (i32*, void (i8*)*)* @__pthread_key_create to i8*), i8* null), label %68, label %71

; <label>:68:                                     ; preds = %67
  %69 = getelementptr inbounds %"class.std::mutex", %"class.std::mutex"* %65, i64 0, i32 0, i32 0
  %70 = call i32 @pthread_mutex_unlock(%union.pthread_mutex_t* %69) #8
  br label %71

; <label>:71:                                     ; preds = %68, %67
  store i8 0, i8* %7, align 8, !tbaa !35
  br label %72

; <label>:72:                                     ; preds = %60, %64, %71
  call void @llvm.lifetime.end.p0i8(i64 16, i8* nonnull %4) #8
  ret i1 %61
}

; Function Attrs: uwtable
define void @queuePush64(%"class.MARC::ThreadSafeQueue.19"*, i64* nocapture readonly) local_unnamed_addr #5 {
  %3 = load i64, i64* %1, align 8, !tbaa !84
  tail call void @_ZN4MARC15ThreadSafeQueueIlE4pushEl(%"class.MARC::ThreadSafeQueue.19"* %0, i64 %3)
  ret void
}

; Function Attrs: uwtable
define linkonce_odr void @_ZN4MARC15ThreadSafeQueueIlE4pushEl(%"class.MARC::ThreadSafeQueue.19"*, i64) local_unnamed_addr #5 comdat align 2 personality i8* bitcast (i32 (...)* @__gxx_personality_v0 to i8*) {
  %3 = getelementptr inbounds %"class.MARC::ThreadSafeQueue.19", %"class.MARC::ThreadSafeQueue.19"* %0, i64 0, i32 1
  br i1 icmp ne (i8* bitcast (i32 (i32*, void (i8*)*)* @__pthread_key_create to i8*), i8* null), label %4, label %9

; <label>:4:                                      ; preds = %2
  %5 = getelementptr inbounds %"class.std::mutex", %"class.std::mutex"* %3, i64 0, i32 0, i32 0
  %6 = tail call i32 @pthread_mutex_lock(%union.pthread_mutex_t* nonnull %5) #8
  %7 = icmp eq i32 %6, 0
  br i1 %7, label %9, label %8

; <label>:8:                                      ; preds = %4
  tail call void @_ZSt20__throw_system_errori(i32 %6) #23
  unreachable

; <label>:9:                                      ; preds = %2, %4
  %10 = getelementptr inbounds %"class.MARC::ThreadSafeQueue.19", %"class.MARC::ThreadSafeQueue.19"* %0, i64 0, i32 2
  %11 = getelementptr inbounds %"class.std::queue.20", %"class.std::queue.20"* %10, i64 0, i32 0
  %12 = getelementptr inbounds %"class.MARC::ThreadSafeQueue.19", %"class.MARC::ThreadSafeQueue.19"* %0, i64 0, i32 2, i32 0, i32 0, i32 0, i32 3, i32 0
  %13 = load i64*, i64** %12, align 8, !tbaa !85
  %14 = getelementptr inbounds %"class.MARC::ThreadSafeQueue.19", %"class.MARC::ThreadSafeQueue.19"* %0, i64 0, i32 2, i32 0, i32 0, i32 0, i32 3, i32 2
  %15 = load i64*, i64** %14, align 8, !tbaa !89
  %16 = getelementptr inbounds i64, i64* %15, i64 -1
  %17 = icmp eq i64* %13, %16
  br i1 %17, label %20, label %18

; <label>:18:                                     ; preds = %9
  store i64 %1, i64* %13, align 8, !tbaa !84
  %19 = getelementptr inbounds i64, i64* %13, i64 1
  store i64* %19, i64** %12, align 8, !tbaa !85
  br label %49

; <label>:20:                                     ; preds = %9
  %21 = getelementptr inbounds %"class.MARC::ThreadSafeQueue.19", %"class.MARC::ThreadSafeQueue.19"* %0, i64 0, i32 2, i32 0, i32 0, i32 0, i32 1
  %22 = load i64, i64* %21, align 8, !tbaa !90
  %23 = getelementptr inbounds %"class.MARC::ThreadSafeQueue.19", %"class.MARC::ThreadSafeQueue.19"* %0, i64 0, i32 2, i32 0, i32 0, i32 0, i32 3, i32 3
  %24 = bitcast i64*** %23 to i64*
  %25 = load i64, i64* %24, align 8, !tbaa !91
  %26 = bitcast %"class.std::queue.20"* %10 to i64*
  %27 = load i64, i64* %26, align 8, !tbaa !92
  %28 = sub i64 %25, %27
  %29 = ashr exact i64 %28, 3
  %30 = sub i64 %22, %29
  %31 = icmp ult i64 %30, 2
  br i1 %31, label %32, label %33

; <label>:32:                                     ; preds = %20
  invoke void @_ZNSt5dequeIlSaIlEE17_M_reallocate_mapEmb(%"class.std::deque.21"* nonnull %11, i64 1, i1 zeroext false)
          to label %33 unwind label %55

; <label>:33:                                     ; preds = %32, %20
  %34 = invoke i8* @_Znwm(i64 512)
          to label %35 unwind label %55

; <label>:35:                                     ; preds = %33
  %36 = getelementptr inbounds %"class.MARC::ThreadSafeQueue.19", %"class.MARC::ThreadSafeQueue.19"* %0, i64 0, i32 2, i32 0, i32 0, i32 0, i32 3
  %37 = load i64**, i64*** %23, align 8, !tbaa !91
  %38 = getelementptr inbounds i64*, i64** %37, i64 1
  %39 = bitcast i64** %38 to i8**
  store i8* %34, i8** %39, align 8, !tbaa !27
  %40 = getelementptr inbounds %"struct.std::_Deque_iterator.26", %"struct.std::_Deque_iterator.26"* %36, i64 0, i32 0
  %41 = load i64*, i64** %40, align 8, !tbaa !85
  store i64 %1, i64* %41, align 8, !tbaa !84
  %42 = load i64**, i64*** %23, align 8, !tbaa !91
  %43 = getelementptr inbounds i64*, i64** %42, i64 1
  store i64** %43, i64*** %23, align 8, !tbaa !93
  %44 = load i64*, i64** %43, align 8, !tbaa !27
  %45 = getelementptr inbounds %"class.MARC::ThreadSafeQueue.19", %"class.MARC::ThreadSafeQueue.19"* %0, i64 0, i32 2, i32 0, i32 0, i32 0, i32 3, i32 1
  store i64* %44, i64** %45, align 8, !tbaa !94
  %46 = getelementptr inbounds i64, i64* %44, i64 64
  store i64* %46, i64** %14, align 8, !tbaa !95
  %47 = ptrtoint i64* %44 to i64
  %48 = bitcast %"struct.std::_Deque_iterator.26"* %36 to i64*
  store i64 %47, i64* %48, align 8, !tbaa !85
  br label %49

; <label>:49:                                     ; preds = %35, %18
  %50 = getelementptr inbounds %"class.MARC::ThreadSafeQueue.19", %"class.MARC::ThreadSafeQueue.19"* %0, i64 0, i32 3
  tail call void @_ZNSt18condition_variable10notify_oneEv(%"class.std::condition_variable"* %50) #8
  br i1 icmp ne (i8* bitcast (i32 (i32*, void (i8*)*)* @__pthread_key_create to i8*), i8* null), label %51, label %54

; <label>:51:                                     ; preds = %49
  %52 = getelementptr inbounds %"class.std::mutex", %"class.std::mutex"* %3, i64 0, i32 0, i32 0
  %53 = tail call i32 @pthread_mutex_unlock(%union.pthread_mutex_t* %52) #8
  br label %54

; <label>:54:                                     ; preds = %49, %51
  ret void

; <label>:55:                                     ; preds = %33, %32
  %56 = landingpad { i8*, i32 }
          cleanup
  br i1 icmp ne (i8* bitcast (i32 (i32*, void (i8*)*)* @__pthread_key_create to i8*), i8* null), label %57, label %60

; <label>:57:                                     ; preds = %55
  %58 = getelementptr inbounds %"class.std::mutex", %"class.std::mutex"* %3, i64 0, i32 0, i32 0
  %59 = tail call i32 @pthread_mutex_unlock(%union.pthread_mutex_t* %58) #8
  br label %60

; <label>:60:                                     ; preds = %55, %57
  resume { i8*, i32 } %56
}

; Function Attrs: uwtable
define linkonce_odr void @_ZNSt5dequeIlSaIlEE17_M_reallocate_mapEmb(%"class.std::deque.21"*, i64, i1 zeroext) local_unnamed_addr #5 comdat align 2 personality i32 (...)* @__gxx_personality_v0 {
  %4 = getelementptr inbounds %"class.std::deque.21", %"class.std::deque.21"* %0, i64 0, i32 0, i32 0, i32 3, i32 3
  %5 = load i64**, i64*** %4, align 8, !tbaa !91
  %6 = getelementptr inbounds %"class.std::deque.21", %"class.std::deque.21"* %0, i64 0, i32 0, i32 0, i32 2, i32 3
  %7 = load i64**, i64*** %6, align 8, !tbaa !96
  %8 = ptrtoint i64** %5 to i64
  %9 = ptrtoint i64** %7 to i64
  %10 = sub i64 %8, %9
  %11 = ashr exact i64 %10, 3
  %12 = add nsw i64 %11, 1
  %13 = add i64 %12, %1
  %14 = getelementptr inbounds %"class.std::deque.21", %"class.std::deque.21"* %0, i64 0, i32 0, i32 0, i32 1
  %15 = load i64, i64* %14, align 8, !tbaa !90
  %16 = shl i64 %13, 1
  %17 = icmp ugt i64 %15, %16
  br i1 %17, label %18, label %44

; <label>:18:                                     ; preds = %3
  %19 = getelementptr inbounds %"class.std::deque.21", %"class.std::deque.21"* %0, i64 0, i32 0, i32 0, i32 0
  %20 = load i64**, i64*** %19, align 8, !tbaa !92
  %21 = sub i64 %15, %13
  %22 = lshr i64 %21, 1
  %23 = getelementptr inbounds i64*, i64** %20, i64 %22
  %24 = select i1 %2, i64 %1, i64 0
  %25 = getelementptr inbounds i64*, i64** %23, i64 %24
  %26 = icmp ult i64** %25, %7
  %27 = getelementptr inbounds i64*, i64** %5, i64 1
  %28 = ptrtoint i64** %27 to i64
  %29 = sub i64 %28, %9
  br i1 %26, label %30, label %35

; <label>:30:                                     ; preds = %18
  %31 = icmp eq i64 %29, 0
  br i1 %31, label %73, label %32

; <label>:32:                                     ; preds = %30
  %33 = bitcast i64** %25 to i8*
  %34 = bitcast i64** %7 to i8*
  tail call void @llvm.memmove.p0i8.p0i8.i64(i8* %33, i8* %34, i64 %29, i32 8, i1 false) #8
  br label %73

; <label>:35:                                     ; preds = %18
  %36 = ashr exact i64 %29, 3
  %37 = icmp eq i64 %36, 0
  br i1 %37, label %73, label %38

; <label>:38:                                     ; preds = %35
  %39 = getelementptr inbounds i64*, i64** %25, i64 %12
  %40 = sub nsw i64 0, %36
  %41 = getelementptr inbounds i64*, i64** %39, i64 %40
  %42 = bitcast i64** %41 to i8*
  %43 = bitcast i64** %7 to i8*
  tail call void @llvm.memmove.p0i8.p0i8.i64(i8* %42, i8* %43, i64 %29, i32 8, i1 false) #8
  br label %73

; <label>:44:                                     ; preds = %3
  %45 = icmp ult i64 %15, %1
  %46 = select i1 %45, i64 %1, i64 %15
  %47 = add i64 %15, 2
  %48 = add i64 %47, %46
  %49 = icmp ugt i64 %48, 2305843009213693951
  br i1 %49, label %50, label %51

; <label>:50:                                     ; preds = %44
  tail call void @_ZSt17__throw_bad_allocv() #23
  unreachable

; <label>:51:                                     ; preds = %44
  %52 = shl i64 %48, 3
  %53 = tail call i8* @_Znwm(i64 %52)
  %54 = bitcast i8* %53 to i64**
  %55 = sub i64 %48, %13
  %56 = lshr i64 %55, 1
  %57 = getelementptr inbounds i64*, i64** %54, i64 %56
  %58 = select i1 %2, i64 %1, i64 0
  %59 = getelementptr inbounds i64*, i64** %57, i64 %58
  %60 = load i64**, i64*** %6, align 8, !tbaa !96
  %61 = load i64**, i64*** %4, align 8, !tbaa !91
  %62 = getelementptr inbounds i64*, i64** %61, i64 1
  %63 = ptrtoint i64** %62 to i64
  %64 = ptrtoint i64** %60 to i64
  %65 = sub i64 %63, %64
  %66 = icmp eq i64 %65, 0
  br i1 %66, label %70, label %67

; <label>:67:                                     ; preds = %51
  %68 = bitcast i64** %59 to i8*
  %69 = bitcast i64** %60 to i8*
  tail call void @llvm.memmove.p0i8.p0i8.i64(i8* %68, i8* %69, i64 %65, i32 8, i1 false) #8
  br label %70

; <label>:70:                                     ; preds = %51, %67
  %71 = bitcast %"class.std::deque.21"* %0 to i8**
  %72 = load i8*, i8** %71, align 8, !tbaa !92
  tail call void @_ZdlPv(i8* %72) #8
  store i8* %53, i8** %71, align 8, !tbaa !92
  store i64 %48, i64* %14, align 8, !tbaa !90
  br label %73

; <label>:73:                                     ; preds = %38, %35, %32, %30, %70
  %74 = phi i64** [ %59, %70 ], [ %25, %30 ], [ %25, %32 ], [ %25, %35 ], [ %25, %38 ]
  store i64** %74, i64*** %6, align 8, !tbaa !93
  %75 = load i64*, i64** %74, align 8, !tbaa !27
  %76 = getelementptr inbounds %"class.std::deque.21", %"class.std::deque.21"* %0, i64 0, i32 0, i32 0, i32 2, i32 1
  store i64* %75, i64** %76, align 8, !tbaa !94
  %77 = getelementptr inbounds i64, i64* %75, i64 64
  %78 = getelementptr inbounds %"class.std::deque.21", %"class.std::deque.21"* %0, i64 0, i32 0, i32 0, i32 2, i32 2
  store i64* %77, i64** %78, align 8, !tbaa !95
  %79 = getelementptr inbounds i64*, i64** %74, i64 %11
  store i64** %79, i64*** %4, align 8, !tbaa !93
  %80 = load i64*, i64** %79, align 8, !tbaa !27
  %81 = getelementptr inbounds %"class.std::deque.21", %"class.std::deque.21"* %0, i64 0, i32 0, i32 0, i32 3, i32 1
  store i64* %80, i64** %81, align 8, !tbaa !94
  %82 = getelementptr inbounds i64, i64* %80, i64 64
  %83 = getelementptr inbounds %"class.std::deque.21", %"class.std::deque.21"* %0, i64 0, i32 0, i32 0, i32 3, i32 2
  store i64* %82, i64** %83, align 8, !tbaa !95
  ret void
}

; Function Attrs: uwtable
define void @queuePop64(%"class.MARC::ThreadSafeQueue.19"*, i64*) local_unnamed_addr #5 {
  %3 = tail call zeroext i1 @_ZN4MARC15ThreadSafeQueueIlE7waitPopERl(%"class.MARC::ThreadSafeQueue.19"* %0, i64* dereferenceable(8) %1)
  ret void
}

; Function Attrs: uwtable
define linkonce_odr zeroext i1 @_ZN4MARC15ThreadSafeQueueIlE7waitPopERl(%"class.MARC::ThreadSafeQueue.19"*, i64* dereferenceable(8)) local_unnamed_addr #5 comdat align 2 personality i8* bitcast (i32 (...)* @__gxx_personality_v0 to i8*) {
  %3 = alloca %"class.std::unique_lock", align 8
  %4 = bitcast %"class.std::unique_lock"* %3 to i8*
  call void @llvm.lifetime.start.p0i8(i64 16, i8* nonnull %4) #8
  %5 = getelementptr inbounds %"class.MARC::ThreadSafeQueue.19", %"class.MARC::ThreadSafeQueue.19"* %0, i64 0, i32 1
  %6 = getelementptr inbounds %"class.std::unique_lock", %"class.std::unique_lock"* %3, i64 0, i32 0
  store %"class.std::mutex"* %5, %"class.std::mutex"** %6, align 8, !tbaa !32
  %7 = getelementptr inbounds %"class.std::unique_lock", %"class.std::unique_lock"* %3, i64 0, i32 1
  store i8 0, i8* %7, align 8, !tbaa !35
  br i1 icmp ne (i8* bitcast (i32 (i32*, void (i8*)*)* @__pthread_key_create to i8*), i8* null), label %8, label %13

; <label>:8:                                      ; preds = %2
  %9 = getelementptr inbounds %"class.std::mutex", %"class.std::mutex"* %5, i64 0, i32 0, i32 0
  %10 = tail call i32 @pthread_mutex_lock(%union.pthread_mutex_t* nonnull %9) #8
  %11 = icmp eq i32 %10, 0
  br i1 %11, label %13, label %12

; <label>:12:                                     ; preds = %8
  tail call void @_ZSt20__throw_system_errori(i32 %10) #23
  unreachable

; <label>:13:                                     ; preds = %2, %8
  store i8 1, i8* %7, align 8, !tbaa !35
  %14 = getelementptr inbounds %"class.MARC::ThreadSafeQueue.19", %"class.MARC::ThreadSafeQueue.19"* %0, i64 0, i32 0, i32 0, i32 0
  %15 = load atomic i8, i8* %14 seq_cst, align 1
  %16 = and i8 %15, 1
  %17 = icmp eq i8 %16, 0
  br i1 %17, label %60, label %18

; <label>:18:                                     ; preds = %13
  %19 = getelementptr inbounds %"class.MARC::ThreadSafeQueue.19", %"class.MARC::ThreadSafeQueue.19"* %0, i64 0, i32 2, i32 0, i32 0, i32 0, i32 3, i32 0
  %20 = load i64*, i64** %19, align 8, !tbaa !97
  %21 = getelementptr inbounds %"class.MARC::ThreadSafeQueue.19", %"class.MARC::ThreadSafeQueue.19"* %0, i64 0, i32 2, i32 0, i32 0, i32 0, i32 2, i32 0
  %22 = load i64*, i64** %21, align 8, !tbaa !97
  %23 = icmp eq i64* %20, %22
  br i1 %23, label %24, label %.loopexit

; <label>:24:                                     ; preds = %18
  %25 = getelementptr inbounds %"class.MARC::ThreadSafeQueue.19", %"class.MARC::ThreadSafeQueue.19"* %0, i64 0, i32 3
  br label %26

; <label>:26:                                     ; preds = %30, %24
  %27 = load atomic i8, i8* %14 seq_cst, align 1
  %28 = and i8 %27, 1
  %29 = icmp eq i8 %28, 0
  br i1 %29, label %.loopexit, label %30

; <label>:30:                                     ; preds = %26
  call void @_ZNSt18condition_variable4waitERSt11unique_lockISt5mutexE(%"class.std::condition_variable"* nonnull %25, %"class.std::unique_lock"* nonnull dereferenceable(16) %3) #8
  %31 = load i64*, i64** %19, align 8, !tbaa !97
  %32 = load i64*, i64** %21, align 8, !tbaa !97
  %33 = icmp eq i64* %31, %32
  br i1 %33, label %26, label %.loopexit

.loopexit:                                        ; preds = %30, %26, %18
  %34 = load atomic i8, i8* %14 seq_cst, align 1
  %35 = and i8 %34, 1
  %36 = icmp eq i8 %35, 0
  br i1 %36, label %60, label %37

; <label>:37:                                     ; preds = %.loopexit
  %38 = load i64*, i64** %21, align 8, !tbaa !97, !noalias !98
  %39 = load i64, i64* %38, align 8, !tbaa !84
  store i64 %39, i64* %1, align 8, !tbaa !84
  %40 = getelementptr inbounds %"class.MARC::ThreadSafeQueue.19", %"class.MARC::ThreadSafeQueue.19"* %0, i64 0, i32 2, i32 0, i32 0, i32 0, i32 2, i32 2
  %41 = load i64*, i64** %40, align 8, !tbaa !101
  %42 = getelementptr inbounds i64, i64* %41, i64 -1
  %43 = icmp eq i64* %38, %42
  br i1 %43, label %46, label %44

; <label>:44:                                     ; preds = %37
  %45 = getelementptr inbounds i64, i64* %38, i64 1
  store i64* %45, i64** %21, align 8, !tbaa !102
  br label %58

; <label>:46:                                     ; preds = %37
  %47 = getelementptr inbounds %"class.MARC::ThreadSafeQueue.19", %"class.MARC::ThreadSafeQueue.19"* %0, i64 0, i32 2, i32 0, i32 0, i32 0, i32 2
  %48 = getelementptr inbounds %"class.MARC::ThreadSafeQueue.19", %"class.MARC::ThreadSafeQueue.19"* %0, i64 0, i32 2, i32 0, i32 0, i32 0, i32 2, i32 1
  %49 = bitcast i64** %48 to i8**
  %50 = load i8*, i8** %49, align 8, !tbaa !103
  call void @_ZdlPv(i8* %50) #8
  %51 = getelementptr inbounds %"class.MARC::ThreadSafeQueue.19", %"class.MARC::ThreadSafeQueue.19"* %0, i64 0, i32 2, i32 0, i32 0, i32 0, i32 2, i32 3
  %52 = load i64**, i64*** %51, align 8, !tbaa !96
  %53 = getelementptr inbounds i64*, i64** %52, i64 1
  store i64** %53, i64*** %51, align 8, !tbaa !93
  %54 = load i64*, i64** %53, align 8, !tbaa !27
  store i64* %54, i64** %48, align 8, !tbaa !94
  %55 = getelementptr inbounds i64, i64* %54, i64 64
  store i64* %55, i64** %40, align 8, !tbaa !95
  %56 = ptrtoint i64* %54 to i64
  %57 = bitcast %"struct.std::_Deque_iterator.26"* %47 to i64*
  store i64 %56, i64* %57, align 8, !tbaa !102
  br label %58

; <label>:58:                                     ; preds = %44, %46
  %59 = getelementptr inbounds %"class.MARC::ThreadSafeQueue.19", %"class.MARC::ThreadSafeQueue.19"* %0, i64 0, i32 4
  call void @_ZNSt18condition_variable10notify_oneEv(%"class.std::condition_variable"* %59) #8
  br label %60

; <label>:60:                                     ; preds = %.loopexit, %13, %58
  %61 = phi i1 [ false, %13 ], [ false, %.loopexit ], [ true, %58 ]
  %62 = load i8, i8* %7, align 8, !tbaa !35, !range !43
  %63 = icmp eq i8 %62, 0
  br i1 %63, label %72, label %64

; <label>:64:                                     ; preds = %60
  %65 = load %"class.std::mutex"*, %"class.std::mutex"** %6, align 8, !tbaa !32
  %66 = icmp eq %"class.std::mutex"* %65, null
  br i1 %66, label %72, label %67

; <label>:67:                                     ; preds = %64
  br i1 icmp ne (i8* bitcast (i32 (i32*, void (i8*)*)* @__pthread_key_create to i8*), i8* null), label %68, label %71

; <label>:68:                                     ; preds = %67
  %69 = getelementptr inbounds %"class.std::mutex", %"class.std::mutex"* %65, i64 0, i32 0, i32 0
  %70 = call i32 @pthread_mutex_unlock(%union.pthread_mutex_t* %69) #8
  br label %71

; <label>:71:                                     ; preds = %68, %67
  store i8 0, i8* %7, align 8, !tbaa !35
  br label %72

; <label>:72:                                     ; preds = %60, %64, %71
  call void @llvm.lifetime.end.p0i8(i64 16, i8* nonnull %4) #8
  ret i1 %61
}

; Function Attrs: uwtable
define void @queuePush(%"class.MARC::ThreadSafeQueue"*, i8* nocapture readonly, i64) local_unnamed_addr #5 {
  %4 = icmp sgt i64 %2, 0
  br i1 %4, label %.preheader, label %.loopexit

.preheader:                                       ; preds = %3
  br label %5

.loopexit:                                        ; preds = %5, %3
  ret void

; <label>:5:                                      ; preds = %.preheader, %5
  %6 = phi i64 [ %9, %5 ], [ 0, %.preheader ]
  %7 = phi i8* [ %10, %5 ], [ %1, %.preheader ]
  %8 = load i8, i8* %7, align 1, !tbaa !18
  tail call void @_ZN4MARC15ThreadSafeQueueIcE4pushEc(%"class.MARC::ThreadSafeQueue"* %0, i8 signext %8)
  %9 = add nuw nsw i64 %6, 1
  %10 = getelementptr inbounds i8, i8* %7, i64 1
  %exitcond = icmp eq i64 %9, %2
  br i1 %exitcond, label %.loopexit, label %5
}

; Function Attrs: uwtable
define linkonce_odr void @_ZN4MARC15ThreadSafeQueueIcE4pushEc(%"class.MARC::ThreadSafeQueue"*, i8 signext) local_unnamed_addr #5 comdat align 2 personality i8* bitcast (i32 (...)* @__gxx_personality_v0 to i8*) {
  %3 = getelementptr inbounds %"class.MARC::ThreadSafeQueue", %"class.MARC::ThreadSafeQueue"* %0, i64 0, i32 1
  br i1 icmp ne (i8* bitcast (i32 (i32*, void (i8*)*)* @__pthread_key_create to i8*), i8* null), label %4, label %9

; <label>:4:                                      ; preds = %2
  %5 = getelementptr inbounds %"class.std::mutex", %"class.std::mutex"* %3, i64 0, i32 0, i32 0
  %6 = tail call i32 @pthread_mutex_lock(%union.pthread_mutex_t* nonnull %5) #8
  %7 = icmp eq i32 %6, 0
  br i1 %7, label %9, label %8

; <label>:8:                                      ; preds = %4
  tail call void @_ZSt20__throw_system_errori(i32 %6) #23
  unreachable

; <label>:9:                                      ; preds = %2, %4
  %10 = getelementptr inbounds %"class.MARC::ThreadSafeQueue", %"class.MARC::ThreadSafeQueue"* %0, i64 0, i32 2
  %11 = getelementptr inbounds %"class.std::queue", %"class.std::queue"* %10, i64 0, i32 0
  %12 = getelementptr inbounds %"class.MARC::ThreadSafeQueue", %"class.MARC::ThreadSafeQueue"* %0, i64 0, i32 2, i32 0, i32 0, i32 0, i32 3, i32 0
  %13 = load i8*, i8** %12, align 8, !tbaa !104
  %14 = getelementptr inbounds %"class.MARC::ThreadSafeQueue", %"class.MARC::ThreadSafeQueue"* %0, i64 0, i32 2, i32 0, i32 0, i32 0, i32 3, i32 2
  %15 = load i8*, i8** %14, align 8, !tbaa !108
  %16 = getelementptr inbounds i8, i8* %15, i64 -1
  %17 = icmp eq i8* %13, %16
  br i1 %17, label %21, label %18

; <label>:18:                                     ; preds = %9
  store i8 %1, i8* %13, align 1, !tbaa !18
  %19 = load i8*, i8** %12, align 8, !tbaa !104
  %20 = getelementptr inbounds i8, i8* %19, i64 1
  store i8* %20, i8** %12, align 8, !tbaa !104
  br label %49

; <label>:21:                                     ; preds = %9
  %22 = getelementptr inbounds %"class.MARC::ThreadSafeQueue", %"class.MARC::ThreadSafeQueue"* %0, i64 0, i32 2, i32 0, i32 0, i32 0, i32 1
  %23 = load i64, i64* %22, align 8, !tbaa !109
  %24 = getelementptr inbounds %"class.MARC::ThreadSafeQueue", %"class.MARC::ThreadSafeQueue"* %0, i64 0, i32 2, i32 0, i32 0, i32 0, i32 3, i32 3
  %25 = bitcast i8*** %24 to i64*
  %26 = load i64, i64* %25, align 8, !tbaa !110
  %27 = bitcast %"class.std::queue"* %10 to i64*
  %28 = load i64, i64* %27, align 8, !tbaa !111
  %29 = sub i64 %26, %28
  %30 = ashr exact i64 %29, 3
  %31 = sub i64 %23, %30
  %32 = icmp ult i64 %31, 2
  br i1 %32, label %33, label %34

; <label>:33:                                     ; preds = %21
  invoke void @_ZNSt5dequeIcSaIcEE17_M_reallocate_mapEmb(%"class.std::deque"* nonnull %11, i64 1, i1 zeroext false)
          to label %34 unwind label %55

; <label>:34:                                     ; preds = %33, %21
  %35 = invoke i8* @_Znwm(i64 512)
          to label %36 unwind label %55

; <label>:36:                                     ; preds = %34
  %37 = getelementptr inbounds %"class.MARC::ThreadSafeQueue", %"class.MARC::ThreadSafeQueue"* %0, i64 0, i32 2, i32 0, i32 0, i32 0, i32 3
  %38 = load i8**, i8*** %24, align 8, !tbaa !110
  %39 = getelementptr inbounds i8*, i8** %38, i64 1
  store i8* %35, i8** %39, align 8, !tbaa !27
  %40 = getelementptr inbounds %"struct.std::_Deque_iterator", %"struct.std::_Deque_iterator"* %37, i64 0, i32 0
  %41 = load i8*, i8** %40, align 8, !tbaa !104
  store i8 %1, i8* %41, align 1, !tbaa !18
  %42 = load i8**, i8*** %24, align 8, !tbaa !110
  %43 = getelementptr inbounds i8*, i8** %42, i64 1
  store i8** %43, i8*** %24, align 8, !tbaa !112
  %44 = load i8*, i8** %43, align 8, !tbaa !27
  %45 = getelementptr inbounds %"class.MARC::ThreadSafeQueue", %"class.MARC::ThreadSafeQueue"* %0, i64 0, i32 2, i32 0, i32 0, i32 0, i32 3, i32 1
  store i8* %44, i8** %45, align 8, !tbaa !113
  %46 = getelementptr inbounds i8, i8* %44, i64 512
  store i8* %46, i8** %14, align 8, !tbaa !114
  %47 = ptrtoint i8* %44 to i64
  %48 = bitcast %"struct.std::_Deque_iterator"* %37 to i64*
  store i64 %47, i64* %48, align 8, !tbaa !104
  br label %49

; <label>:49:                                     ; preds = %36, %18
  %50 = getelementptr inbounds %"class.MARC::ThreadSafeQueue", %"class.MARC::ThreadSafeQueue"* %0, i64 0, i32 3
  tail call void @_ZNSt18condition_variable10notify_oneEv(%"class.std::condition_variable"* %50) #8
  br i1 icmp ne (i8* bitcast (i32 (i32*, void (i8*)*)* @__pthread_key_create to i8*), i8* null), label %51, label %54

; <label>:51:                                     ; preds = %49
  %52 = getelementptr inbounds %"class.std::mutex", %"class.std::mutex"* %3, i64 0, i32 0, i32 0
  %53 = tail call i32 @pthread_mutex_unlock(%union.pthread_mutex_t* %52) #8
  br label %54

; <label>:54:                                     ; preds = %49, %51
  ret void

; <label>:55:                                     ; preds = %34, %33
  %56 = landingpad { i8*, i32 }
          cleanup
  br i1 icmp ne (i8* bitcast (i32 (i32*, void (i8*)*)* @__pthread_key_create to i8*), i8* null), label %57, label %60

; <label>:57:                                     ; preds = %55
  %58 = getelementptr inbounds %"class.std::mutex", %"class.std::mutex"* %3, i64 0, i32 0, i32 0
  %59 = tail call i32 @pthread_mutex_unlock(%union.pthread_mutex_t* %58) #8
  br label %60

; <label>:60:                                     ; preds = %55, %57
  resume { i8*, i32 } %56
}

; Function Attrs: uwtable
define linkonce_odr void @_ZNSt5dequeIcSaIcEE17_M_reallocate_mapEmb(%"class.std::deque"*, i64, i1 zeroext) local_unnamed_addr #5 comdat align 2 personality i32 (...)* @__gxx_personality_v0 {
  %4 = getelementptr inbounds %"class.std::deque", %"class.std::deque"* %0, i64 0, i32 0, i32 0, i32 3, i32 3
  %5 = load i8**, i8*** %4, align 8, !tbaa !110
  %6 = getelementptr inbounds %"class.std::deque", %"class.std::deque"* %0, i64 0, i32 0, i32 0, i32 2, i32 3
  %7 = load i8**, i8*** %6, align 8, !tbaa !115
  %8 = ptrtoint i8** %5 to i64
  %9 = ptrtoint i8** %7 to i64
  %10 = sub i64 %8, %9
  %11 = ashr exact i64 %10, 3
  %12 = add nsw i64 %11, 1
  %13 = add i64 %12, %1
  %14 = getelementptr inbounds %"class.std::deque", %"class.std::deque"* %0, i64 0, i32 0, i32 0, i32 1
  %15 = load i64, i64* %14, align 8, !tbaa !109
  %16 = shl i64 %13, 1
  %17 = icmp ugt i64 %15, %16
  br i1 %17, label %18, label %44

; <label>:18:                                     ; preds = %3
  %19 = getelementptr inbounds %"class.std::deque", %"class.std::deque"* %0, i64 0, i32 0, i32 0, i32 0
  %20 = load i8**, i8*** %19, align 8, !tbaa !111
  %21 = sub i64 %15, %13
  %22 = lshr i64 %21, 1
  %23 = getelementptr inbounds i8*, i8** %20, i64 %22
  %24 = select i1 %2, i64 %1, i64 0
  %25 = getelementptr inbounds i8*, i8** %23, i64 %24
  %26 = icmp ult i8** %25, %7
  %27 = getelementptr inbounds i8*, i8** %5, i64 1
  %28 = ptrtoint i8** %27 to i64
  %29 = sub i64 %28, %9
  br i1 %26, label %30, label %35

; <label>:30:                                     ; preds = %18
  %31 = icmp eq i64 %29, 0
  br i1 %31, label %73, label %32

; <label>:32:                                     ; preds = %30
  %33 = bitcast i8** %25 to i8*
  %34 = bitcast i8** %7 to i8*
  tail call void @llvm.memmove.p0i8.p0i8.i64(i8* %33, i8* %34, i64 %29, i32 8, i1 false) #8
  br label %73

; <label>:35:                                     ; preds = %18
  %36 = ashr exact i64 %29, 3
  %37 = icmp eq i64 %36, 0
  br i1 %37, label %73, label %38

; <label>:38:                                     ; preds = %35
  %39 = getelementptr inbounds i8*, i8** %25, i64 %12
  %40 = sub nsw i64 0, %36
  %41 = getelementptr inbounds i8*, i8** %39, i64 %40
  %42 = bitcast i8** %41 to i8*
  %43 = bitcast i8** %7 to i8*
  tail call void @llvm.memmove.p0i8.p0i8.i64(i8* %42, i8* %43, i64 %29, i32 8, i1 false) #8
  br label %73

; <label>:44:                                     ; preds = %3
  %45 = icmp ult i64 %15, %1
  %46 = select i1 %45, i64 %1, i64 %15
  %47 = add i64 %15, 2
  %48 = add i64 %47, %46
  %49 = icmp ugt i64 %48, 2305843009213693951
  br i1 %49, label %50, label %51

; <label>:50:                                     ; preds = %44
  tail call void @_ZSt17__throw_bad_allocv() #23
  unreachable

; <label>:51:                                     ; preds = %44
  %52 = shl i64 %48, 3
  %53 = tail call i8* @_Znwm(i64 %52)
  %54 = bitcast i8* %53 to i8**
  %55 = sub i64 %48, %13
  %56 = lshr i64 %55, 1
  %57 = getelementptr inbounds i8*, i8** %54, i64 %56
  %58 = select i1 %2, i64 %1, i64 0
  %59 = getelementptr inbounds i8*, i8** %57, i64 %58
  %60 = load i8**, i8*** %6, align 8, !tbaa !115
  %61 = load i8**, i8*** %4, align 8, !tbaa !110
  %62 = getelementptr inbounds i8*, i8** %61, i64 1
  %63 = ptrtoint i8** %62 to i64
  %64 = ptrtoint i8** %60 to i64
  %65 = sub i64 %63, %64
  %66 = icmp eq i64 %65, 0
  br i1 %66, label %70, label %67

; <label>:67:                                     ; preds = %51
  %68 = bitcast i8** %59 to i8*
  %69 = bitcast i8** %60 to i8*
  tail call void @llvm.memmove.p0i8.p0i8.i64(i8* %68, i8* %69, i64 %65, i32 8, i1 false) #8
  br label %70

; <label>:70:                                     ; preds = %51, %67
  %71 = bitcast %"class.std::deque"* %0 to i8**
  %72 = load i8*, i8** %71, align 8, !tbaa !111
  tail call void @_ZdlPv(i8* %72) #8
  store i8* %53, i8** %71, align 8, !tbaa !111
  store i64 %48, i64* %14, align 8, !tbaa !109
  br label %73

; <label>:73:                                     ; preds = %38, %35, %32, %30, %70
  %74 = phi i8** [ %59, %70 ], [ %25, %30 ], [ %25, %32 ], [ %25, %35 ], [ %25, %38 ]
  store i8** %74, i8*** %6, align 8, !tbaa !112
  %75 = load i8*, i8** %74, align 8, !tbaa !27
  %76 = getelementptr inbounds %"class.std::deque", %"class.std::deque"* %0, i64 0, i32 0, i32 0, i32 2, i32 1
  store i8* %75, i8** %76, align 8, !tbaa !113
  %77 = getelementptr inbounds i8, i8* %75, i64 512
  %78 = getelementptr inbounds %"class.std::deque", %"class.std::deque"* %0, i64 0, i32 0, i32 0, i32 2, i32 2
  store i8* %77, i8** %78, align 8, !tbaa !114
  %79 = getelementptr inbounds i8*, i8** %74, i64 %11
  store i8** %79, i8*** %4, align 8, !tbaa !112
  %80 = load i8*, i8** %79, align 8, !tbaa !27
  %81 = getelementptr inbounds %"class.std::deque", %"class.std::deque"* %0, i64 0, i32 0, i32 0, i32 3, i32 1
  store i8* %80, i8** %81, align 8, !tbaa !113
  %82 = getelementptr inbounds i8, i8* %80, i64 512
  %83 = getelementptr inbounds %"class.std::deque", %"class.std::deque"* %0, i64 0, i32 0, i32 0, i32 3, i32 2
  store i8* %82, i8** %83, align 8, !tbaa !114
  ret void
}

; Function Attrs: uwtable
define void @queuePop(%"class.MARC::ThreadSafeQueue"*, i8*, i64) local_unnamed_addr #5 {
  %4 = icmp sgt i64 %2, 0
  br i1 %4, label %.preheader1, label %.loopexit1

.preheader1:                                      ; preds = %3
  br label %5

.loopexit1:                                       ; preds = %.loopexit, %3
  ret void

; <label>:5:                                      ; preds = %.preheader1, %.loopexit
  %6 = phi i64 [ %12, %.loopexit ], [ 0, %.preheader1 ]
  %7 = phi i8* [ %13, %.loopexit ], [ %1, %.preheader1 ]
  %8 = tail call zeroext i1 @_ZN4MARC15ThreadSafeQueueIcE7waitPopERc(%"class.MARC::ThreadSafeQueue"* %0, i8* dereferenceable(1) %7)
  br i1 %8, label %.loopexit, label %.preheader

.preheader:                                       ; preds = %5
  br label %9

; <label>:9:                                      ; preds = %.preheader, %9
  %10 = tail call i32 @puts(i8* getelementptr inbounds ([13 x i8], [13 x i8]* @str, i64 0, i64 0))
  %11 = tail call zeroext i1 @_ZN4MARC15ThreadSafeQueueIcE7waitPopERc(%"class.MARC::ThreadSafeQueue"* %0, i8* nonnull dereferenceable(1) %7)
  br i1 %11, label %.loopexit, label %9

.loopexit:                                        ; preds = %9, %5
  %12 = add nuw nsw i64 %6, 1
  %13 = getelementptr inbounds i8, i8* %7, i64 1
  %exitcond = icmp eq i64 %12, %2
  br i1 %exitcond, label %.loopexit1, label %5
}

; Function Attrs: uwtable
define linkonce_odr zeroext i1 @_ZN4MARC15ThreadSafeQueueIcE7waitPopERc(%"class.MARC::ThreadSafeQueue"*, i8* dereferenceable(1)) local_unnamed_addr #5 comdat align 2 personality i8* bitcast (i32 (...)* @__gxx_personality_v0 to i8*) {
  %3 = alloca %"class.std::unique_lock", align 8
  %4 = bitcast %"class.std::unique_lock"* %3 to i8*
  call void @llvm.lifetime.start.p0i8(i64 16, i8* nonnull %4) #8
  %5 = getelementptr inbounds %"class.MARC::ThreadSafeQueue", %"class.MARC::ThreadSafeQueue"* %0, i64 0, i32 1
  %6 = getelementptr inbounds %"class.std::unique_lock", %"class.std::unique_lock"* %3, i64 0, i32 0
  store %"class.std::mutex"* %5, %"class.std::mutex"** %6, align 8, !tbaa !32
  %7 = getelementptr inbounds %"class.std::unique_lock", %"class.std::unique_lock"* %3, i64 0, i32 1
  store i8 0, i8* %7, align 8, !tbaa !35
  br i1 icmp ne (i8* bitcast (i32 (i32*, void (i8*)*)* @__pthread_key_create to i8*), i8* null), label %8, label %13

; <label>:8:                                      ; preds = %2
  %9 = getelementptr inbounds %"class.std::mutex", %"class.std::mutex"* %5, i64 0, i32 0, i32 0
  %10 = tail call i32 @pthread_mutex_lock(%union.pthread_mutex_t* nonnull %9) #8
  %11 = icmp eq i32 %10, 0
  br i1 %11, label %13, label %12

; <label>:12:                                     ; preds = %8
  tail call void @_ZSt20__throw_system_errori(i32 %10) #23
  unreachable

; <label>:13:                                     ; preds = %2, %8
  store i8 1, i8* %7, align 8, !tbaa !35
  %14 = getelementptr inbounds %"class.MARC::ThreadSafeQueue", %"class.MARC::ThreadSafeQueue"* %0, i64 0, i32 0, i32 0, i32 0
  %15 = load atomic i8, i8* %14 seq_cst, align 1
  %16 = and i8 %15, 1
  %17 = icmp eq i8 %16, 0
  br i1 %17, label %60, label %18

; <label>:18:                                     ; preds = %13
  %19 = getelementptr inbounds %"class.MARC::ThreadSafeQueue", %"class.MARC::ThreadSafeQueue"* %0, i64 0, i32 2, i32 0, i32 0, i32 0, i32 3, i32 0
  %20 = load i8*, i8** %19, align 8, !tbaa !116
  %21 = getelementptr inbounds %"class.MARC::ThreadSafeQueue", %"class.MARC::ThreadSafeQueue"* %0, i64 0, i32 2, i32 0, i32 0, i32 0, i32 2, i32 0
  %22 = load i8*, i8** %21, align 8, !tbaa !116
  %23 = icmp eq i8* %20, %22
  br i1 %23, label %24, label %.loopexit

; <label>:24:                                     ; preds = %18
  %25 = getelementptr inbounds %"class.MARC::ThreadSafeQueue", %"class.MARC::ThreadSafeQueue"* %0, i64 0, i32 3
  br label %26

; <label>:26:                                     ; preds = %30, %24
  %27 = load atomic i8, i8* %14 seq_cst, align 1
  %28 = and i8 %27, 1
  %29 = icmp eq i8 %28, 0
  br i1 %29, label %.loopexit, label %30

; <label>:30:                                     ; preds = %26
  call void @_ZNSt18condition_variable4waitERSt11unique_lockISt5mutexE(%"class.std::condition_variable"* nonnull %25, %"class.std::unique_lock"* nonnull dereferenceable(16) %3) #8
  %31 = load i8*, i8** %19, align 8, !tbaa !116
  %32 = load i8*, i8** %21, align 8, !tbaa !116
  %33 = icmp eq i8* %31, %32
  br i1 %33, label %26, label %.loopexit

.loopexit:                                        ; preds = %30, %26, %18
  %34 = load atomic i8, i8* %14 seq_cst, align 1
  %35 = and i8 %34, 1
  %36 = icmp eq i8 %35, 0
  br i1 %36, label %60, label %37

; <label>:37:                                     ; preds = %.loopexit
  %38 = load i8*, i8** %21, align 8, !tbaa !116, !noalias !117
  %39 = load i8, i8* %38, align 1, !tbaa !18
  store i8 %39, i8* %1, align 1, !tbaa !18
  %40 = load i8*, i8** %21, align 8, !tbaa !120
  %41 = getelementptr inbounds %"class.MARC::ThreadSafeQueue", %"class.MARC::ThreadSafeQueue"* %0, i64 0, i32 2, i32 0, i32 0, i32 0, i32 2, i32 2
  %42 = load i8*, i8** %41, align 8, !tbaa !121
  %43 = getelementptr inbounds i8, i8* %42, i64 -1
  %44 = icmp eq i8* %40, %43
  br i1 %44, label %47, label %45

; <label>:45:                                     ; preds = %37
  %46 = getelementptr inbounds i8, i8* %40, i64 1
  store i8* %46, i8** %21, align 8, !tbaa !120
  br label %58

; <label>:47:                                     ; preds = %37
  %48 = getelementptr inbounds %"class.MARC::ThreadSafeQueue", %"class.MARC::ThreadSafeQueue"* %0, i64 0, i32 2, i32 0, i32 0, i32 0, i32 2
  %49 = getelementptr inbounds %"class.MARC::ThreadSafeQueue", %"class.MARC::ThreadSafeQueue"* %0, i64 0, i32 2, i32 0, i32 0, i32 0, i32 2, i32 1
  %50 = load i8*, i8** %49, align 8, !tbaa !122
  call void @_ZdlPv(i8* %50) #8
  %51 = getelementptr inbounds %"class.MARC::ThreadSafeQueue", %"class.MARC::ThreadSafeQueue"* %0, i64 0, i32 2, i32 0, i32 0, i32 0, i32 2, i32 3
  %52 = load i8**, i8*** %51, align 8, !tbaa !115
  %53 = getelementptr inbounds i8*, i8** %52, i64 1
  store i8** %53, i8*** %51, align 8, !tbaa !112
  %54 = load i8*, i8** %53, align 8, !tbaa !27
  store i8* %54, i8** %49, align 8, !tbaa !113
  %55 = getelementptr inbounds i8, i8* %54, i64 512
  store i8* %55, i8** %41, align 8, !tbaa !114
  %56 = ptrtoint i8* %54 to i64
  %57 = bitcast %"struct.std::_Deque_iterator"* %48 to i64*
  store i64 %56, i64* %57, align 8, !tbaa !120
  br label %58

; <label>:58:                                     ; preds = %45, %47
  %59 = getelementptr inbounds %"class.MARC::ThreadSafeQueue", %"class.MARC::ThreadSafeQueue"* %0, i64 0, i32 4
  call void @_ZNSt18condition_variable10notify_oneEv(%"class.std::condition_variable"* %59) #8
  br label %60

; <label>:60:                                     ; preds = %.loopexit, %13, %58
  %61 = phi i1 [ false, %13 ], [ false, %.loopexit ], [ true, %58 ]
  %62 = load i8, i8* %7, align 8, !tbaa !35, !range !43
  %63 = icmp eq i8 %62, 0
  br i1 %63, label %72, label %64

; <label>:64:                                     ; preds = %60
  %65 = load %"class.std::mutex"*, %"class.std::mutex"** %6, align 8, !tbaa !32
  %66 = icmp eq %"class.std::mutex"* %65, null
  br i1 %66, label %72, label %67

; <label>:67:                                     ; preds = %64
  br i1 icmp ne (i8* bitcast (i32 (i32*, void (i8*)*)* @__pthread_key_create to i8*), i8* null), label %68, label %71

; <label>:68:                                     ; preds = %67
  %69 = getelementptr inbounds %"class.std::mutex", %"class.std::mutex"* %65, i64 0, i32 0, i32 0
  %70 = call i32 @pthread_mutex_unlock(%union.pthread_mutex_t* %69) #8
  br label %71

; <label>:71:                                     ; preds = %68, %67
  store i8 0, i8* %7, align 8, !tbaa !35
  br label %72

; <label>:72:                                     ; preds = %60, %64, %71
  call void @llvm.lifetime.end.p0i8(i64 16, i8* nonnull %4) #8
  ret i1 %61
}

; Function Attrs: uwtable
define void @stageExecuter(void (i8*, i8*)* nocapture, i8*, i8*) local_unnamed_addr #5 {
  tail call void %0(i8* %1, i8* %2)
  ret void
}

; Function Attrs: uwtable
define void @stageDispatcher(i8*, i8* nocapture readnone, i64* nocapture readonly, i8* nocapture readonly, i64, i64) local_unnamed_addr #5 personality i8* bitcast (i32 (...)* @__gxx_personality_v0 to i8*) {
  %7 = alloca i8*, align 8
  %8 = alloca %"class.MARC::ThreadPool", align 8
  %9 = alloca %"class.std::function", align 8
  %10 = alloca %"class.std::vector.53", align 8
  %11 = alloca void (i8*, i8*)*, align 8
  %12 = alloca <2 x i64>, align 16
  %13 = bitcast <2 x i64>* %12 to %"class.MARC::TaskFuture"*
  %14 = alloca i8*, align 8
  store i8* %0, i8** %7, align 8, !tbaa !27
  %15 = alloca i8*, i64 %5, align 16
  %16 = icmp sgt i64 %5, 0
  br i1 %16, label %.preheader18, label %.loopexit2

.preheader18:                                     ; preds = %6
  br label %20

.loopexit2:                                       ; preds = %61, %6
  %17 = getelementptr inbounds %"class.MARC::ThreadPool", %"class.MARC::ThreadPool"* %8, i64 0, i32 0, i32 0, i32 0
  call void @llvm.lifetime.start.p0i8(i64 488, i8* nonnull %17) #8
  %18 = trunc i64 %4 to i32
  %19 = getelementptr inbounds %"class.std::function", %"class.std::function"* %9, i64 0, i32 0, i32 1
  store i1 (%"union.std::_Any_data"*, %"union.std::_Any_data"*, i32)* null, i1 (%"union.std::_Any_data"*, %"union.std::_Any_data"*, i32)** %19, align 8, !tbaa !123
  invoke void @_ZN4MARC10ThreadPoolC2EjSt8functionIFvvEE(%"class.MARC::ThreadPool"* nonnull %8, i32 %18, %"class.std::function"* nonnull %9)
          to label %66 unwind label %97

; <label>:20:                                     ; preds = %.preheader18, %61
  %21 = phi i64 [ %64, %61 ], [ 0, %.preheader18 ]
  %22 = getelementptr inbounds i64, i64* %2, i64 %21
  %23 = load i64, i64* %22, align 8, !tbaa !84
  switch i64 %23, label %59 [
    i64 1, label %24
    i64 8, label %31
    i64 16, label %38
    i64 32, label %45
    i64 64, label %52
  ]

; <label>:24:                                     ; preds = %20
  %25 = tail call i8* @_Znwm(i64 224) #24
  %26 = bitcast i8* %25 to %"class.MARC::ThreadSafeQueue"*
  tail call void @llvm.memset.p0i8.i64(i8* nonnull %25, i8 0, i64 224, i32 16, i1 false)
  invoke void @_ZN4MARC15ThreadSafeQueueIaEC2Ev(%"class.MARC::ThreadSafeQueue"* nonnull %26)
          to label %61 unwind label %27

; <label>:27:                                     ; preds = %24
  %28 = landingpad { i8*, i32 }
          cleanup
  %29 = extractvalue { i8*, i32 } %28, 0
  %30 = extractvalue { i8*, i32 } %28, 1
  tail call void @_ZdlPv(i8* nonnull %25) #25
  br label %267

; <label>:31:                                     ; preds = %20
  %32 = tail call i8* @_Znwm(i64 224) #24
  %33 = bitcast i8* %32 to %"class.MARC::ThreadSafeQueue"*
  tail call void @llvm.memset.p0i8.i64(i8* nonnull %32, i8 0, i64 224, i32 16, i1 false)
  invoke void @_ZN4MARC15ThreadSafeQueueIaEC2Ev(%"class.MARC::ThreadSafeQueue"* nonnull %33)
          to label %61 unwind label %34

; <label>:34:                                     ; preds = %31
  %35 = landingpad { i8*, i32 }
          cleanup
  %36 = extractvalue { i8*, i32 } %35, 0
  %37 = extractvalue { i8*, i32 } %35, 1
  tail call void @_ZdlPv(i8* nonnull %32) #25
  br label %267

; <label>:38:                                     ; preds = %20
  %39 = tail call i8* @_Znwm(i64 224) #24
  %40 = bitcast i8* %39 to %"class.MARC::ThreadSafeQueue.3"*
  tail call void @llvm.memset.p0i8.i64(i8* nonnull %39, i8 0, i64 224, i32 16, i1 false)
  invoke void @_ZN4MARC15ThreadSafeQueueIsEC2Ev(%"class.MARC::ThreadSafeQueue.3"* nonnull %40)
          to label %61 unwind label %41

; <label>:41:                                     ; preds = %38
  %42 = landingpad { i8*, i32 }
          cleanup
  %43 = extractvalue { i8*, i32 } %42, 0
  %44 = extractvalue { i8*, i32 } %42, 1
  tail call void @_ZdlPv(i8* nonnull %39) #25
  br label %267

; <label>:45:                                     ; preds = %20
  %46 = tail call i8* @_Znwm(i64 224) #24
  %47 = bitcast i8* %46 to %"class.MARC::ThreadSafeQueue.11"*
  tail call void @llvm.memset.p0i8.i64(i8* nonnull %46, i8 0, i64 224, i32 16, i1 false)
  invoke void @_ZN4MARC15ThreadSafeQueueIiEC2Ev(%"class.MARC::ThreadSafeQueue.11"* nonnull %47)
          to label %61 unwind label %48

; <label>:48:                                     ; preds = %45
  %49 = landingpad { i8*, i32 }
          cleanup
  %50 = extractvalue { i8*, i32 } %49, 0
  %51 = extractvalue { i8*, i32 } %49, 1
  tail call void @_ZdlPv(i8* nonnull %46) #25
  br label %267

; <label>:52:                                     ; preds = %20
  %53 = tail call i8* @_Znwm(i64 224) #24
  %54 = bitcast i8* %53 to %"class.MARC::ThreadSafeQueue.19"*
  tail call void @llvm.memset.p0i8.i64(i8* nonnull %53, i8 0, i64 224, i32 16, i1 false)
  invoke void @_ZN4MARC15ThreadSafeQueueIlEC2Ev(%"class.MARC::ThreadSafeQueue.19"* nonnull %54)
          to label %61 unwind label %55

; <label>:55:                                     ; preds = %52
  %56 = landingpad { i8*, i32 }
          cleanup
  %57 = extractvalue { i8*, i32 } %56, 0
  %58 = extractvalue { i8*, i32 } %56, 1
  tail call void @_ZdlPv(i8* nonnull %53) #25
  br label %267

; <label>:59:                                     ; preds = %20
  %60 = tail call dereferenceable(272) %"class.std::basic_ostream"* @_ZStlsISt11char_traitsIcEERSt13basic_ostreamIcT_ES5_PKc(%"class.std::basic_ostream"* nonnull dereferenceable(272) @_ZSt4cerr, i8* getelementptr inbounds ([23 x i8], [23 x i8]* @.str.4, i64 0, i64 0))
  tail call void @abort() #22
  unreachable

; <label>:61:                                     ; preds = %52, %45, %38, %31, %24
  %62 = phi i8* [ %25, %24 ], [ %32, %31 ], [ %39, %38 ], [ %46, %45 ], [ %53, %52 ]
  %63 = getelementptr inbounds i8*, i8** %15, i64 %21
  store i8* %62, i8** %63, align 8, !tbaa !27
  %64 = add nuw nsw i64 %21, 1
  %65 = icmp slt i64 %64, %5
  br i1 %65, label %20, label %.loopexit2

; <label>:66:                                     ; preds = %.loopexit2
  %67 = load i1 (%"union.std::_Any_data"*, %"union.std::_Any_data"*, i32)*, i1 (%"union.std::_Any_data"*, %"union.std::_Any_data"*, i32)** %19, align 8, !tbaa !123
  %68 = icmp eq i1 (%"union.std::_Any_data"*, %"union.std::_Any_data"*, i32)* %67, null
  br i1 %68, label %75, label %69

; <label>:69:                                     ; preds = %66
  %70 = getelementptr inbounds %"class.std::function", %"class.std::function"* %9, i64 0, i32 0, i32 0
  %71 = invoke zeroext i1 %67(%"union.std::_Any_data"* nonnull dereferenceable(16) %70, %"union.std::_Any_data"* nonnull dereferenceable(16) %70, i32 3)
          to label %75 unwind label %72

; <label>:72:                                     ; preds = %69
  %73 = landingpad { i8*, i32 }
          catch i8* null
  %74 = extractvalue { i8*, i32 } %73, 0
  call void @__clang_call_terminate(i8* %74) #22
  unreachable

; <label>:75:                                     ; preds = %66, %69
  %76 = bitcast %"class.std::vector.53"* %10 to i8*
  call void @llvm.lifetime.start.p0i8(i64 24, i8* nonnull %76) #8
  call void @llvm.memset.p0i8.i64(i8* nonnull %76, i8 0, i64 24, i32 8, i1 false) #8
  %77 = icmp sgt i64 %4, 0
  br i1 %77, label %78, label %.loopexit1

; <label>:78:                                     ; preds = %75
  %79 = bitcast void (i8*, i8*)** %11 to i8*
  %80 = bitcast i8* %3 to void (i8*, i8*)**
  %81 = bitcast void (i8*, i8*)** %11 to i64*
  %82 = bitcast <2 x i64>* %12 to i8*
  %83 = bitcast i8** %14 to i8*
  %84 = bitcast i8** %14 to i8***
  %85 = getelementptr inbounds %"class.std::vector.53", %"class.std::vector.53"* %10, i64 0, i32 0, i32 0, i32 1
  %86 = getelementptr inbounds %"class.std::vector.53", %"class.std::vector.53"* %10, i64 0, i32 0, i32 0, i32 2
  %87 = bitcast <2 x i64>* %12 to %"class.std::__future_base::_State_baseV2"**
  %88 = getelementptr inbounds %"class.MARC::TaskFuture", %"class.MARC::TaskFuture"* %13, i64 0, i32 0, i32 0, i32 0, i32 0, i32 1, i32 0
  %89 = bitcast <2 x i64>* %12 to %"class.std::future"*
  %90 = getelementptr inbounds %"class.MARC::TaskFuture", %"class.MARC::TaskFuture"* %13, i64 0, i32 0, i32 0, i32 0, i32 0, i32 1
  %91 = bitcast %"class.std::__shared_count"* %90 to i64*
  br label %109

; <label>:92:                                     ; preds = %163
  %93 = getelementptr inbounds %"class.std::vector.53", %"class.std::vector.53"* %10, i64 0, i32 0, i32 0, i32 0
  %94 = load %"class.MARC::TaskFuture"*, %"class.MARC::TaskFuture"** %93, align 8, !tbaa !27
  %95 = load %"class.MARC::TaskFuture"*, %"class.MARC::TaskFuture"** %85, align 8, !tbaa !27
  %96 = icmp eq %"class.MARC::TaskFuture"* %94, %95
  br i1 %96, label %.loopexit1, label %.preheader17

.preheader17:                                     ; preds = %92
  br label %215

; <label>:97:                                     ; preds = %.loopexit2
  %98 = landingpad { i8*, i32 }
          cleanup
  %99 = extractvalue { i8*, i32 } %98, 0
  %100 = extractvalue { i8*, i32 } %98, 1
  %101 = load i1 (%"union.std::_Any_data"*, %"union.std::_Any_data"*, i32)*, i1 (%"union.std::_Any_data"*, %"union.std::_Any_data"*, i32)** %19, align 8, !tbaa !123
  %102 = icmp eq i1 (%"union.std::_Any_data"*, %"union.std::_Any_data"*, i32)* %101, null
  br i1 %102, label %264, label %103

; <label>:103:                                    ; preds = %97
  %104 = getelementptr inbounds %"class.std::function", %"class.std::function"* %9, i64 0, i32 0, i32 0
  %105 = invoke zeroext i1 %101(%"union.std::_Any_data"* nonnull dereferenceable(16) %104, %"union.std::_Any_data"* nonnull dereferenceable(16) %104, i32 3)
          to label %264 unwind label %106

; <label>:106:                                    ; preds = %103
  %107 = landingpad { i8*, i32 }
          catch i8* null
  %108 = extractvalue { i8*, i32 } %107, 0
  call void @__clang_call_terminate(i8* %108) #22
  unreachable

; <label>:109:                                    ; preds = %78, %163
  %110 = phi i64 [ 0, %78 ], [ %164, %163 ]
  call void @llvm.lifetime.start.p0i8(i64 8, i8* nonnull %79) #8
  %111 = getelementptr inbounds void (i8*, i8*)*, void (i8*, i8*)** %80, i64 %110
  %112 = bitcast void (i8*, i8*)** %111 to i64*
  %113 = load i64, i64* %112, align 8, !tbaa !27
  store i64 %113, i64* %81, align 8, !tbaa !27
  call void @llvm.lifetime.start.p0i8(i64 16, i8* nonnull %82) #8
  call void @llvm.lifetime.start.p0i8(i64 8, i8* nonnull %83) #8
  store i8** %15, i8*** %84, align 8, !tbaa !27
  invoke void @_ZN4MARC10ThreadPool6submitIRPFvPvS2_EJRS2_S2_EEEDaOT_DpOT0_(%"class.MARC::TaskFuture"* nonnull sret %13, %"class.MARC::ThreadPool"* nonnull %8, void (i8*, i8*)** nonnull dereferenceable(8) %11, i8** nonnull dereferenceable(8) %7, i8** nonnull dereferenceable(8) %14)
          to label %114 unwind label %166

; <label>:114:                                    ; preds = %109
  %115 = load %"class.MARC::TaskFuture"*, %"class.MARC::TaskFuture"** %85, align 8, !tbaa !125
  %116 = load %"class.MARC::TaskFuture"*, %"class.MARC::TaskFuture"** %86, align 8, !tbaa !128
  %117 = icmp eq %"class.MARC::TaskFuture"* %115, %116
  br i1 %117, label %123, label %118

; <label>:118:                                    ; preds = %114
  %119 = getelementptr inbounds %"class.MARC::TaskFuture", %"class.MARC::TaskFuture"* %115, i64 0, i32 0, i32 0, i32 0, i32 0, i32 1, i32 0
  store %"class.std::_Sp_counted_base"* null, %"class.std::_Sp_counted_base"** %119, align 8, !tbaa !129
  %120 = load <2 x i64>, <2 x i64>* %12, align 16, !tbaa !27
  store i64 0, i64* %91, align 8, !tbaa !129
  %121 = bitcast %"class.MARC::TaskFuture"* %115 to <2 x i64>*
  store <2 x i64> %120, <2 x i64>* %121, align 8, !tbaa !27
  store %"class.std::__future_base::_State_baseV2"* null, %"class.std::__future_base::_State_baseV2"** %87, align 16, !tbaa !131
  %122 = getelementptr inbounds %"class.MARC::TaskFuture", %"class.MARC::TaskFuture"* %115, i64 1
  store %"class.MARC::TaskFuture"* %122, %"class.MARC::TaskFuture"** %85, align 8, !tbaa !125
  br label %132

; <label>:123:                                    ; preds = %114
  invoke void @_ZNSt6vectorIN4MARC10TaskFutureIvEESaIS2_EE19_M_emplace_back_auxIJS2_EEEvDpOT_(%"class.std::vector.53"* nonnull %10, %"class.MARC::TaskFuture"* nonnull dereferenceable(16) %13)
          to label %124 unwind label %170

; <label>:124:                                    ; preds = %123
  %125 = load %"class.std::__future_base::_State_baseV2"*, %"class.std::__future_base::_State_baseV2"** %87, align 16, !tbaa !131
  %126 = icmp eq %"class.std::__future_base::_State_baseV2"* %125, null
  br i1 %126, label %132, label %127

; <label>:127:                                    ; preds = %124
  invoke void @_ZNSt6futureIvE3getEv(%"class.std::future"* nonnull %89)
          to label %132 unwind label %128

; <label>:128:                                    ; preds = %127
  %129 = landingpad { i8*, i32 }
          catch i8* null
  %130 = bitcast <2 x i64>* %12 to %"class.std::__basic_future"*
  %131 = extractvalue { i8*, i32 } %129, 0
  call void @_ZNSt14__basic_futureIvED2Ev(%"class.std::__basic_future"* nonnull %130) #8
  call void @__clang_call_terminate(i8* %131) #22
  unreachable

; <label>:132:                                    ; preds = %118, %127, %124
  %133 = load %"class.std::_Sp_counted_base"*, %"class.std::_Sp_counted_base"** %88, align 8, !tbaa !129
  %134 = icmp eq %"class.std::_Sp_counted_base"* %133, null
  br i1 %134, label %163, label %135

; <label>:135:                                    ; preds = %132
  %136 = getelementptr inbounds %"class.std::_Sp_counted_base", %"class.std::_Sp_counted_base"* %133, i64 0, i32 1
  br i1 icmp ne (i8* bitcast (i32 (i32*, void (i8*)*)* @__pthread_key_create to i8*), i8* null), label %137, label %139

; <label>:137:                                    ; preds = %135
  %138 = atomicrmw volatile add i32* %136, i32 -1 acq_rel
  br label %142

; <label>:139:                                    ; preds = %135
  %140 = load i32, i32* %136, align 4, !tbaa !17
  %141 = add nsw i32 %140, -1
  store i32 %141, i32* %136, align 4, !tbaa !17
  br label %142

; <label>:142:                                    ; preds = %139, %137
  %143 = phi i32 [ %138, %137 ], [ %140, %139 ]
  %144 = icmp eq i32 %143, 1
  br i1 %144, label %145, label %163

; <label>:145:                                    ; preds = %142
  %146 = bitcast %"class.std::_Sp_counted_base"* %133 to void (%"class.std::_Sp_counted_base"*)***
  %147 = load void (%"class.std::_Sp_counted_base"*)**, void (%"class.std::_Sp_counted_base"*)*** %146, align 8, !tbaa !133
  %148 = getelementptr inbounds void (%"class.std::_Sp_counted_base"*)*, void (%"class.std::_Sp_counted_base"*)** %147, i64 2
  %149 = load void (%"class.std::_Sp_counted_base"*)*, void (%"class.std::_Sp_counted_base"*)** %148, align 8
  call void %149(%"class.std::_Sp_counted_base"* nonnull %133) #8
  %150 = getelementptr inbounds %"class.std::_Sp_counted_base", %"class.std::_Sp_counted_base"* %133, i64 0, i32 2
  br i1 icmp ne (i8* bitcast (i32 (i32*, void (i8*)*)* @__pthread_key_create to i8*), i8* null), label %151, label %153

; <label>:151:                                    ; preds = %145
  %152 = atomicrmw volatile add i32* %150, i32 -1 acq_rel
  br label %156

; <label>:153:                                    ; preds = %145
  %154 = load i32, i32* %150, align 4, !tbaa !17
  %155 = add nsw i32 %154, -1
  store i32 %155, i32* %150, align 4, !tbaa !17
  br label %156

; <label>:156:                                    ; preds = %153, %151
  %157 = phi i32 [ %152, %151 ], [ %154, %153 ]
  %158 = icmp eq i32 %157, 1
  br i1 %158, label %159, label %163

; <label>:159:                                    ; preds = %156
  %160 = load void (%"class.std::_Sp_counted_base"*)**, void (%"class.std::_Sp_counted_base"*)*** %146, align 8, !tbaa !133
  %161 = getelementptr inbounds void (%"class.std::_Sp_counted_base"*)*, void (%"class.std::_Sp_counted_base"*)** %160, i64 3
  %162 = load void (%"class.std::_Sp_counted_base"*)*, void (%"class.std::_Sp_counted_base"*)** %161, align 8
  call void %162(%"class.std::_Sp_counted_base"* nonnull %133) #8
  br label %163

; <label>:163:                                    ; preds = %132, %142, %156, %159
  call void @llvm.lifetime.end.p0i8(i64 8, i8* nonnull %83) #8
  call void @llvm.lifetime.end.p0i8(i64 16, i8* nonnull %82) #8
  call void @llvm.lifetime.end.p0i8(i64 8, i8* nonnull %79) #8
  %164 = add nuw nsw i64 %110, 1
  %165 = icmp slt i64 %164, %4
  br i1 %165, label %109, label %92

; <label>:166:                                    ; preds = %109
  %167 = landingpad { i8*, i32 }
          cleanup
  %168 = extractvalue { i8*, i32 } %167, 0
  %169 = extractvalue { i8*, i32 } %167, 1
  br label %212

; <label>:170:                                    ; preds = %123
  %171 = landingpad { i8*, i32 }
          cleanup
  %172 = extractvalue { i8*, i32 } %171, 0
  %173 = extractvalue { i8*, i32 } %171, 1
  %174 = bitcast <2 x i64>* %12 to %"class.std::__basic_future"*
  %175 = load %"class.std::__future_base::_State_baseV2"*, %"class.std::__future_base::_State_baseV2"** %87, align 16, !tbaa !131
  %176 = icmp eq %"class.std::__future_base::_State_baseV2"* %175, null
  br i1 %176, label %181, label %177

; <label>:177:                                    ; preds = %170
  invoke void @_ZNSt6futureIvE3getEv(%"class.std::future"* nonnull %89)
          to label %181 unwind label %178

; <label>:178:                                    ; preds = %177
  %179 = landingpad { i8*, i32 }
          catch i8* null
  %180 = extractvalue { i8*, i32 } %179, 0
  call void @_ZNSt14__basic_futureIvED2Ev(%"class.std::__basic_future"* nonnull %174) #8
  call void @__clang_call_terminate(i8* %180) #22
  unreachable

; <label>:181:                                    ; preds = %177, %170
  %182 = load %"class.std::_Sp_counted_base"*, %"class.std::_Sp_counted_base"** %88, align 8, !tbaa !129
  %183 = icmp eq %"class.std::_Sp_counted_base"* %182, null
  br i1 %183, label %212, label %184

; <label>:184:                                    ; preds = %181
  %185 = getelementptr inbounds %"class.std::_Sp_counted_base", %"class.std::_Sp_counted_base"* %182, i64 0, i32 1
  br i1 icmp ne (i8* bitcast (i32 (i32*, void (i8*)*)* @__pthread_key_create to i8*), i8* null), label %186, label %188

; <label>:186:                                    ; preds = %184
  %187 = atomicrmw volatile add i32* %185, i32 -1 acq_rel
  br label %191

; <label>:188:                                    ; preds = %184
  %189 = load i32, i32* %185, align 4, !tbaa !17
  %190 = add nsw i32 %189, -1
  store i32 %190, i32* %185, align 4, !tbaa !17
  br label %191

; <label>:191:                                    ; preds = %188, %186
  %192 = phi i32 [ %187, %186 ], [ %189, %188 ]
  %193 = icmp eq i32 %192, 1
  br i1 %193, label %194, label %212

; <label>:194:                                    ; preds = %191
  %195 = bitcast %"class.std::_Sp_counted_base"* %182 to void (%"class.std::_Sp_counted_base"*)***
  %196 = load void (%"class.std::_Sp_counted_base"*)**, void (%"class.std::_Sp_counted_base"*)*** %195, align 8, !tbaa !133
  %197 = getelementptr inbounds void (%"class.std::_Sp_counted_base"*)*, void (%"class.std::_Sp_counted_base"*)** %196, i64 2
  %198 = load void (%"class.std::_Sp_counted_base"*)*, void (%"class.std::_Sp_counted_base"*)** %197, align 8
  call void %198(%"class.std::_Sp_counted_base"* nonnull %182) #8
  %199 = getelementptr inbounds %"class.std::_Sp_counted_base", %"class.std::_Sp_counted_base"* %182, i64 0, i32 2
  br i1 icmp ne (i8* bitcast (i32 (i32*, void (i8*)*)* @__pthread_key_create to i8*), i8* null), label %200, label %202

; <label>:200:                                    ; preds = %194
  %201 = atomicrmw volatile add i32* %199, i32 -1 acq_rel
  br label %205

; <label>:202:                                    ; preds = %194
  %203 = load i32, i32* %199, align 4, !tbaa !17
  %204 = add nsw i32 %203, -1
  store i32 %204, i32* %199, align 4, !tbaa !17
  br label %205

; <label>:205:                                    ; preds = %202, %200
  %206 = phi i32 [ %201, %200 ], [ %203, %202 ]
  %207 = icmp eq i32 %206, 1
  br i1 %207, label %208, label %212

; <label>:208:                                    ; preds = %205
  %209 = load void (%"class.std::_Sp_counted_base"*)**, void (%"class.std::_Sp_counted_base"*)*** %195, align 8, !tbaa !133
  %210 = getelementptr inbounds void (%"class.std::_Sp_counted_base"*)*, void (%"class.std::_Sp_counted_base"*)** %209, i64 3
  %211 = load void (%"class.std::_Sp_counted_base"*)*, void (%"class.std::_Sp_counted_base"*)** %210, align 8
  call void %211(%"class.std::_Sp_counted_base"* nonnull %182) #8
  br label %212

; <label>:212:                                    ; preds = %208, %205, %191, %181, %166
  %213 = phi i32 [ %169, %166 ], [ %173, %181 ], [ %173, %191 ], [ %173, %205 ], [ %173, %208 ]
  %214 = phi i8* [ %168, %166 ], [ %172, %181 ], [ %172, %191 ], [ %172, %205 ], [ %172, %208 ]
  call void @llvm.lifetime.end.p0i8(i64 8, i8* nonnull %83) #8
  call void @llvm.lifetime.end.p0i8(i64 16, i8* nonnull %82) #8
  call void @llvm.lifetime.end.p0i8(i64 8, i8* nonnull %79) #8
  br label %261

.loopexit1:                                       ; preds = %218, %75, %92
  br i1 %16, label %.preheader, label %.loopexit

.preheader:                                       ; preds = %.loopexit1
  br label %225

; <label>:215:                                    ; preds = %.preheader17, %218
  %216 = phi %"class.MARC::TaskFuture"* [ %219, %218 ], [ %94, %.preheader17 ]
  %217 = getelementptr inbounds %"class.MARC::TaskFuture", %"class.MARC::TaskFuture"* %216, i64 0, i32 0
  invoke void @_ZNSt6futureIvE3getEv(%"class.std::future"* %217)
          to label %218 unwind label %221

; <label>:218:                                    ; preds = %215
  %219 = getelementptr inbounds %"class.MARC::TaskFuture", %"class.MARC::TaskFuture"* %216, i64 1
  %220 = icmp eq %"class.MARC::TaskFuture"* %219, %95
  br i1 %220, label %.loopexit1, label %215

; <label>:221:                                    ; preds = %215
  %222 = landingpad { i8*, i32 }
          cleanup
  %223 = extractvalue { i8*, i32 } %222, 0
  %224 = extractvalue { i8*, i32 } %222, 1
  br label %261

.loopexit:                                        ; preds = %259, %.loopexit1
  call void @_ZNSt6vectorIN4MARC10TaskFutureIvEESaIS2_EED2Ev(%"class.std::vector.53"* nonnull %10) #8
  call void @llvm.lifetime.end.p0i8(i64 24, i8* nonnull %76) #8
  call void @_ZN4MARC10ThreadPoolD2Ev(%"class.MARC::ThreadPool"* nonnull %8) #8
  call void @llvm.lifetime.end.p0i8(i64 488, i8* nonnull %17) #8
  ret void

; <label>:225:                                    ; preds = %.preheader, %259
  %226 = phi i64 [ %260, %259 ], [ 0, %.preheader ]
  %227 = getelementptr inbounds i64, i64* %2, i64 %226
  %228 = load i64, i64* %227, align 8, !tbaa !84
  switch i64 %228, label %259 [
    i64 1, label %229
    i64 8, label %235
    i64 16, label %241
    i64 32, label %247
    i64 64, label %253
  ]

; <label>:229:                                    ; preds = %225
  %230 = getelementptr inbounds i8*, i8** %15, i64 %226
  %231 = load i8*, i8** %230, align 8, !tbaa !27
  %232 = icmp eq i8* %231, null
  br i1 %232, label %259, label %233

; <label>:233:                                    ; preds = %229
  %234 = bitcast i8* %231 to %"class.MARC::ThreadSafeQueue"*
  call void @_ZN4MARC15ThreadSafeQueueIaED2Ev(%"class.MARC::ThreadSafeQueue"* %234) #8
  call void @_ZdlPv(i8* nonnull %231) #25
  br label %259

; <label>:235:                                    ; preds = %225
  %236 = getelementptr inbounds i8*, i8** %15, i64 %226
  %237 = load i8*, i8** %236, align 8, !tbaa !27
  %238 = icmp eq i8* %237, null
  br i1 %238, label %259, label %239

; <label>:239:                                    ; preds = %235
  %240 = bitcast i8* %237 to %"class.MARC::ThreadSafeQueue"*
  call void @_ZN4MARC15ThreadSafeQueueIaED2Ev(%"class.MARC::ThreadSafeQueue"* %240) #8
  call void @_ZdlPv(i8* nonnull %237) #25
  br label %259

; <label>:241:                                    ; preds = %225
  %242 = getelementptr inbounds i8*, i8** %15, i64 %226
  %243 = load i8*, i8** %242, align 8, !tbaa !27
  %244 = icmp eq i8* %243, null
  br i1 %244, label %259, label %245

; <label>:245:                                    ; preds = %241
  %246 = bitcast i8* %243 to %"class.MARC::ThreadSafeQueue.3"*
  call void @_ZN4MARC15ThreadSafeQueueIsED2Ev(%"class.MARC::ThreadSafeQueue.3"* %246) #8
  call void @_ZdlPv(i8* nonnull %243) #25
  br label %259

; <label>:247:                                    ; preds = %225
  %248 = getelementptr inbounds i8*, i8** %15, i64 %226
  %249 = load i8*, i8** %248, align 8, !tbaa !27
  %250 = icmp eq i8* %249, null
  br i1 %250, label %259, label %251

; <label>:251:                                    ; preds = %247
  %252 = bitcast i8* %249 to %"class.MARC::ThreadSafeQueue.11"*
  call void @_ZN4MARC15ThreadSafeQueueIiED2Ev(%"class.MARC::ThreadSafeQueue.11"* %252) #8
  call void @_ZdlPv(i8* nonnull %249) #25
  br label %259

; <label>:253:                                    ; preds = %225
  %254 = getelementptr inbounds i8*, i8** %15, i64 %226
  %255 = load i8*, i8** %254, align 8, !tbaa !27
  %256 = icmp eq i8* %255, null
  br i1 %256, label %259, label %257

; <label>:257:                                    ; preds = %253
  %258 = bitcast i8* %255 to %"class.MARC::ThreadSafeQueue.19"*
  call void @_ZN4MARC15ThreadSafeQueueIlED2Ev(%"class.MARC::ThreadSafeQueue.19"* %258) #8
  call void @_ZdlPv(i8* nonnull %255) #25
  br label %259

; <label>:259:                                    ; preds = %225, %233, %229, %239, %235, %245, %241, %251, %247, %257, %253
  %260 = add nuw nsw i64 %226, 1
  %exitcond = icmp eq i64 %260, %5
  br i1 %exitcond, label %.loopexit, label %225

; <label>:261:                                    ; preds = %221, %212
  %262 = phi i32 [ %213, %212 ], [ %224, %221 ]
  %263 = phi i8* [ %214, %212 ], [ %223, %221 ]
  call void @_ZNSt6vectorIN4MARC10TaskFutureIvEESaIS2_EED2Ev(%"class.std::vector.53"* nonnull %10) #8
  call void @llvm.lifetime.end.p0i8(i64 24, i8* nonnull %76) #8
  call void @_ZN4MARC10ThreadPoolD2Ev(%"class.MARC::ThreadPool"* nonnull %8) #8
  br label %264

; <label>:264:                                    ; preds = %103, %97, %261
  %265 = phi i32 [ %262, %261 ], [ %100, %97 ], [ %100, %103 ]
  %266 = phi i8* [ %263, %261 ], [ %99, %97 ], [ %99, %103 ]
  call void @llvm.lifetime.end.p0i8(i64 488, i8* nonnull %17) #8
  br label %267

; <label>:267:                                    ; preds = %27, %34, %41, %48, %55, %264
  %268 = phi i32 [ %265, %264 ], [ %58, %55 ], [ %51, %48 ], [ %44, %41 ], [ %37, %34 ], [ %30, %27 ]
  %269 = phi i8* [ %266, %264 ], [ %57, %55 ], [ %50, %48 ], [ %43, %41 ], [ %36, %34 ], [ %29, %27 ]
  %270 = insertvalue { i8*, i32 } undef, i8* %269, 0
  %271 = insertvalue { i8*, i32 } %270, i32 %268, 1
  resume { i8*, i32 } %271
}

; Function Attrs: uwtable
define linkonce_odr void @_ZN4MARC10ThreadPoolC2EjSt8functionIFvvEE(%"class.MARC::ThreadPool"*, i32, %"class.std::function"*) unnamed_addr #5 comdat align 2 personality i8* bitcast (i32 (...)* @__gxx_personality_v0 to i8*) {
  %4 = alloca %"class.std::unique_ptr", align 8
  %5 = alloca <2 x i64>, align 16
  %6 = bitcast <2 x i64>* %5 to { i64, i64 }*
  %7 = alloca %"class.MARC::ThreadPool"*, align 8
  %8 = alloca %"struct.std::atomic"*, align 8
  %9 = alloca %"class.std::function", align 8
  %10 = getelementptr inbounds %"class.MARC::ThreadPool", %"class.MARC::ThreadPool"* %0, i64 0, i32 0, i32 0, i32 0
  store i8 0, i8* %10, align 1, !tbaa !135
  %11 = getelementptr inbounds %"class.MARC::ThreadPool", %"class.MARC::ThreadPool"* %0, i64 0, i32 1
  %12 = getelementptr inbounds %"class.MARC::ThreadSafeQueue.32", %"class.MARC::ThreadSafeQueue.32"* %11, i64 0, i32 0, i32 0, i32 0
  tail call void @llvm.memset.p0i8.i64(i8* %12, i8 0, i64 224, i32 8, i1 false)
  tail call void @_ZN4MARC15ThreadSafeQueueISt10unique_ptrINS_11IThreadTaskESt14default_deleteIS2_EEEC2Ev(%"class.MARC::ThreadSafeQueue.32"* %11)
  %13 = getelementptr inbounds %"class.MARC::ThreadPool", %"class.MARC::ThreadPool"* %0, i64 0, i32 2
  %14 = bitcast %"class.std::vector"* %13 to i8*
  tail call void @llvm.memset.p0i8.i64(i8* %14, i8 0, i64 24, i32 8, i1 false) #8
  %15 = getelementptr inbounds %"class.MARC::ThreadPool", %"class.MARC::ThreadPool"* %0, i64 0, i32 4
  invoke void @_ZN4MARC15ThreadSafeQueueISt8functionIFvvEEEC2Ev(%"class.MARC::ThreadSafeQueue.45"* %15)
          to label %16 unwind label %53

; <label>:16:                                     ; preds = %3
  %17 = zext i32 %1 to i64
  %18 = invoke i8* @_Znam(i64 %17) #24
          to label %19 unwind label %57

; <label>:19:                                     ; preds = %16
  %20 = getelementptr inbounds %"class.MARC::ThreadPool", %"class.MARC::ThreadPool"* %0, i64 0, i32 3
  %21 = bitcast %"struct.std::atomic"** %20 to i8**
  store i8* %18, i8** %21, align 8, !tbaa !137
  %22 = icmp eq i32 %1, 0
  br i1 %22, label %.loopexit1, label %23

; <label>:23:                                     ; preds = %19
  store atomic i8 1, i8* %18 seq_cst, align 1
  %24 = icmp eq i32 %1, 1
  br i1 %24, label %.loopexit2, label %25

; <label>:25:                                     ; preds = %23
  %26 = add nsw i64 %17, -2
  %27 = add i32 %1, 7
  %28 = and i32 %27, 7
  %29 = zext i32 %28 to i64
  %30 = icmp ult i64 %26, 7
  br i1 %30, label %.loopexit3, label %31

; <label>:31:                                     ; preds = %25
  %32 = add nsw i64 %17, -1
  %33 = sub nsw i64 %32, %29
  br label %60

.loopexit3:                                       ; preds = %60, %25
  %34 = phi i64 [ 1, %25 ], [ %86, %60 ]
  %35 = icmp eq i32 %28, 0
  br i1 %35, label %.loopexit2, label %.preheader2

.preheader2:                                      ; preds = %.loopexit3
  br label %36

; <label>:36:                                     ; preds = %.preheader2, %36
  %37 = phi i64 [ %41, %36 ], [ %34, %.preheader2 ]
  %38 = phi i64 [ %42, %36 ], [ %29, %.preheader2 ]
  %39 = load %"struct.std::atomic"*, %"struct.std::atomic"** %20, align 8, !tbaa !137
  %40 = getelementptr inbounds %"struct.std::atomic", %"struct.std::atomic"* %39, i64 %37, i32 0, i32 0
  store atomic i8 1, i8* %40 seq_cst, align 1
  %41 = add nuw nsw i64 %37, 1
  %42 = add nsw i64 %38, -1
  %43 = icmp eq i64 %42, 0
  br i1 %43, label %.loopexit2, label %36, !llvm.loop !149

.loopexit2:                                       ; preds = %36, %23, %.loopexit3
  %44 = bitcast <2 x i64>* %5 to i8*
  %45 = bitcast %"class.MARC::ThreadPool"** %7 to i8*
  %46 = bitcast %"struct.std::atomic"** %8 to i8*
  %47 = getelementptr inbounds %"class.MARC::ThreadPool", %"class.MARC::ThreadPool"* %0, i64 0, i32 2, i32 0, i32 0, i32 1
  %48 = getelementptr inbounds %"class.MARC::ThreadPool", %"class.MARC::ThreadPool"* %0, i64 0, i32 2, i32 0, i32 0, i32 2
  %49 = bitcast %"class.std::unique_ptr"* %4 to i8*
  %50 = bitcast %"class.std::unique_ptr"* %4 to i8**
  %51 = getelementptr inbounds %"class.std::unique_ptr", %"class.std::unique_ptr"* %4, i64 0, i32 0, i32 0, i32 0, i32 0
  %52 = ptrtoint %"class.MARC::ThreadPool"* %0 to i64
  br label %92

; <label>:53:                                     ; preds = %3
  %54 = landingpad { i8*, i32 }
          cleanup
  %55 = extractvalue { i8*, i32 } %54, 0
  %56 = extractvalue { i8*, i32 } %54, 1
  br label %189

; <label>:57:                                     ; preds = %16
  %58 = landingpad { i8*, i32 }
          catch i8* null
  %59 = extractvalue { i8*, i32 } %58, 0
  br label %137

; <label>:60:                                     ; preds = %60, %31
  %61 = phi i64 [ 1, %31 ], [ %86, %60 ]
  %62 = phi i64 [ %33, %31 ], [ %87, %60 ]
  %63 = load %"struct.std::atomic"*, %"struct.std::atomic"** %20, align 8, !tbaa !137
  %64 = getelementptr inbounds %"struct.std::atomic", %"struct.std::atomic"* %63, i64 %61, i32 0, i32 0
  store atomic i8 1, i8* %64 seq_cst, align 1
  %65 = add nuw nsw i64 %61, 1
  %66 = load %"struct.std::atomic"*, %"struct.std::atomic"** %20, align 8, !tbaa !137
  %67 = getelementptr inbounds %"struct.std::atomic", %"struct.std::atomic"* %66, i64 %65, i32 0, i32 0
  store atomic i8 1, i8* %67 seq_cst, align 1
  %68 = add nuw nsw i64 %61, 2
  %69 = load %"struct.std::atomic"*, %"struct.std::atomic"** %20, align 8, !tbaa !137
  %70 = getelementptr inbounds %"struct.std::atomic", %"struct.std::atomic"* %69, i64 %68, i32 0, i32 0
  store atomic i8 1, i8* %70 seq_cst, align 1
  %71 = add nuw nsw i64 %61, 3
  %72 = load %"struct.std::atomic"*, %"struct.std::atomic"** %20, align 8, !tbaa !137
  %73 = getelementptr inbounds %"struct.std::atomic", %"struct.std::atomic"* %72, i64 %71, i32 0, i32 0
  store atomic i8 1, i8* %73 seq_cst, align 1
  %74 = add nuw nsw i64 %61, 4
  %75 = load %"struct.std::atomic"*, %"struct.std::atomic"** %20, align 8, !tbaa !137
  %76 = getelementptr inbounds %"struct.std::atomic", %"struct.std::atomic"* %75, i64 %74, i32 0, i32 0
  store atomic i8 1, i8* %76 seq_cst, align 1
  %77 = add nuw nsw i64 %61, 5
  %78 = load %"struct.std::atomic"*, %"struct.std::atomic"** %20, align 8, !tbaa !137
  %79 = getelementptr inbounds %"struct.std::atomic", %"struct.std::atomic"* %78, i64 %77, i32 0, i32 0
  store atomic i8 1, i8* %79 seq_cst, align 1
  %80 = add nuw nsw i64 %61, 6
  %81 = load %"struct.std::atomic"*, %"struct.std::atomic"** %20, align 8, !tbaa !137
  %82 = getelementptr inbounds %"struct.std::atomic", %"struct.std::atomic"* %81, i64 %80, i32 0, i32 0
  store atomic i8 1, i8* %82 seq_cst, align 1
  %83 = add nuw nsw i64 %61, 7
  %84 = load %"struct.std::atomic"*, %"struct.std::atomic"** %20, align 8, !tbaa !137
  %85 = getelementptr inbounds %"struct.std::atomic", %"struct.std::atomic"* %84, i64 %83, i32 0, i32 0
  store atomic i8 1, i8* %85 seq_cst, align 1
  %86 = add nuw nsw i64 %61, 8
  %87 = add i64 %62, -8
  %88 = icmp eq i64 %87, 0
  br i1 %88, label %.loopexit3, label %60

.loopexit1:                                       ; preds = %_ZNSt6vectorISt6threadSaIS0_EE12emplace_backIJMN4MARC10ThreadPoolEFvPSt6atomicIbEEPS5_S8_EEEvDpOT_.exit, %19
  %89 = getelementptr inbounds %"class.std::function", %"class.std::function"* %2, i64 0, i32 0, i32 1
  %90 = load i1 (%"union.std::_Any_data"*, %"union.std::_Any_data"*, i32)*, i1 (%"union.std::_Any_data"*, %"union.std::_Any_data"*, i32)** %89, align 8, !tbaa !123
  %91 = icmp eq i1 (%"union.std::_Any_data"*, %"union.std::_Any_data"*, i32)* %90, null
  br i1 %91, label %185, label %145

; <label>:92:                                     ; preds = %.loopexit2, %_ZNSt6vectorISt6threadSaIS0_EE12emplace_backIJMN4MARC10ThreadPoolEFvPSt6atomicIbEEPS5_S8_EEEvDpOT_.exit
  %93 = phi i64 [ 0, %.loopexit2 ], [ %132, %_ZNSt6vectorISt6threadSaIS0_EE12emplace_backIJMN4MARC10ThreadPoolEFvPSt6atomicIbEEPS5_S8_EEEvDpOT_.exit ]
  call void @llvm.lifetime.start.p0i8(i64 16, i8* nonnull %44) #8
  store <2 x i64> <i64 ptrtoint (void (%"class.MARC::ThreadPool"*, %"struct.std::atomic"*)* @_ZN4MARC10ThreadPool6workerEPSt6atomicIbE to i64), i64 0>, <2 x i64>* %5, align 16
  call void @llvm.lifetime.start.p0i8(i64 8, i8* nonnull %45) #8
  store %"class.MARC::ThreadPool"* %0, %"class.MARC::ThreadPool"** %7, align 8, !tbaa !27
  call void @llvm.lifetime.start.p0i8(i64 8, i8* nonnull %46) #8
  %94 = load %"struct.std::atomic"*, %"struct.std::atomic"** %20, align 8, !tbaa !137
  %95 = getelementptr inbounds %"struct.std::atomic", %"struct.std::atomic"* %94, i64 %93
  store %"struct.std::atomic"* %95, %"struct.std::atomic"** %8, align 8, !tbaa !27
  %96 = load %"class.std::thread"*, %"class.std::thread"** %47, align 8, !tbaa !151
  %97 = load %"class.std::thread"*, %"class.std::thread"** %48, align 8, !tbaa !154
  %98 = icmp eq %"class.std::thread"* %96, %97
  %99 = ptrtoint %"struct.std::atomic"* %95 to i64
  br i1 %98, label %131, label %100

; <label>:100:                                    ; preds = %92
  call void @llvm.lifetime.start.p0i8(i64 8, i8* nonnull %49)
  %101 = getelementptr inbounds %"class.std::thread", %"class.std::thread"* %96, i64 0, i32 0, i32 0
  store i64 0, i64* %101, align 8, !tbaa !155
  %102 = load <2 x i64>, <2 x i64>* %5, align 16, !tbaa !18, !noalias !157
  %103 = invoke i8* @_Znwm(i64 40) #24
          to label %.noexc unwind label %134

.noexc:                                           ; preds = %100
  %104 = bitcast i8* %103 to i32 (...)***
  store i32 (...)** bitcast (i8** getelementptr inbounds ({ [5 x i8*] }, { [5 x i8*] }* @_ZTVNSt6thread11_State_implISt12_Bind_simpleIFSt7_Mem_fnIMN4MARC10ThreadPoolEFvPSt6atomicIbEEEPS4_S7_EEEE, i64 0, inrange i32 0, i64 2) to i32 (...)**), i32 (...)*** %104, align 8, !tbaa !133, !noalias !160
  %105 = getelementptr inbounds i8, i8* %103, i64 8
  %106 = bitcast i8* %105 to i64*
  store i64 %99, i64* %106, align 8, !tbaa !163, !noalias !160
  %107 = getelementptr inbounds i8, i8* %103, i64 16
  %108 = bitcast i8* %107 to i64*
  store i64 %52, i64* %108, align 8, !tbaa !165, !noalias !160
  %109 = getelementptr inbounds i8, i8* %103, i64 24
  %110 = bitcast i8* %109 to <2 x i64>*
  store <2 x i64> %102, <2 x i64>* %110, align 8
  store i8* %103, i8** %50, align 8, !tbaa !27, !alias.scope !160
  invoke void @_ZNSt6thread15_M_start_threadESt10unique_ptrINS_6_StateESt14default_deleteIS1_EEPFvvE(%"class.std::thread"* nonnull %96, %"class.std::unique_ptr"* nonnull %4, void ()* bitcast (i32 (i64*, %union.pthread_attr_t*, i8* (i8*)*, i8*)* @pthread_create to void ()*))
          to label %111 unwind label %119

; <label>:111:                                    ; preds = %.noexc
  %112 = load %"class.MARC::IThreadTask"*, %"class.MARC::IThreadTask"** %51, align 8, !tbaa !27
  %113 = icmp eq %"class.MARC::IThreadTask"* %112, null
  br i1 %113, label %128, label %114

; <label>:114:                                    ; preds = %111
  %115 = bitcast %"class.MARC::IThreadTask"* %112 to void (%"class.MARC::IThreadTask"*)***
  %116 = load void (%"class.MARC::IThreadTask"*)**, void (%"class.MARC::IThreadTask"*)*** %115, align 8, !tbaa !133
  %117 = getelementptr inbounds void (%"class.MARC::IThreadTask"*)*, void (%"class.MARC::IThreadTask"*)** %116, i64 1
  %118 = load void (%"class.MARC::IThreadTask"*)*, void (%"class.MARC::IThreadTask"*)** %117, align 8
  call void %118(%"class.MARC::IThreadTask"* nonnull %112) #8
  br label %128

; <label>:119:                                    ; preds = %.noexc
  %120 = landingpad { i8*, i32 }
          catch i8* null
  %121 = load %"class.MARC::IThreadTask"*, %"class.MARC::IThreadTask"** %51, align 8, !tbaa !27
  %122 = icmp eq %"class.MARC::IThreadTask"* %121, null
  br i1 %122, label %.body, label %123

; <label>:123:                                    ; preds = %119
  %124 = bitcast %"class.MARC::IThreadTask"* %121 to void (%"class.MARC::IThreadTask"*)***
  %125 = load void (%"class.MARC::IThreadTask"*)**, void (%"class.MARC::IThreadTask"*)*** %124, align 8, !tbaa !133
  %126 = getelementptr inbounds void (%"class.MARC::IThreadTask"*)*, void (%"class.MARC::IThreadTask"*)** %125, i64 1
  %127 = load void (%"class.MARC::IThreadTask"*)*, void (%"class.MARC::IThreadTask"*)** %126, align 8
  call void %127(%"class.MARC::IThreadTask"* nonnull %121) #8
  br label %.body

; <label>:128:                                    ; preds = %114, %111
  call void @llvm.lifetime.end.p0i8(i64 8, i8* nonnull %49)
  %129 = load %"class.std::thread"*, %"class.std::thread"** %47, align 8, !tbaa !151
  %130 = getelementptr inbounds %"class.std::thread", %"class.std::thread"* %129, i64 1
  store %"class.std::thread"* %130, %"class.std::thread"** %47, align 8, !tbaa !151
  br label %_ZNSt6vectorISt6threadSaIS0_EE12emplace_backIJMN4MARC10ThreadPoolEFvPSt6atomicIbEEPS5_S8_EEEvDpOT_.exit

; <label>:131:                                    ; preds = %92
  invoke void @_ZNSt6vectorISt6threadSaIS0_EE19_M_emplace_back_auxIJMN4MARC10ThreadPoolEFvPSt6atomicIbEEPS5_S8_EEEvDpOT_(%"class.std::vector"* nonnull %13, { i64, i64 }* nonnull dereferenceable(16) %6, %"class.MARC::ThreadPool"** nonnull dereferenceable(8) %7, %"struct.std::atomic"** nonnull dereferenceable(8) %8)
          to label %_ZNSt6vectorISt6threadSaIS0_EE12emplace_backIJMN4MARC10ThreadPoolEFvPSt6atomicIbEEPS5_S8_EEEvDpOT_.exit unwind label %134

_ZNSt6vectorISt6threadSaIS0_EE12emplace_backIJMN4MARC10ThreadPoolEFvPSt6atomicIbEEPS5_S8_EEEvDpOT_.exit: ; preds = %128, %131
  call void @llvm.lifetime.end.p0i8(i64 8, i8* nonnull %46) #8
  call void @llvm.lifetime.end.p0i8(i64 8, i8* nonnull %45) #8
  call void @llvm.lifetime.end.p0i8(i64 16, i8* nonnull %44) #8
  %132 = add nuw nsw i64 %93, 1
  %133 = icmp ult i64 %132, %17
  br i1 %133, label %92, label %.loopexit1

; <label>:134:                                    ; preds = %131, %100
  %135 = landingpad { i8*, i32 }
          catch i8* null
  br label %.body

.body:                                            ; preds = %119, %123, %134
  %eh.lpad-body = phi { i8*, i32 } [ %135, %134 ], [ %120, %123 ], [ %120, %119 ]
  %136 = extractvalue { i8*, i32 } %eh.lpad-body, 0
  call void @llvm.lifetime.end.p0i8(i64 8, i8* nonnull %46) #8
  call void @llvm.lifetime.end.p0i8(i64 8, i8* nonnull %45) #8
  call void @llvm.lifetime.end.p0i8(i64 16, i8* nonnull %44) #8
  br label %137

; <label>:137:                                    ; preds = %.body, %57
  %138 = phi i8* [ %136, %.body ], [ %59, %57 ]
  %139 = call i8* @__cxa_begin_catch(i8* %138) #8
  invoke void @_ZN4MARC10ThreadPool7destroyEv(%"class.MARC::ThreadPool"* nonnull %0)
          to label %140 unwind label %141

; <label>:140:                                    ; preds = %137
  invoke void @__cxa_rethrow() #23
          to label %215 unwind label %141

; <label>:141:                                    ; preds = %140, %137
  %142 = landingpad { i8*, i32 }
          cleanup
  %143 = extractvalue { i8*, i32 } %142, 0
  %144 = extractvalue { i8*, i32 } %142, 1
  invoke void @__cxa_end_catch()
          to label %186 unwind label %212

; <label>:145:                                    ; preds = %.loopexit1
  %146 = getelementptr inbounds %"class.std::function", %"class.std::function"* %9, i64 0, i32 0, i32 1
  store i1 (%"union.std::_Any_data"*, %"union.std::_Any_data"*, i32)* null, i1 (%"union.std::_Any_data"*, %"union.std::_Any_data"*, i32)** %146, align 8, !tbaa !123
  %147 = getelementptr inbounds %"class.std::function", %"class.std::function"* %9, i64 0, i32 0, i32 0
  %148 = getelementptr inbounds %"class.std::function", %"class.std::function"* %2, i64 0, i32 0, i32 0
  %149 = invoke zeroext i1 %90(%"union.std::_Any_data"* nonnull dereferenceable(16) %147, %"union.std::_Any_data"* nonnull dereferenceable(16) %148, i32 2)
          to label %159 unwind label %150

; <label>:150:                                    ; preds = %145
  %151 = landingpad { i8*, i32 }
          cleanup
  %152 = load i1 (%"union.std::_Any_data"*, %"union.std::_Any_data"*, i32)*, i1 (%"union.std::_Any_data"*, %"union.std::_Any_data"*, i32)** %146, align 8, !tbaa !123
  %153 = icmp eq i1 (%"union.std::_Any_data"*, %"union.std::_Any_data"*, i32)* %152, null
  br i1 %153, label %171, label %154

; <label>:154:                                    ; preds = %150
  %155 = invoke zeroext i1 %152(%"union.std::_Any_data"* nonnull dereferenceable(16) %147, %"union.std::_Any_data"* nonnull dereferenceable(16) %147, i32 3)
          to label %171 unwind label %156

; <label>:156:                                    ; preds = %154
  %157 = landingpad { i8*, i32 }
          catch i8* null
  %158 = extractvalue { i8*, i32 } %157, 0
  call void @__clang_call_terminate(i8* %158) #22
  unreachable

; <label>:159:                                    ; preds = %145
  %160 = bitcast i1 (%"union.std::_Any_data"*, %"union.std::_Any_data"*, i32)** %89 to <2 x i64>*
  %161 = load <2 x i64>, <2 x i64>* %160, align 8, !tbaa !27
  %162 = bitcast i1 (%"union.std::_Any_data"*, %"union.std::_Any_data"*, i32)** %146 to <2 x i64>*
  store <2 x i64> %161, <2 x i64>* %162, align 8, !tbaa !27
  invoke void @_ZN4MARC15ThreadSafeQueueISt8functionIFvvEEE4pushES3_(%"class.MARC::ThreadSafeQueue.45"* nonnull %15, %"class.std::function"* nonnull %9)
          to label %163 unwind label %174

; <label>:163:                                    ; preds = %159
  %164 = load i1 (%"union.std::_Any_data"*, %"union.std::_Any_data"*, i32)*, i1 (%"union.std::_Any_data"*, %"union.std::_Any_data"*, i32)** %146, align 8, !tbaa !123
  %165 = icmp eq i1 (%"union.std::_Any_data"*, %"union.std::_Any_data"*, i32)* %164, null
  br i1 %165, label %185, label %166

; <label>:166:                                    ; preds = %163
  %167 = invoke zeroext i1 %164(%"union.std::_Any_data"* nonnull dereferenceable(16) %147, %"union.std::_Any_data"* nonnull dereferenceable(16) %147, i32 3)
          to label %185 unwind label %168

; <label>:168:                                    ; preds = %166
  %169 = landingpad { i8*, i32 }
          catch i8* null
  %170 = extractvalue { i8*, i32 } %169, 0
  call void @__clang_call_terminate(i8* %170) #22
  unreachable

; <label>:171:                                    ; preds = %150, %154
  %172 = extractvalue { i8*, i32 } %151, 0
  %173 = extractvalue { i8*, i32 } %151, 1
  br label %186

; <label>:174:                                    ; preds = %159
  %175 = landingpad { i8*, i32 }
          cleanup
  %176 = extractvalue { i8*, i32 } %175, 0
  %177 = extractvalue { i8*, i32 } %175, 1
  %178 = load i1 (%"union.std::_Any_data"*, %"union.std::_Any_data"*, i32)*, i1 (%"union.std::_Any_data"*, %"union.std::_Any_data"*, i32)** %146, align 8, !tbaa !123
  %179 = icmp eq i1 (%"union.std::_Any_data"*, %"union.std::_Any_data"*, i32)* %178, null
  br i1 %179, label %186, label %180

; <label>:180:                                    ; preds = %174
  %181 = invoke zeroext i1 %178(%"union.std::_Any_data"* nonnull dereferenceable(16) %147, %"union.std::_Any_data"* nonnull dereferenceable(16) %147, i32 3)
          to label %186 unwind label %182

; <label>:182:                                    ; preds = %180
  %183 = landingpad { i8*, i32 }
          catch i8* null
  %184 = extractvalue { i8*, i32 } %183, 0
  call void @__clang_call_terminate(i8* %184) #22
  unreachable

; <label>:185:                                    ; preds = %.loopexit1, %166, %163
  ret void

; <label>:186:                                    ; preds = %180, %174, %141, %171
  %187 = phi i8* [ %143, %141 ], [ %172, %171 ], [ %176, %174 ], [ %176, %180 ]
  %188 = phi i32 [ %144, %141 ], [ %173, %171 ], [ %177, %174 ], [ %177, %180 ]
  call void @_ZN4MARC15ThreadSafeQueueISt8functionIFvvEEED2Ev(%"class.MARC::ThreadSafeQueue.45"* %15) #8
  br label %189

; <label>:189:                                    ; preds = %186, %53
  %190 = phi i8* [ %187, %186 ], [ %55, %53 ]
  %191 = phi i32 [ %188, %186 ], [ %56, %53 ]
  %192 = getelementptr inbounds %"class.std::vector", %"class.std::vector"* %13, i64 0, i32 0, i32 0, i32 0
  %193 = load %"class.std::thread"*, %"class.std::thread"** %192, align 8, !tbaa !167
  %194 = getelementptr inbounds %"class.MARC::ThreadPool", %"class.MARC::ThreadPool"* %0, i64 0, i32 2, i32 0, i32 0, i32 1
  %195 = load %"class.std::thread"*, %"class.std::thread"** %194, align 8, !tbaa !151
  %196 = icmp eq %"class.std::thread"* %193, %195
  br i1 %196, label %.loopexit, label %.preheader

.preheader:                                       ; preds = %189
  br label %199

; <label>:197:                                    ; preds = %199
  %198 = icmp eq %"class.std::thread"* %204, %195
  br i1 %198, label %.loopexit, label %199

; <label>:199:                                    ; preds = %.preheader, %197
  %200 = phi %"class.std::thread"* [ %204, %197 ], [ %193, %.preheader ]
  %201 = getelementptr inbounds %"class.std::thread", %"class.std::thread"* %200, i64 0, i32 0, i32 0
  %202 = load i64, i64* %201, align 8
  %203 = icmp eq i64 %202, 0
  %204 = getelementptr inbounds %"class.std::thread", %"class.std::thread"* %200, i64 1
  br i1 %203, label %197, label %205

; <label>:205:                                    ; preds = %199
  call void @_ZSt9terminatev() #22
  unreachable

.loopexit:                                        ; preds = %197, %189
  %206 = icmp eq %"class.std::thread"* %193, null
  br i1 %206, label %209, label %207

; <label>:207:                                    ; preds = %.loopexit
  %208 = bitcast %"class.std::thread"* %193 to i8*
  call void @_ZdlPv(i8* %208) #8
  br label %209

; <label>:209:                                    ; preds = %.loopexit, %207
  call void @_ZN4MARC15ThreadSafeQueueISt10unique_ptrINS_11IThreadTaskESt14default_deleteIS2_EEED2Ev(%"class.MARC::ThreadSafeQueue.32"* %11) #8
  %210 = insertvalue { i8*, i32 } undef, i8* %190, 0
  %211 = insertvalue { i8*, i32 } %210, i32 %191, 1
  resume { i8*, i32 } %211

; <label>:212:                                    ; preds = %141
  %213 = landingpad { i8*, i32 }
          catch i8* null
  %214 = extractvalue { i8*, i32 } %213, 0
  call void @__clang_call_terminate(i8* %214) #22
  unreachable

; <label>:215:                                    ; preds = %140
  unreachable
}

; Function Attrs: argmemonly nounwind
declare void @llvm.memset.p0i8.i64(i8* nocapture writeonly, i8, i64, i32, i1) #9

; Function Attrs: uwtable
define linkonce_odr void @_ZN4MARC15ThreadSafeQueueIaEC2Ev(%"class.MARC::ThreadSafeQueue"*) unnamed_addr #5 comdat align 2 personality i8* bitcast (i32 (...)* @__gxx_personality_v0 to i8*) {
  %2 = alloca %"class.std::deque", align 16
  %3 = getelementptr inbounds %"class.MARC::ThreadSafeQueue", %"class.MARC::ThreadSafeQueue"* %0, i64 0, i32 0, i32 0, i32 0
  store i8 1, i8* %3, align 1, !tbaa !135
  %4 = getelementptr inbounds %"class.MARC::ThreadSafeQueue", %"class.MARC::ThreadSafeQueue"* %0, i64 0, i32 1
  %5 = bitcast %"class.std::mutex"* %4 to i8*
  tail call void @llvm.memset.p0i8.i64(i8* %5, i8 0, i64 40, i32 8, i1 false) #8
  %6 = getelementptr inbounds %"class.MARC::ThreadSafeQueue", %"class.MARC::ThreadSafeQueue"* %0, i64 0, i32 2
  %7 = bitcast %"class.std::deque"* %2 to i8*
  call void @llvm.lifetime.start.p0i8(i64 80, i8* nonnull %7) #8
  %8 = getelementptr inbounds %"class.std::deque", %"class.std::deque"* %2, i64 0, i32 0
  call void @llvm.memset.p0i8.i64(i8* nonnull %7, i8 0, i64 80, i32 16, i1 false) #8
  call void @_ZNSt11_Deque_baseIaSaIaEE17_M_initialize_mapEm(%"class.std::_Deque_base"* nonnull %8, i64 0)
  %9 = getelementptr inbounds %"class.std::queue", %"class.std::queue"* %6, i64 0, i32 0, i32 0
  %10 = bitcast %"class.std::queue"* %6 to i8*
  call void @llvm.memset.p0i8.i64(i8* %10, i8 0, i64 80, i32 8, i1 false) #8
  invoke void @_ZNSt11_Deque_baseIaSaIaEE17_M_initialize_mapEm(%"class.std::_Deque_base"* %9, i64 0)
          to label %11 unwind label %71

; <label>:11:                                     ; preds = %1
  %12 = getelementptr inbounds %"class.std::deque", %"class.std::deque"* %2, i64 0, i32 0, i32 0, i32 0
  %13 = load i8**, i8*** %12, align 16, !tbaa !26
  %14 = icmp eq i8** %13, null
  br i1 %14, label %68, label %15

; <label>:15:                                     ; preds = %11
  %16 = ptrtoint i8** %13 to i64
  %17 = getelementptr inbounds %"class.MARC::ThreadSafeQueue", %"class.MARC::ThreadSafeQueue"* %0, i64 0, i32 2, i32 0, i32 0, i32 0, i32 2
  %18 = getelementptr inbounds %"class.std::deque", %"class.std::deque"* %2, i64 0, i32 0, i32 0, i32 2
  %19 = bitcast %"struct.std::_Deque_iterator"* %17 to <2 x i64>*
  %20 = load <2 x i64>, <2 x i64>* %19, align 8, !tbaa !27
  %21 = getelementptr inbounds %"class.MARC::ThreadSafeQueue", %"class.MARC::ThreadSafeQueue"* %0, i64 0, i32 2, i32 0, i32 0, i32 0, i32 2, i32 2
  %22 = bitcast i8** %21 to <2 x i64>*
  %23 = load <2 x i64>, <2 x i64>* %22, align 8, !tbaa !27
  %24 = bitcast %"struct.std::_Deque_iterator"* %17 to i8*
  %25 = bitcast %"struct.std::_Deque_iterator"* %18 to i8*
  call void @llvm.memcpy.p0i8.p0i8.i64(i8* nonnull %24, i8* nonnull %25, i64 32, i32 8, i1 false) #8, !tbaa.struct !168
  %26 = bitcast %"struct.std::_Deque_iterator"* %18 to <2 x i64>*
  store <2 x i64> %20, <2 x i64>* %26, align 16
  %27 = getelementptr inbounds %"class.std::deque", %"class.std::deque"* %2, i64 0, i32 0, i32 0, i32 2, i32 2
  %28 = bitcast i8** %27 to <2 x i64>*
  store <2 x i64> %23, <2 x i64>* %28, align 16
  %29 = getelementptr inbounds %"class.MARC::ThreadSafeQueue", %"class.MARC::ThreadSafeQueue"* %0, i64 0, i32 2, i32 0, i32 0, i32 0, i32 3
  %30 = getelementptr inbounds %"class.std::deque", %"class.std::deque"* %2, i64 0, i32 0, i32 0, i32 3
  %31 = bitcast %"struct.std::_Deque_iterator"* %29 to <2 x i64>*
  %32 = load <2 x i64>, <2 x i64>* %31, align 8, !tbaa !27
  %33 = getelementptr inbounds %"class.MARC::ThreadSafeQueue", %"class.MARC::ThreadSafeQueue"* %0, i64 0, i32 2, i32 0, i32 0, i32 0, i32 3, i32 2
  %34 = bitcast i8** %33 to <2 x i64>*
  %35 = load <2 x i64>, <2 x i64>* %34, align 8, !tbaa !27
  %36 = bitcast %"struct.std::_Deque_iterator"* %29 to i8*
  %37 = bitcast %"struct.std::_Deque_iterator"* %30 to i8*
  call void @llvm.memcpy.p0i8.p0i8.i64(i8* nonnull %36, i8* nonnull %37, i64 32, i32 8, i1 false) #8, !tbaa.struct !168
  %38 = bitcast %"struct.std::_Deque_iterator"* %30 to <2 x i64>*
  store <2 x i64> %32, <2 x i64>* %38, align 16
  %39 = getelementptr inbounds %"class.std::deque", %"class.std::deque"* %2, i64 0, i32 0, i32 0, i32 3, i32 2
  %40 = bitcast i8** %39 to <2 x i64>*
  store <2 x i64> %35, <2 x i64>* %40, align 16
  %41 = bitcast %"class.std::queue"* %6 to i64*
  %42 = getelementptr inbounds %"class.MARC::ThreadSafeQueue", %"class.MARC::ThreadSafeQueue"* %0, i64 0, i32 2, i32 0, i32 0, i32 0, i32 1
  %43 = bitcast %"class.std::queue"* %6 to <2 x i64>*
  %44 = load <2 x i64>, <2 x i64>* %43, align 8, !tbaa !18
  store i64 %16, i64* %41, align 8, !tbaa !27
  %45 = getelementptr inbounds %"class.std::deque", %"class.std::deque"* %2, i64 0, i32 0, i32 0, i32 1
  %46 = load i64, i64* %45, align 8, !tbaa !84
  store i64 %46, i64* %42, align 8, !tbaa !84
  %47 = bitcast %"class.std::deque"* %2 to <2 x i64>*
  store <2 x i64> %44, <2 x i64>* %47, align 16, !tbaa !18
  %48 = extractelement <2 x i64> %44, i32 0
  %49 = icmp eq i64 %48, 0
  %50 = extractelement <2 x i64> %23, i32 1
  %51 = inttoptr i64 %50 to i8**
  %52 = extractelement <2 x i64> %35, i32 1
  %53 = inttoptr i64 %52 to i8**
  br i1 %49, label %68, label %54

; <label>:54:                                     ; preds = %15
  %55 = inttoptr i64 %48 to i8*
  %56 = getelementptr inbounds i8*, i8** %53, i64 1
  %57 = icmp ugt i8** %56, %51
  br i1 %57, label %.preheader, label %66

.preheader:                                       ; preds = %54
  br label %58

; <label>:58:                                     ; preds = %.preheader, %58
  %59 = phi i8** [ %61, %58 ], [ %51, %.preheader ]
  %60 = load i8*, i8** %59, align 8, !tbaa !27
  call void @_ZdlPv(i8* %60) #8
  %61 = getelementptr inbounds i8*, i8** %59, i64 1
  %62 = icmp ult i8** %59, %53
  br i1 %62, label %58, label %63

; <label>:63:                                     ; preds = %58
  %64 = bitcast %"class.std::deque"* %2 to i8**
  %65 = load i8*, i8** %64, align 16, !tbaa !26
  br label %66

; <label>:66:                                     ; preds = %63, %54
  %67 = phi i8* [ %65, %63 ], [ %55, %54 ]
  call void @_ZdlPv(i8* %67) #8
  br label %68

; <label>:68:                                     ; preds = %11, %15, %66
  call void @llvm.lifetime.end.p0i8(i64 80, i8* nonnull %7) #8
  %69 = getelementptr inbounds %"class.MARC::ThreadSafeQueue", %"class.MARC::ThreadSafeQueue"* %0, i64 0, i32 3
  call void @_ZNSt18condition_variableC1Ev(%"class.std::condition_variable"* %69) #8
  %70 = getelementptr inbounds %"class.MARC::ThreadSafeQueue", %"class.MARC::ThreadSafeQueue"* %0, i64 0, i32 4
  call void @_ZNSt18condition_variableC1Ev(%"class.std::condition_variable"* %70) #8
  ret void

; <label>:71:                                     ; preds = %1
  %72 = landingpad { i8*, i32 }
          cleanup
  %73 = getelementptr inbounds %"class.std::deque", %"class.std::deque"* %2, i64 0, i32 0, i32 0, i32 0
  %74 = load i8**, i8*** %73, align 16, !tbaa !26
  %75 = icmp eq i8** %74, null
  br i1 %75, label %94, label %76

; <label>:76:                                     ; preds = %71
  %77 = bitcast i8** %74 to i8*
  %78 = getelementptr inbounds %"class.std::deque", %"class.std::deque"* %2, i64 0, i32 0, i32 0, i32 2, i32 3
  %79 = load i8**, i8*** %78, align 8, !tbaa !31
  %80 = getelementptr inbounds %"class.std::deque", %"class.std::deque"* %2, i64 0, i32 0, i32 0, i32 3, i32 3
  %81 = load i8**, i8*** %80, align 8, !tbaa !25
  %82 = getelementptr inbounds i8*, i8** %81, i64 1
  %83 = icmp ult i8** %79, %82
  br i1 %83, label %.preheader1, label %92

.preheader1:                                      ; preds = %76
  br label %84

; <label>:84:                                     ; preds = %.preheader1, %84
  %85 = phi i8** [ %87, %84 ], [ %79, %.preheader1 ]
  %86 = load i8*, i8** %85, align 8, !tbaa !27
  call void @_ZdlPv(i8* %86) #8
  %87 = getelementptr inbounds i8*, i8** %85, i64 1
  %88 = icmp ult i8** %85, %81
  br i1 %88, label %84, label %89

; <label>:89:                                     ; preds = %84
  %90 = bitcast %"class.std::deque"* %2 to i8**
  %91 = load i8*, i8** %90, align 16, !tbaa !26
  br label %92

; <label>:92:                                     ; preds = %89, %76
  %93 = phi i8* [ %91, %89 ], [ %77, %76 ]
  call void @_ZdlPv(i8* %93) #8
  br label %94

; <label>:94:                                     ; preds = %71, %92
  call void @llvm.lifetime.end.p0i8(i64 80, i8* nonnull %7) #8
  resume { i8*, i32 } %72
}

; Function Attrs: uwtable
define linkonce_odr void @_ZN4MARC15ThreadSafeQueueIsEC2Ev(%"class.MARC::ThreadSafeQueue.3"*) unnamed_addr #5 comdat align 2 personality i8* bitcast (i32 (...)* @__gxx_personality_v0 to i8*) {
  %2 = alloca %"class.std::deque.5", align 16
  %3 = getelementptr inbounds %"class.MARC::ThreadSafeQueue.3", %"class.MARC::ThreadSafeQueue.3"* %0, i64 0, i32 0, i32 0, i32 0
  store i8 1, i8* %3, align 1, !tbaa !135
  %4 = getelementptr inbounds %"class.MARC::ThreadSafeQueue.3", %"class.MARC::ThreadSafeQueue.3"* %0, i64 0, i32 1
  %5 = bitcast %"class.std::mutex"* %4 to i8*
  tail call void @llvm.memset.p0i8.i64(i8* %5, i8 0, i64 40, i32 8, i1 false) #8
  %6 = getelementptr inbounds %"class.MARC::ThreadSafeQueue.3", %"class.MARC::ThreadSafeQueue.3"* %0, i64 0, i32 2
  %7 = bitcast %"class.std::deque.5"* %2 to i8*
  call void @llvm.lifetime.start.p0i8(i64 80, i8* nonnull %7) #8
  %8 = getelementptr inbounds %"class.std::deque.5", %"class.std::deque.5"* %2, i64 0, i32 0
  call void @llvm.memset.p0i8.i64(i8* nonnull %7, i8 0, i64 80, i32 16, i1 false) #8
  call void @_ZNSt11_Deque_baseIsSaIsEE17_M_initialize_mapEm(%"class.std::_Deque_base.6"* nonnull %8, i64 0)
  %9 = getelementptr inbounds %"class.std::queue.4", %"class.std::queue.4"* %6, i64 0, i32 0, i32 0
  %10 = bitcast %"class.std::queue.4"* %6 to i8*
  call void @llvm.memset.p0i8.i64(i8* %10, i8 0, i64 80, i32 8, i1 false) #8
  invoke void @_ZNSt11_Deque_baseIsSaIsEE17_M_initialize_mapEm(%"class.std::_Deque_base.6"* %9, i64 0)
          to label %11 unwind label %72

; <label>:11:                                     ; preds = %1
  %12 = getelementptr inbounds %"class.std::deque.5", %"class.std::deque.5"* %2, i64 0, i32 0, i32 0, i32 0
  %13 = load i16**, i16*** %12, align 16, !tbaa !53
  %14 = icmp eq i16** %13, null
  br i1 %14, label %69, label %15

; <label>:15:                                     ; preds = %11
  %16 = ptrtoint i16** %13 to i64
  %17 = getelementptr inbounds %"class.MARC::ThreadSafeQueue.3", %"class.MARC::ThreadSafeQueue.3"* %0, i64 0, i32 2, i32 0, i32 0, i32 0, i32 2
  %18 = getelementptr inbounds %"class.std::deque.5", %"class.std::deque.5"* %2, i64 0, i32 0, i32 0, i32 2
  %19 = bitcast %"struct.std::_Deque_iterator.10"* %17 to <2 x i64>*
  %20 = load <2 x i64>, <2 x i64>* %19, align 8, !tbaa !27
  %21 = getelementptr inbounds %"class.MARC::ThreadSafeQueue.3", %"class.MARC::ThreadSafeQueue.3"* %0, i64 0, i32 2, i32 0, i32 0, i32 0, i32 2, i32 2
  %22 = bitcast i16** %21 to <2 x i64>*
  %23 = load <2 x i64>, <2 x i64>* %22, align 8, !tbaa !27
  %24 = bitcast %"struct.std::_Deque_iterator.10"* %17 to i8*
  %25 = bitcast %"struct.std::_Deque_iterator.10"* %18 to i8*
  call void @llvm.memcpy.p0i8.p0i8.i64(i8* nonnull %24, i8* nonnull %25, i64 32, i32 8, i1 false) #8, !tbaa.struct !168
  %26 = bitcast %"struct.std::_Deque_iterator.10"* %18 to <2 x i64>*
  store <2 x i64> %20, <2 x i64>* %26, align 16
  %27 = getelementptr inbounds %"class.std::deque.5", %"class.std::deque.5"* %2, i64 0, i32 0, i32 0, i32 2, i32 2
  %28 = bitcast i16** %27 to <2 x i64>*
  store <2 x i64> %23, <2 x i64>* %28, align 16
  %29 = getelementptr inbounds %"class.MARC::ThreadSafeQueue.3", %"class.MARC::ThreadSafeQueue.3"* %0, i64 0, i32 2, i32 0, i32 0, i32 0, i32 3
  %30 = getelementptr inbounds %"class.std::deque.5", %"class.std::deque.5"* %2, i64 0, i32 0, i32 0, i32 3
  %31 = bitcast %"struct.std::_Deque_iterator.10"* %29 to <2 x i64>*
  %32 = load <2 x i64>, <2 x i64>* %31, align 8, !tbaa !27
  %33 = getelementptr inbounds %"class.MARC::ThreadSafeQueue.3", %"class.MARC::ThreadSafeQueue.3"* %0, i64 0, i32 2, i32 0, i32 0, i32 0, i32 3, i32 2
  %34 = bitcast i16** %33 to <2 x i64>*
  %35 = load <2 x i64>, <2 x i64>* %34, align 8, !tbaa !27
  %36 = bitcast %"struct.std::_Deque_iterator.10"* %29 to i8*
  %37 = bitcast %"struct.std::_Deque_iterator.10"* %30 to i8*
  call void @llvm.memcpy.p0i8.p0i8.i64(i8* nonnull %36, i8* nonnull %37, i64 32, i32 8, i1 false) #8, !tbaa.struct !168
  %38 = bitcast %"struct.std::_Deque_iterator.10"* %30 to <2 x i64>*
  store <2 x i64> %32, <2 x i64>* %38, align 16
  %39 = getelementptr inbounds %"class.std::deque.5", %"class.std::deque.5"* %2, i64 0, i32 0, i32 0, i32 3, i32 2
  %40 = bitcast i16** %39 to <2 x i64>*
  store <2 x i64> %35, <2 x i64>* %40, align 16
  %41 = bitcast %"class.std::queue.4"* %6 to i64*
  %42 = getelementptr inbounds %"class.MARC::ThreadSafeQueue.3", %"class.MARC::ThreadSafeQueue.3"* %0, i64 0, i32 2, i32 0, i32 0, i32 0, i32 1
  %43 = bitcast %"class.std::queue.4"* %6 to <2 x i64>*
  %44 = load <2 x i64>, <2 x i64>* %43, align 8, !tbaa !18
  store i64 %16, i64* %41, align 8, !tbaa !27
  %45 = getelementptr inbounds %"class.std::deque.5", %"class.std::deque.5"* %2, i64 0, i32 0, i32 0, i32 1
  %46 = load i64, i64* %45, align 8, !tbaa !84
  store i64 %46, i64* %42, align 8, !tbaa !84
  %47 = bitcast %"class.std::deque.5"* %2 to <2 x i64>*
  store <2 x i64> %44, <2 x i64>* %47, align 16, !tbaa !18
  %48 = extractelement <2 x i64> %44, i32 0
  %49 = icmp eq i64 %48, 0
  %50 = extractelement <2 x i64> %23, i32 1
  %51 = inttoptr i64 %50 to i16**
  %52 = extractelement <2 x i64> %35, i32 1
  %53 = inttoptr i64 %52 to i16**
  br i1 %49, label %69, label %54

; <label>:54:                                     ; preds = %15
  %55 = inttoptr i64 %48 to i8*
  %56 = getelementptr inbounds i16*, i16** %53, i64 1
  %57 = icmp ugt i16** %56, %51
  br i1 %57, label %.preheader, label %67

.preheader:                                       ; preds = %54
  br label %58

; <label>:58:                                     ; preds = %.preheader, %58
  %59 = phi i16** [ %62, %58 ], [ %51, %.preheader ]
  %60 = bitcast i16** %59 to i8**
  %61 = load i8*, i8** %60, align 8, !tbaa !27
  call void @_ZdlPv(i8* %61) #8
  %62 = getelementptr inbounds i16*, i16** %59, i64 1
  %63 = icmp ult i16** %59, %53
  br i1 %63, label %58, label %64

; <label>:64:                                     ; preds = %58
  %65 = bitcast %"class.std::deque.5"* %2 to i8**
  %66 = load i8*, i8** %65, align 16, !tbaa !53
  br label %67

; <label>:67:                                     ; preds = %64, %54
  %68 = phi i8* [ %66, %64 ], [ %55, %54 ]
  call void @_ZdlPv(i8* %68) #8
  br label %69

; <label>:69:                                     ; preds = %11, %15, %67
  call void @llvm.lifetime.end.p0i8(i64 80, i8* nonnull %7) #8
  %70 = getelementptr inbounds %"class.MARC::ThreadSafeQueue.3", %"class.MARC::ThreadSafeQueue.3"* %0, i64 0, i32 3
  call void @_ZNSt18condition_variableC1Ev(%"class.std::condition_variable"* %70) #8
  %71 = getelementptr inbounds %"class.MARC::ThreadSafeQueue.3", %"class.MARC::ThreadSafeQueue.3"* %0, i64 0, i32 4
  call void @_ZNSt18condition_variableC1Ev(%"class.std::condition_variable"* %71) #8
  ret void

; <label>:72:                                     ; preds = %1
  %73 = landingpad { i8*, i32 }
          cleanup
  %74 = getelementptr inbounds %"class.std::deque.5", %"class.std::deque.5"* %2, i64 0, i32 0, i32 0, i32 0
  %75 = load i16**, i16*** %74, align 16, !tbaa !53
  %76 = icmp eq i16** %75, null
  br i1 %76, label %96, label %77

; <label>:77:                                     ; preds = %72
  %78 = bitcast i16** %75 to i8*
  %79 = getelementptr inbounds %"class.std::deque.5", %"class.std::deque.5"* %2, i64 0, i32 0, i32 0, i32 2, i32 3
  %80 = load i16**, i16*** %79, align 8, !tbaa !57
  %81 = getelementptr inbounds %"class.std::deque.5", %"class.std::deque.5"* %2, i64 0, i32 0, i32 0, i32 3, i32 3
  %82 = load i16**, i16*** %81, align 8, !tbaa !52
  %83 = getelementptr inbounds i16*, i16** %82, i64 1
  %84 = icmp ult i16** %80, %83
  br i1 %84, label %.preheader1, label %94

.preheader1:                                      ; preds = %77
  br label %85

; <label>:85:                                     ; preds = %.preheader1, %85
  %86 = phi i16** [ %89, %85 ], [ %80, %.preheader1 ]
  %87 = bitcast i16** %86 to i8**
  %88 = load i8*, i8** %87, align 8, !tbaa !27
  call void @_ZdlPv(i8* %88) #8
  %89 = getelementptr inbounds i16*, i16** %86, i64 1
  %90 = icmp ult i16** %86, %82
  br i1 %90, label %85, label %91

; <label>:91:                                     ; preds = %85
  %92 = bitcast %"class.std::deque.5"* %2 to i8**
  %93 = load i8*, i8** %92, align 16, !tbaa !53
  br label %94

; <label>:94:                                     ; preds = %91, %77
  %95 = phi i8* [ %93, %91 ], [ %78, %77 ]
  call void @_ZdlPv(i8* %95) #8
  br label %96

; <label>:96:                                     ; preds = %72, %94
  call void @llvm.lifetime.end.p0i8(i64 80, i8* nonnull %7) #8
  resume { i8*, i32 } %73
}

; Function Attrs: uwtable
define linkonce_odr void @_ZN4MARC15ThreadSafeQueueIiEC2Ev(%"class.MARC::ThreadSafeQueue.11"*) unnamed_addr #5 comdat align 2 personality i8* bitcast (i32 (...)* @__gxx_personality_v0 to i8*) {
  %2 = alloca %"class.std::deque.13", align 16
  %3 = getelementptr inbounds %"class.MARC::ThreadSafeQueue.11", %"class.MARC::ThreadSafeQueue.11"* %0, i64 0, i32 0, i32 0, i32 0
  store i8 1, i8* %3, align 1, !tbaa !135
  %4 = getelementptr inbounds %"class.MARC::ThreadSafeQueue.11", %"class.MARC::ThreadSafeQueue.11"* %0, i64 0, i32 1
  %5 = bitcast %"class.std::mutex"* %4 to i8*
  tail call void @llvm.memset.p0i8.i64(i8* %5, i8 0, i64 40, i32 8, i1 false) #8
  %6 = getelementptr inbounds %"class.MARC::ThreadSafeQueue.11", %"class.MARC::ThreadSafeQueue.11"* %0, i64 0, i32 2
  %7 = bitcast %"class.std::deque.13"* %2 to i8*
  call void @llvm.lifetime.start.p0i8(i64 80, i8* nonnull %7) #8
  %8 = getelementptr inbounds %"class.std::deque.13", %"class.std::deque.13"* %2, i64 0, i32 0
  call void @llvm.memset.p0i8.i64(i8* nonnull %7, i8 0, i64 80, i32 16, i1 false) #8
  call void @_ZNSt11_Deque_baseIiSaIiEE17_M_initialize_mapEm(%"class.std::_Deque_base.14"* nonnull %8, i64 0)
  %9 = getelementptr inbounds %"class.std::queue.12", %"class.std::queue.12"* %6, i64 0, i32 0, i32 0
  %10 = bitcast %"class.std::queue.12"* %6 to i8*
  call void @llvm.memset.p0i8.i64(i8* %10, i8 0, i64 80, i32 8, i1 false) #8
  invoke void @_ZNSt11_Deque_baseIiSaIiEE17_M_initialize_mapEm(%"class.std::_Deque_base.14"* %9, i64 0)
          to label %11 unwind label %72

; <label>:11:                                     ; preds = %1
  %12 = getelementptr inbounds %"class.std::deque.13", %"class.std::deque.13"* %2, i64 0, i32 0, i32 0, i32 0
  %13 = load i32**, i32*** %12, align 16, !tbaa !72
  %14 = icmp eq i32** %13, null
  br i1 %14, label %69, label %15

; <label>:15:                                     ; preds = %11
  %16 = ptrtoint i32** %13 to i64
  %17 = getelementptr inbounds %"class.MARC::ThreadSafeQueue.11", %"class.MARC::ThreadSafeQueue.11"* %0, i64 0, i32 2, i32 0, i32 0, i32 0, i32 2
  %18 = getelementptr inbounds %"class.std::deque.13", %"class.std::deque.13"* %2, i64 0, i32 0, i32 0, i32 2
  %19 = bitcast %"struct.std::_Deque_iterator.18"* %17 to <2 x i64>*
  %20 = load <2 x i64>, <2 x i64>* %19, align 8, !tbaa !27
  %21 = getelementptr inbounds %"class.MARC::ThreadSafeQueue.11", %"class.MARC::ThreadSafeQueue.11"* %0, i64 0, i32 2, i32 0, i32 0, i32 0, i32 2, i32 2
  %22 = bitcast i32** %21 to <2 x i64>*
  %23 = load <2 x i64>, <2 x i64>* %22, align 8, !tbaa !27
  %24 = bitcast %"struct.std::_Deque_iterator.18"* %17 to i8*
  %25 = bitcast %"struct.std::_Deque_iterator.18"* %18 to i8*
  call void @llvm.memcpy.p0i8.p0i8.i64(i8* nonnull %24, i8* nonnull %25, i64 32, i32 8, i1 false) #8, !tbaa.struct !168
  %26 = bitcast %"struct.std::_Deque_iterator.18"* %18 to <2 x i64>*
  store <2 x i64> %20, <2 x i64>* %26, align 16
  %27 = getelementptr inbounds %"class.std::deque.13", %"class.std::deque.13"* %2, i64 0, i32 0, i32 0, i32 2, i32 2
  %28 = bitcast i32** %27 to <2 x i64>*
  store <2 x i64> %23, <2 x i64>* %28, align 16
  %29 = getelementptr inbounds %"class.MARC::ThreadSafeQueue.11", %"class.MARC::ThreadSafeQueue.11"* %0, i64 0, i32 2, i32 0, i32 0, i32 0, i32 3
  %30 = getelementptr inbounds %"class.std::deque.13", %"class.std::deque.13"* %2, i64 0, i32 0, i32 0, i32 3
  %31 = bitcast %"struct.std::_Deque_iterator.18"* %29 to <2 x i64>*
  %32 = load <2 x i64>, <2 x i64>* %31, align 8, !tbaa !27
  %33 = getelementptr inbounds %"class.MARC::ThreadSafeQueue.11", %"class.MARC::ThreadSafeQueue.11"* %0, i64 0, i32 2, i32 0, i32 0, i32 0, i32 3, i32 2
  %34 = bitcast i32** %33 to <2 x i64>*
  %35 = load <2 x i64>, <2 x i64>* %34, align 8, !tbaa !27
  %36 = bitcast %"struct.std::_Deque_iterator.18"* %29 to i8*
  %37 = bitcast %"struct.std::_Deque_iterator.18"* %30 to i8*
  call void @llvm.memcpy.p0i8.p0i8.i64(i8* nonnull %36, i8* nonnull %37, i64 32, i32 8, i1 false) #8, !tbaa.struct !168
  %38 = bitcast %"struct.std::_Deque_iterator.18"* %30 to <2 x i64>*
  store <2 x i64> %32, <2 x i64>* %38, align 16
  %39 = getelementptr inbounds %"class.std::deque.13", %"class.std::deque.13"* %2, i64 0, i32 0, i32 0, i32 3, i32 2
  %40 = bitcast i32** %39 to <2 x i64>*
  store <2 x i64> %35, <2 x i64>* %40, align 16
  %41 = bitcast %"class.std::queue.12"* %6 to i64*
  %42 = getelementptr inbounds %"class.MARC::ThreadSafeQueue.11", %"class.MARC::ThreadSafeQueue.11"* %0, i64 0, i32 2, i32 0, i32 0, i32 0, i32 1
  %43 = bitcast %"class.std::queue.12"* %6 to <2 x i64>*
  %44 = load <2 x i64>, <2 x i64>* %43, align 8, !tbaa !18
  store i64 %16, i64* %41, align 8, !tbaa !27
  %45 = getelementptr inbounds %"class.std::deque.13", %"class.std::deque.13"* %2, i64 0, i32 0, i32 0, i32 1
  %46 = load i64, i64* %45, align 8, !tbaa !84
  store i64 %46, i64* %42, align 8, !tbaa !84
  %47 = bitcast %"class.std::deque.13"* %2 to <2 x i64>*
  store <2 x i64> %44, <2 x i64>* %47, align 16, !tbaa !18
  %48 = extractelement <2 x i64> %44, i32 0
  %49 = icmp eq i64 %48, 0
  %50 = extractelement <2 x i64> %23, i32 1
  %51 = inttoptr i64 %50 to i32**
  %52 = extractelement <2 x i64> %35, i32 1
  %53 = inttoptr i64 %52 to i32**
  br i1 %49, label %69, label %54

; <label>:54:                                     ; preds = %15
  %55 = inttoptr i64 %48 to i8*
  %56 = getelementptr inbounds i32*, i32** %53, i64 1
  %57 = icmp ugt i32** %56, %51
  br i1 %57, label %.preheader, label %67

.preheader:                                       ; preds = %54
  br label %58

; <label>:58:                                     ; preds = %.preheader, %58
  %59 = phi i32** [ %62, %58 ], [ %51, %.preheader ]
  %60 = bitcast i32** %59 to i8**
  %61 = load i8*, i8** %60, align 8, !tbaa !27
  call void @_ZdlPv(i8* %61) #8
  %62 = getelementptr inbounds i32*, i32** %59, i64 1
  %63 = icmp ult i32** %59, %53
  br i1 %63, label %58, label %64

; <label>:64:                                     ; preds = %58
  %65 = bitcast %"class.std::deque.13"* %2 to i8**
  %66 = load i8*, i8** %65, align 16, !tbaa !72
  br label %67

; <label>:67:                                     ; preds = %64, %54
  %68 = phi i8* [ %66, %64 ], [ %55, %54 ]
  call void @_ZdlPv(i8* %68) #8
  br label %69

; <label>:69:                                     ; preds = %11, %15, %67
  call void @llvm.lifetime.end.p0i8(i64 80, i8* nonnull %7) #8
  %70 = getelementptr inbounds %"class.MARC::ThreadSafeQueue.11", %"class.MARC::ThreadSafeQueue.11"* %0, i64 0, i32 3
  call void @_ZNSt18condition_variableC1Ev(%"class.std::condition_variable"* %70) #8
  %71 = getelementptr inbounds %"class.MARC::ThreadSafeQueue.11", %"class.MARC::ThreadSafeQueue.11"* %0, i64 0, i32 4
  call void @_ZNSt18condition_variableC1Ev(%"class.std::condition_variable"* %71) #8
  ret void

; <label>:72:                                     ; preds = %1
  %73 = landingpad { i8*, i32 }
          cleanup
  %74 = getelementptr inbounds %"class.std::deque.13", %"class.std::deque.13"* %2, i64 0, i32 0, i32 0, i32 0
  %75 = load i32**, i32*** %74, align 16, !tbaa !72
  %76 = icmp eq i32** %75, null
  br i1 %76, label %96, label %77

; <label>:77:                                     ; preds = %72
  %78 = bitcast i32** %75 to i8*
  %79 = getelementptr inbounds %"class.std::deque.13", %"class.std::deque.13"* %2, i64 0, i32 0, i32 0, i32 2, i32 3
  %80 = load i32**, i32*** %79, align 8, !tbaa !76
  %81 = getelementptr inbounds %"class.std::deque.13", %"class.std::deque.13"* %2, i64 0, i32 0, i32 0, i32 3, i32 3
  %82 = load i32**, i32*** %81, align 8, !tbaa !71
  %83 = getelementptr inbounds i32*, i32** %82, i64 1
  %84 = icmp ult i32** %80, %83
  br i1 %84, label %.preheader1, label %94

.preheader1:                                      ; preds = %77
  br label %85

; <label>:85:                                     ; preds = %.preheader1, %85
  %86 = phi i32** [ %89, %85 ], [ %80, %.preheader1 ]
  %87 = bitcast i32** %86 to i8**
  %88 = load i8*, i8** %87, align 8, !tbaa !27
  call void @_ZdlPv(i8* %88) #8
  %89 = getelementptr inbounds i32*, i32** %86, i64 1
  %90 = icmp ult i32** %86, %82
  br i1 %90, label %85, label %91

; <label>:91:                                     ; preds = %85
  %92 = bitcast %"class.std::deque.13"* %2 to i8**
  %93 = load i8*, i8** %92, align 16, !tbaa !72
  br label %94

; <label>:94:                                     ; preds = %91, %77
  %95 = phi i8* [ %93, %91 ], [ %78, %77 ]
  call void @_ZdlPv(i8* %95) #8
  br label %96

; <label>:96:                                     ; preds = %72, %94
  call void @llvm.lifetime.end.p0i8(i64 80, i8* nonnull %7) #8
  resume { i8*, i32 } %73
}

; Function Attrs: uwtable
define linkonce_odr void @_ZN4MARC15ThreadSafeQueueIlEC2Ev(%"class.MARC::ThreadSafeQueue.19"*) unnamed_addr #5 comdat align 2 personality i8* bitcast (i32 (...)* @__gxx_personality_v0 to i8*) {
  %2 = alloca %"class.std::deque.21", align 16
  %3 = getelementptr inbounds %"class.MARC::ThreadSafeQueue.19", %"class.MARC::ThreadSafeQueue.19"* %0, i64 0, i32 0, i32 0, i32 0
  store i8 1, i8* %3, align 1, !tbaa !135
  %4 = getelementptr inbounds %"class.MARC::ThreadSafeQueue.19", %"class.MARC::ThreadSafeQueue.19"* %0, i64 0, i32 1
  %5 = bitcast %"class.std::mutex"* %4 to i8*
  tail call void @llvm.memset.p0i8.i64(i8* %5, i8 0, i64 40, i32 8, i1 false) #8
  %6 = getelementptr inbounds %"class.MARC::ThreadSafeQueue.19", %"class.MARC::ThreadSafeQueue.19"* %0, i64 0, i32 2
  %7 = bitcast %"class.std::deque.21"* %2 to i8*
  call void @llvm.lifetime.start.p0i8(i64 80, i8* nonnull %7) #8
  %8 = getelementptr inbounds %"class.std::deque.21", %"class.std::deque.21"* %2, i64 0, i32 0
  call void @llvm.memset.p0i8.i64(i8* nonnull %7, i8 0, i64 80, i32 16, i1 false) #8
  call void @_ZNSt11_Deque_baseIlSaIlEE17_M_initialize_mapEm(%"class.std::_Deque_base.22"* nonnull %8, i64 0)
  %9 = getelementptr inbounds %"class.std::queue.20", %"class.std::queue.20"* %6, i64 0, i32 0, i32 0
  %10 = bitcast %"class.std::queue.20"* %6 to i8*
  call void @llvm.memset.p0i8.i64(i8* %10, i8 0, i64 80, i32 8, i1 false) #8
  invoke void @_ZNSt11_Deque_baseIlSaIlEE17_M_initialize_mapEm(%"class.std::_Deque_base.22"* %9, i64 0)
          to label %11 unwind label %72

; <label>:11:                                     ; preds = %1
  %12 = getelementptr inbounds %"class.std::deque.21", %"class.std::deque.21"* %2, i64 0, i32 0, i32 0, i32 0
  %13 = load i64**, i64*** %12, align 16, !tbaa !92
  %14 = icmp eq i64** %13, null
  br i1 %14, label %69, label %15

; <label>:15:                                     ; preds = %11
  %16 = ptrtoint i64** %13 to i64
  %17 = getelementptr inbounds %"class.MARC::ThreadSafeQueue.19", %"class.MARC::ThreadSafeQueue.19"* %0, i64 0, i32 2, i32 0, i32 0, i32 0, i32 2
  %18 = getelementptr inbounds %"class.std::deque.21", %"class.std::deque.21"* %2, i64 0, i32 0, i32 0, i32 2
  %19 = bitcast %"struct.std::_Deque_iterator.26"* %17 to <2 x i64>*
  %20 = load <2 x i64>, <2 x i64>* %19, align 8, !tbaa !27
  %21 = getelementptr inbounds %"class.MARC::ThreadSafeQueue.19", %"class.MARC::ThreadSafeQueue.19"* %0, i64 0, i32 2, i32 0, i32 0, i32 0, i32 2, i32 2
  %22 = bitcast i64** %21 to <2 x i64>*
  %23 = load <2 x i64>, <2 x i64>* %22, align 8, !tbaa !27
  %24 = bitcast %"struct.std::_Deque_iterator.26"* %17 to i8*
  %25 = bitcast %"struct.std::_Deque_iterator.26"* %18 to i8*
  call void @llvm.memcpy.p0i8.p0i8.i64(i8* nonnull %24, i8* nonnull %25, i64 32, i32 8, i1 false) #8, !tbaa.struct !168
  %26 = bitcast %"struct.std::_Deque_iterator.26"* %18 to <2 x i64>*
  store <2 x i64> %20, <2 x i64>* %26, align 16
  %27 = getelementptr inbounds %"class.std::deque.21", %"class.std::deque.21"* %2, i64 0, i32 0, i32 0, i32 2, i32 2
  %28 = bitcast i64** %27 to <2 x i64>*
  store <2 x i64> %23, <2 x i64>* %28, align 16
  %29 = getelementptr inbounds %"class.MARC::ThreadSafeQueue.19", %"class.MARC::ThreadSafeQueue.19"* %0, i64 0, i32 2, i32 0, i32 0, i32 0, i32 3
  %30 = getelementptr inbounds %"class.std::deque.21", %"class.std::deque.21"* %2, i64 0, i32 0, i32 0, i32 3
  %31 = bitcast %"struct.std::_Deque_iterator.26"* %29 to <2 x i64>*
  %32 = load <2 x i64>, <2 x i64>* %31, align 8, !tbaa !27
  %33 = getelementptr inbounds %"class.MARC::ThreadSafeQueue.19", %"class.MARC::ThreadSafeQueue.19"* %0, i64 0, i32 2, i32 0, i32 0, i32 0, i32 3, i32 2
  %34 = bitcast i64** %33 to <2 x i64>*
  %35 = load <2 x i64>, <2 x i64>* %34, align 8, !tbaa !27
  %36 = bitcast %"struct.std::_Deque_iterator.26"* %29 to i8*
  %37 = bitcast %"struct.std::_Deque_iterator.26"* %30 to i8*
  call void @llvm.memcpy.p0i8.p0i8.i64(i8* nonnull %36, i8* nonnull %37, i64 32, i32 8, i1 false) #8, !tbaa.struct !168
  %38 = bitcast %"struct.std::_Deque_iterator.26"* %30 to <2 x i64>*
  store <2 x i64> %32, <2 x i64>* %38, align 16
  %39 = getelementptr inbounds %"class.std::deque.21", %"class.std::deque.21"* %2, i64 0, i32 0, i32 0, i32 3, i32 2
  %40 = bitcast i64** %39 to <2 x i64>*
  store <2 x i64> %35, <2 x i64>* %40, align 16
  %41 = bitcast %"class.std::queue.20"* %6 to i64*
  %42 = getelementptr inbounds %"class.MARC::ThreadSafeQueue.19", %"class.MARC::ThreadSafeQueue.19"* %0, i64 0, i32 2, i32 0, i32 0, i32 0, i32 1
  %43 = bitcast %"class.std::queue.20"* %6 to <2 x i64>*
  %44 = load <2 x i64>, <2 x i64>* %43, align 8, !tbaa !18
  store i64 %16, i64* %41, align 8, !tbaa !27
  %45 = getelementptr inbounds %"class.std::deque.21", %"class.std::deque.21"* %2, i64 0, i32 0, i32 0, i32 1
  %46 = load i64, i64* %45, align 8, !tbaa !84
  store i64 %46, i64* %42, align 8, !tbaa !84
  %47 = bitcast %"class.std::deque.21"* %2 to <2 x i64>*
  store <2 x i64> %44, <2 x i64>* %47, align 16, !tbaa !18
  %48 = extractelement <2 x i64> %44, i32 0
  %49 = icmp eq i64 %48, 0
  %50 = extractelement <2 x i64> %23, i32 1
  %51 = inttoptr i64 %50 to i64**
  %52 = extractelement <2 x i64> %35, i32 1
  %53 = inttoptr i64 %52 to i64**
  br i1 %49, label %69, label %54

; <label>:54:                                     ; preds = %15
  %55 = inttoptr i64 %48 to i8*
  %56 = getelementptr inbounds i64*, i64** %53, i64 1
  %57 = icmp ugt i64** %56, %51
  br i1 %57, label %.preheader, label %67

.preheader:                                       ; preds = %54
  br label %58

; <label>:58:                                     ; preds = %.preheader, %58
  %59 = phi i64** [ %62, %58 ], [ %51, %.preheader ]
  %60 = bitcast i64** %59 to i8**
  %61 = load i8*, i8** %60, align 8, !tbaa !27
  call void @_ZdlPv(i8* %61) #8
  %62 = getelementptr inbounds i64*, i64** %59, i64 1
  %63 = icmp ult i64** %59, %53
  br i1 %63, label %58, label %64

; <label>:64:                                     ; preds = %58
  %65 = bitcast %"class.std::deque.21"* %2 to i8**
  %66 = load i8*, i8** %65, align 16, !tbaa !92
  br label %67

; <label>:67:                                     ; preds = %64, %54
  %68 = phi i8* [ %66, %64 ], [ %55, %54 ]
  call void @_ZdlPv(i8* %68) #8
  br label %69

; <label>:69:                                     ; preds = %11, %15, %67
  call void @llvm.lifetime.end.p0i8(i64 80, i8* nonnull %7) #8
  %70 = getelementptr inbounds %"class.MARC::ThreadSafeQueue.19", %"class.MARC::ThreadSafeQueue.19"* %0, i64 0, i32 3
  call void @_ZNSt18condition_variableC1Ev(%"class.std::condition_variable"* %70) #8
  %71 = getelementptr inbounds %"class.MARC::ThreadSafeQueue.19", %"class.MARC::ThreadSafeQueue.19"* %0, i64 0, i32 4
  call void @_ZNSt18condition_variableC1Ev(%"class.std::condition_variable"* %71) #8
  ret void

; <label>:72:                                     ; preds = %1
  %73 = landingpad { i8*, i32 }
          cleanup
  %74 = getelementptr inbounds %"class.std::deque.21", %"class.std::deque.21"* %2, i64 0, i32 0, i32 0, i32 0
  %75 = load i64**, i64*** %74, align 16, !tbaa !92
  %76 = icmp eq i64** %75, null
  br i1 %76, label %96, label %77

; <label>:77:                                     ; preds = %72
  %78 = bitcast i64** %75 to i8*
  %79 = getelementptr inbounds %"class.std::deque.21", %"class.std::deque.21"* %2, i64 0, i32 0, i32 0, i32 2, i32 3
  %80 = load i64**, i64*** %79, align 8, !tbaa !96
  %81 = getelementptr inbounds %"class.std::deque.21", %"class.std::deque.21"* %2, i64 0, i32 0, i32 0, i32 3, i32 3
  %82 = load i64**, i64*** %81, align 8, !tbaa !91
  %83 = getelementptr inbounds i64*, i64** %82, i64 1
  %84 = icmp ult i64** %80, %83
  br i1 %84, label %.preheader1, label %94

.preheader1:                                      ; preds = %77
  br label %85

; <label>:85:                                     ; preds = %.preheader1, %85
  %86 = phi i64** [ %89, %85 ], [ %80, %.preheader1 ]
  %87 = bitcast i64** %86 to i8**
  %88 = load i8*, i8** %87, align 8, !tbaa !27
  call void @_ZdlPv(i8* %88) #8
  %89 = getelementptr inbounds i64*, i64** %86, i64 1
  %90 = icmp ult i64** %86, %82
  br i1 %90, label %85, label %91

; <label>:91:                                     ; preds = %85
  %92 = bitcast %"class.std::deque.21"* %2 to i8**
  %93 = load i8*, i8** %92, align 16, !tbaa !92
  br label %94

; <label>:94:                                     ; preds = %91, %77
  %95 = phi i8* [ %93, %91 ], [ %78, %77 ]
  call void @_ZdlPv(i8* %95) #8
  br label %96

; <label>:96:                                     ; preds = %72, %94
  call void @llvm.lifetime.end.p0i8(i64 80, i8* nonnull %7) #8
  resume { i8*, i32 } %73
}

; Function Attrs: inlinehint uwtable
declare dereferenceable(272) %"class.std::basic_ostream"* @_ZStlsISt11char_traitsIcEERSt13basic_ostreamIcT_ES5_PKc(%"class.std::basic_ostream"* dereferenceable(272), i8*) local_unnamed_addr #14

; Function Attrs: noreturn nounwind
declare void @abort() local_unnamed_addr #15

; Function Attrs: noinline noreturn nounwind
define linkonce_odr hidden void @__clang_call_terminate(i8*) local_unnamed_addr #16 comdat {
  %2 = tail call i8* @__cxa_begin_catch(i8* %0) #8
  tail call void @_ZSt9terminatev() #22
  unreachable
}

; Function Attrs: uwtable
define linkonce_odr void @_ZN4MARC10ThreadPool6submitIRPFvPvS2_EJRS2_S2_EEEDaOT_DpOT0_(%"class.MARC::TaskFuture"* noalias sret, %"class.MARC::ThreadPool"*, void (i8*, i8*)** dereferenceable(8), i8** dereferenceable(8), i8** dereferenceable(8)) local_unnamed_addr #5 comdat align 2 personality i8* bitcast (i32 (...)* @__gxx_personality_v0 to i8*) {
  %6 = alloca <2 x i64>, align 16
  %7 = bitcast <2 x i64>* %6 to %"class.std::shared_ptr.121"*
  %8 = alloca <2 x i64>, align 16
  %9 = bitcast <2 x i64>* %8 to %"class.std::packaged_task"*
  %10 = alloca <2 x i64>, align 16
  %11 = bitcast <2 x i64>* %10 to %"class.MARC::TaskFuture"*
  %12 = alloca <2 x i64>, align 16
  %13 = bitcast <2 x i64>* %12 to %"class.std::future"*
  %14 = bitcast void (i8*, i8*)** %2 to i64*
  %15 = load i64, i64* %14, align 8, !tbaa !27, !noalias !169
  %16 = bitcast i8** %4 to i64*
  %17 = load i64, i64* %16, align 8, !tbaa !27, !noalias !169
  %18 = bitcast i8** %3 to i64*
  %19 = load i64, i64* %18, align 8, !tbaa !27, !noalias !169
  %20 = bitcast <2 x i64>* %8 to i8*
  call void @llvm.lifetime.start.p0i8(i64 16, i8* nonnull %20) #8
  %21 = bitcast <2 x i64>* %6 to i8*
  call void @llvm.lifetime.start.p0i8(i64 16, i8* nonnull %21) #8, !noalias !172
  %22 = getelementptr inbounds %"class.std::shared_ptr.121", %"class.std::shared_ptr.121"* %7, i64 0, i32 0, i32 1
  call void @llvm.memset.p0i8.i64(i8* nonnull %21, i8 0, i64 16, i32 16, i1 false)
  %23 = invoke i8* @_Znwm(i64 80)
          to label %24 unwind label %56, !noalias !175

; <label>:24:                                     ; preds = %5
  %25 = bitcast i8* %23 to i32 (...)***
  %26 = getelementptr inbounds i8, i8* %23, i64 8
  %27 = bitcast i8* %26 to i32*
  store i32 1, i32* %27, align 8, !tbaa !178, !noalias !175
  %28 = getelementptr inbounds i8, i8* %23, i64 12
  %29 = bitcast i8* %28 to i32*
  store i32 1, i32* %29, align 4, !tbaa !180, !noalias !175
  store i32 (...)** bitcast (i8** getelementptr inbounds ({ [7 x i8*] }, { [7 x i8*] }* @_ZTVSt23_Sp_counted_ptr_inplaceINSt13__future_base11_Task_stateISt5_BindIFPFvPvS3_ES3_S3_EESaIiEFvvEEES8_LN9__gnu_cxx12_Lock_policyE2EE, i64 0, inrange i32 0, i64 2) to i32 (...)**), i32 (...)*** %25, align 8, !tbaa !133, !noalias !175
  %30 = getelementptr inbounds i8, i8* %23, i64 16
  %31 = bitcast i8* %30 to i32 (...)***
  %32 = getelementptr inbounds i8, i8* %23, i64 24
  %33 = bitcast i8* %32 to %"struct.std::__future_base::_Result_base"**
  store %"struct.std::__future_base::_Result_base"* null, %"struct.std::__future_base::_Result_base"** %33, align 8, !tbaa !181, !noalias !175
  %34 = getelementptr inbounds i8, i8* %23, i64 32
  %35 = bitcast i8* %34 to i32*
  store i32 0, i32* %35, align 4, !tbaa !183, !noalias !175
  %36 = getelementptr inbounds i8, i8* %23, i64 36
  store i8 0, i8* %36, align 1, !tbaa !185, !noalias !175
  %37 = getelementptr inbounds i8, i8* %23, i64 40
  %38 = bitcast i8* %37 to i32*
  store i32 0, i32* %38, align 4, !tbaa !187, !noalias !175
  store i32 (...)** bitcast (i8** getelementptr inbounds ({ [9 x i8*] }, { [9 x i8*] }* @_ZTVNSt13__future_base16_Task_state_baseIFvvEEE, i64 0, inrange i32 0, i64 2) to i32 (...)**), i32 (...)*** %31, align 8, !tbaa !133, !noalias !175
  %39 = getelementptr inbounds i8, i8* %23, i64 48
  %40 = invoke i8* @_Znwm(i64 16) #24
          to label %41 unwind label %43, !noalias !175

; <label>:41:                                     ; preds = %24
  %42 = bitcast i8* %40 to %"struct.std::__future_base::_Result_base"*
  invoke void @_ZNSt13__future_base12_Result_baseC2Ev(%"struct.std::__future_base::_Result_base"* nonnull %42)
          to label %69 unwind label %45, !noalias !189

; <label>:43:                                     ; preds = %24
  %44 = landingpad { i8*, i32 }
          cleanup
  br label %60

; <label>:45:                                     ; preds = %41
  %46 = landingpad { i8*, i32 }
          cleanup
  tail call void @_ZdlPv(i8* nonnull %40) #25, !noalias !189
  %47 = load %"struct.std::__future_base::_Result_base"*, %"struct.std::__future_base::_Result_base"** %33, align 8, !tbaa !27, !noalias !175
  store i32 (...)** bitcast (i8** getelementptr inbounds ({ [6 x i8*] }, { [6 x i8*] }* @_ZTVNSt13__future_base13_State_baseV2E, i64 0, inrange i32 0, i64 2) to i32 (...)**), i32 (...)*** %31, align 8, !tbaa !133, !noalias !175
  %48 = icmp eq %"struct.std::__future_base::_Result_base"* %47, null
  br i1 %48, label %60, label %49

; <label>:49:                                     ; preds = %45
  %50 = bitcast %"struct.std::__future_base::_Result_base"* %47 to void (%"struct.std::__future_base::_Result_base"*)***
  %51 = load void (%"struct.std::__future_base::_Result_base"*)**, void (%"struct.std::__future_base::_Result_base"*)*** %50, align 8, !tbaa !133, !noalias !175
  %52 = load void (%"struct.std::__future_base::_Result_base"*)*, void (%"struct.std::__future_base::_Result_base"*)** %51, align 8, !noalias !175
  invoke void %52(%"struct.std::__future_base::_Result_base"* nonnull %47)
          to label %60 unwind label %53, !noalias !175

; <label>:53:                                     ; preds = %49
  %54 = landingpad { i8*, i32 }
          catch i8* null
  %55 = extractvalue { i8*, i32 } %54, 0
  tail call void @__clang_call_terminate(i8* %55) #22, !noalias !175
  unreachable

; <label>:56:                                     ; preds = %5
  %57 = landingpad { i8*, i32 }
          cleanup
  %58 = extractvalue { i8*, i32 } %57, 0
  %59 = extractvalue { i8*, i32 } %57, 1
  br label %64

; <label>:60:                                     ; preds = %43, %45, %49
  %61 = phi { i8*, i32 } [ %44, %43 ], [ %46, %45 ], [ %46, %49 ]
  %62 = extractvalue { i8*, i32 } %61, 0
  %63 = extractvalue { i8*, i32 } %61, 1
  tail call void @_ZdlPv(i8* nonnull %23) #8
  br label %64

; <label>:64:                                     ; preds = %56, %60
  %65 = phi i32 [ %63, %60 ], [ %59, %56 ]
  %66 = phi i8* [ %62, %60 ], [ %58, %56 ]
  %67 = insertvalue { i8*, i32 } undef, i8* %66, 0
  %68 = insertvalue { i8*, i32 } %67, i32 %65, 1
  resume { i8*, i32 } %68

; <label>:69:                                     ; preds = %41
  %70 = bitcast i8* %40 to i32 (...)***
  store i32 (...)** bitcast (i8** getelementptr inbounds ({ [5 x i8*] }, { [5 x i8*] }* @_ZTVNSt13__future_base7_ResultIvEE, i64 0, inrange i32 0, i64 2) to i32 (...)**), i32 (...)*** %70, align 8, !tbaa !133, !noalias !189
  %71 = bitcast i8* %39 to i8**
  store i8* %40, i8** %71, align 8, !tbaa !27, !alias.scope !192, !noalias !175
  store i32 (...)** bitcast (i8** getelementptr inbounds ({ [9 x i8*] }, { [9 x i8*] }* @_ZTVNSt13__future_base11_Task_stateISt5_BindIFPFvPvS2_ES2_S2_EESaIiEFvvEEE, i64 0, inrange i32 0, i64 2) to i32 (...)**), i32 (...)*** %31, align 8, !tbaa !133, !noalias !175
  %72 = getelementptr inbounds i8, i8* %23, i64 56
  %73 = bitcast i8* %72 to i64*
  store i64 %15, i64* %73, align 8, !tbaa !193, !noalias !175
  %74 = getelementptr inbounds i8, i8* %23, i64 64
  %75 = bitcast i8* %74 to i64*
  store i64 %17, i64* %75, align 8, !tbaa !196, !noalias !175
  %76 = getelementptr inbounds i8, i8* %23, i64 72
  %77 = bitcast i8* %76 to i64*
  store i64 %19, i64* %77, align 8, !tbaa !198, !noalias !175
  %78 = bitcast %"class.std::__shared_count"* %22 to i8**
  store i8* %23, i8** %78, align 8, !tbaa !129, !alias.scope !175
  %79 = bitcast i8* %23 to %"class.std::_Sp_counted_base"*
  %80 = bitcast i8* %23 to i8* (%"class.std::_Sp_counted_base"*, %"class.std::type_info"*)***
  %81 = load i8* (%"class.std::_Sp_counted_base"*, %"class.std::type_info"*)**, i8* (%"class.std::_Sp_counted_base"*, %"class.std::type_info"*)*** %80, align 8, !tbaa !133, !noalias !175
  %82 = getelementptr inbounds i8* (%"class.std::_Sp_counted_base"*, %"class.std::type_info"*)*, i8* (%"class.std::_Sp_counted_base"*, %"class.std::type_info"*)** %81, i64 4
  %83 = load i8* (%"class.std::_Sp_counted_base"*, %"class.std::type_info"*)*, i8* (%"class.std::_Sp_counted_base"*, %"class.std::type_info"*)** %82, align 8, !noalias !175
  %84 = tail call i8* %83(%"class.std::_Sp_counted_base"* nonnull %79, %"class.std::type_info"* nonnull dereferenceable(16) bitcast ({ i8*, i8* }* @_ZTISt19_Sp_make_shared_tag to %"class.std::type_info"*)) #8, !noalias !175
  %85 = bitcast <2 x i64>* %6 to i8**
  store i8* %84, i8** %85, align 16, !tbaa !200, !alias.scope !175
  call void (%"class.std::__shared_count"*, ...) @_ZSt32__enable_shared_from_this_helperILN9__gnu_cxx12_Lock_policyE2EEvRKSt14__shared_countIXT_EEz(%"class.std::__shared_count"* nonnull dereferenceable(8) %22, i8* %84, i8* %84) #8
  %86 = load <2 x i64>, <2 x i64>* %6, align 16, !tbaa !27, !noalias !172
  store <2 x i64> %86, <2 x i64>* %8, align 16, !tbaa !27, !alias.scope !172
  call void @llvm.lifetime.end.p0i8(i64 16, i8* nonnull %21) #8, !noalias !172
  %87 = bitcast <2 x i64>* %10 to i8*
  call void @llvm.lifetime.start.p0i8(i64 16, i8* nonnull %87) #8
  %88 = bitcast <2 x i64>* %12 to i8*
  call void @llvm.lifetime.start.p0i8(i64 16, i8* nonnull %88) #8
